
Arm_Modes.axf:     file format elf32-littlearm


Disassembly of section .isr_vector:

08000000 <g_pfnVectors>:
 8000000:	20005000 	andcs	r5, r0, r0
 8000004:	08000471 	stmdaeq	r0, {r0, r4, r5, r6, sl}
 8000008:	080004c1 	stmdaeq	r0, {r0, r6, r7, sl}
 800000c:	080004c1 	stmdaeq	r0, {r0, r6, r7, sl}
 8000010:	080004c1 	stmdaeq	r0, {r0, r6, r7, sl}
 8000014:	080004c1 	stmdaeq	r0, {r0, r6, r7, sl}
 8000018:	080004c1 	stmdaeq	r0, {r0, r6, r7, sl}
	...
 800002c:	080004c1 	stmdaeq	r0, {r0, r6, r7, sl}
 8000030:	080004c1 	stmdaeq	r0, {r0, r6, r7, sl}
 8000034:	00000000 	andeq	r0, r0, r0
 8000038:	080004c1 	stmdaeq	r0, {r0, r6, r7, sl}
 800003c:	080004c1 	stmdaeq	r0, {r0, r6, r7, sl}
 8000040:	080004c1 	stmdaeq	r0, {r0, r6, r7, sl}
 8000044:	080004c1 	stmdaeq	r0, {r0, r6, r7, sl}
 8000048:	080004c1 	stmdaeq	r0, {r0, r6, r7, sl}
 800004c:	080004c1 	stmdaeq	r0, {r0, r6, r7, sl}
 8000050:	080004c1 	stmdaeq	r0, {r0, r6, r7, sl}
 8000054:	080004c1 	stmdaeq	r0, {r0, r6, r7, sl}
 8000058:	08000855 	stmdaeq	r0, {r0, r2, r4, r6, fp}
 800005c:	08000879 	stmdaeq	r0, {r0, r3, r4, r5, r6, fp}
 8000060:	0800089d 	stmdaeq	r0, {r0, r2, r3, r4, r7, fp}
 8000064:	080008c1 	stmdaeq	r0, {r0, r6, r7, fp}
 8000068:	080008e5 	stmdaeq	r0, {r0, r2, r5, r6, r7, fp}
 800006c:	080004c1 	stmdaeq	r0, {r0, r6, r7, sl}
 8000070:	080004c1 	stmdaeq	r0, {r0, r6, r7, sl}
 8000074:	080004c1 	stmdaeq	r0, {r0, r6, r7, sl}
 8000078:	080004c1 	stmdaeq	r0, {r0, r6, r7, sl}
 800007c:	080004c1 	stmdaeq	r0, {r0, r6, r7, sl}
 8000080:	080004c1 	stmdaeq	r0, {r0, r6, r7, sl}
 8000084:	080004c1 	stmdaeq	r0, {r0, r6, r7, sl}
 8000088:	080004c1 	stmdaeq	r0, {r0, r6, r7, sl}
 800008c:	080004c1 	stmdaeq	r0, {r0, r6, r7, sl}
 8000090:	080004c1 	stmdaeq	r0, {r0, r6, r7, sl}
 8000094:	080004c1 	stmdaeq	r0, {r0, r6, r7, sl}
 8000098:	080004c1 	stmdaeq	r0, {r0, r6, r7, sl}
 800009c:	08000909 	stmdaeq	r0, {r0, r3, r8, fp}
 80000a0:	080004c1 	stmdaeq	r0, {r0, r6, r7, sl}
 80000a4:	080004c1 	stmdaeq	r0, {r0, r6, r7, sl}
 80000a8:	080004c1 	stmdaeq	r0, {r0, r6, r7, sl}
 80000ac:	080004c1 	stmdaeq	r0, {r0, r6, r7, sl}
 80000b0:	080004c1 	stmdaeq	r0, {r0, r6, r7, sl}
 80000b4:	080004c1 	stmdaeq	r0, {r0, r6, r7, sl}
 80000b8:	080004c1 	stmdaeq	r0, {r0, r6, r7, sl}
 80000bc:	080004c1 	stmdaeq	r0, {r0, r6, r7, sl}
 80000c0:	080004c1 	stmdaeq	r0, {r0, r6, r7, sl}
 80000c4:	080004c1 	stmdaeq	r0, {r0, r6, r7, sl}
 80000c8:	080004c1 	stmdaeq	r0, {r0, r6, r7, sl}
 80000cc:	080004c1 	stmdaeq	r0, {r0, r6, r7, sl}
 80000d0:	080004c1 	stmdaeq	r0, {r0, r6, r7, sl}
 80000d4:	080004c1 	stmdaeq	r0, {r0, r6, r7, sl}
 80000d8:	080004c1 	stmdaeq	r0, {r0, r6, r7, sl}
 80000dc:	080004c1 	stmdaeq	r0, {r0, r6, r7, sl}
 80000e0:	080009b1 	stmdaeq	r0, {r0, r4, r5, r7, r8, fp}
 80000e4:	080004c1 	stmdaeq	r0, {r0, r6, r7, sl}
 80000e8:	00000000 	andeq	r0, r0, r0
 80000ec:	080004c1 	stmdaeq	r0, {r0, r6, r7, sl}
 80000f0:	080004c1 	stmdaeq	r0, {r0, r6, r7, sl}
 80000f4:	080004c1 	stmdaeq	r0, {r0, r6, r7, sl}
 80000f8:	080004c1 	stmdaeq	r0, {r0, r6, r7, sl}
 80000fc:	080004c1 	stmdaeq	r0, {r0, r6, r7, sl}
 8000100:	080004c1 	stmdaeq	r0, {r0, r6, r7, sl}
 8000104:	080004c1 	stmdaeq	r0, {r0, r6, r7, sl}
 8000108:	080004c1 	stmdaeq	r0, {r0, r6, r7, sl}
 800010c:	080004c1 	stmdaeq	r0, {r0, r6, r7, sl}
 8000110:	080004c1 	stmdaeq	r0, {r0, r6, r7, sl}
 8000114:	080004c1 	stmdaeq	r0, {r0, r6, r7, sl}
 8000118:	080004c1 	stmdaeq	r0, {r0, r6, r7, sl}
 800011c:	080004c1 	stmdaeq	r0, {r0, r6, r7, sl}
 8000120:	080004c1 	stmdaeq	r0, {r0, r6, r7, sl}
 8000124:	080004c1 	stmdaeq	r0, {r0, r6, r7, sl}
 8000128:	080004c1 	stmdaeq	r0, {r0, r6, r7, sl}
 800012c:	080004c1 	stmdaeq	r0, {r0, r6, r7, sl}

Disassembly of section .text:

08000130 <__do_global_dtors_aux>:
 8000130:	b510      	push	{r4, lr}
 8000132:	4c05      	ldr	r4, [pc, #20]	; (8000148 <__do_global_dtors_aux+0x18>)
 8000134:	7823      	ldrb	r3, [r4, #0]
 8000136:	b933      	cbnz	r3, 8000146 <__do_global_dtors_aux+0x16>
 8000138:	4b04      	ldr	r3, [pc, #16]	; (800014c <__do_global_dtors_aux+0x1c>)
 800013a:	b113      	cbz	r3, 8000142 <__do_global_dtors_aux+0x12>
 800013c:	4804      	ldr	r0, [pc, #16]	; (8000150 <__do_global_dtors_aux+0x20>)
 800013e:	f3af 8000 	nop.w
 8000142:	2301      	movs	r3, #1
 8000144:	7023      	strb	r3, [r4, #0]
 8000146:	bd10      	pop	{r4, pc}
 8000148:	20000000 	andcs	r0, r0, r0
 800014c:	00000000 	andeq	r0, r0, r0
 8000150:	08000d70 	stmdaeq	r0, {r4, r5, r6, r8, sl, fp}

08000154 <frame_dummy>:
 8000154:	b508      	push	{r3, lr}
 8000156:	4b03      	ldr	r3, [pc, #12]	; (8000164 <frame_dummy+0x10>)
 8000158:	b11b      	cbz	r3, 8000162 <frame_dummy+0xe>
 800015a:	4903      	ldr	r1, [pc, #12]	; (8000168 <frame_dummy+0x14>)
 800015c:	4803      	ldr	r0, [pc, #12]	; (800016c <frame_dummy+0x18>)
 800015e:	f3af 8000 	nop.w
 8000162:	bd08      	pop	{r3, pc}
 8000164:	00000000 	andeq	r0, r0, r0
 8000168:	20000004 	andcs	r0, r0, r4
 800016c:	08000d70 	stmdaeq	r0, {r4, r5, r6, r8, sl, fp}

08000170 <delay_ms>:
 8000170:	b480      	push	{r7}
 8000172:	b085      	sub	sp, #20
 8000174:	af00      	add	r7, sp, #0
 8000176:	6078      	str	r0, [r7, #4]
 8000178:	2300      	movs	r3, #0
 800017a:	60fb      	str	r3, [r7, #12]
 800017c:	e00b      	b.n	8000196 <delay_ms+0x26>
 800017e:	2300      	movs	r3, #0
 8000180:	60bb      	str	r3, [r7, #8]
 8000182:	e002      	b.n	800018a <delay_ms+0x1a>
 8000184:	68bb      	ldr	r3, [r7, #8]
 8000186:	3301      	adds	r3, #1
 8000188:	60bb      	str	r3, [r7, #8]
 800018a:	68bb      	ldr	r3, [r7, #8]
 800018c:	2bfe      	cmp	r3, #254	; 0xfe
 800018e:	d9f9      	bls.n	8000184 <delay_ms+0x14>
 8000190:	68fb      	ldr	r3, [r7, #12]
 8000192:	3301      	adds	r3, #1
 8000194:	60fb      	str	r3, [r7, #12]
 8000196:	68fa      	ldr	r2, [r7, #12]
 8000198:	687b      	ldr	r3, [r7, #4]
 800019a:	429a      	cmp	r2, r3
 800019c:	d3ef      	bcc.n	800017e <delay_ms+0xe>
 800019e:	bf00      	nop
 80001a0:	bf00      	nop
 80001a2:	3714      	adds	r7, #20
 80001a4:	46bd      	mov	sp, r7
 80001a6:	bc80      	pop	{r7}
 80001a8:	4770      	bx	lr
	...

080001ac <LCD_GPIO_init>:
 80001ac:	b580      	push	{r7, lr}
 80001ae:	af00      	add	r7, sp, #0
 80001b0:	4b52      	ldr	r3, [pc, #328]	; (80002fc <LCD_GPIO_init+0x150>)
 80001b2:	f44f 7280 	mov.w	r2, #256	; 0x100
 80001b6:	801a      	strh	r2, [r3, #0]
 80001b8:	4b50      	ldr	r3, [pc, #320]	; (80002fc <LCD_GPIO_init+0x150>)
 80001ba:	2204      	movs	r2, #4
 80001bc:	709a      	strb	r2, [r3, #2]
 80001be:	4b4f      	ldr	r3, [pc, #316]	; (80002fc <LCD_GPIO_init+0x150>)
 80001c0:	2201      	movs	r2, #1
 80001c2:	70da      	strb	r2, [r3, #3]
 80001c4:	494d      	ldr	r1, [pc, #308]	; (80002fc <LCD_GPIO_init+0x150>)
 80001c6:	484e      	ldr	r0, [pc, #312]	; (8000300 <LCD_GPIO_init+0x154>)
 80001c8:	f000 fd0c 	bl	8000be4 <MCAL_GPIO_Init>
 80001cc:	4b4b      	ldr	r3, [pc, #300]	; (80002fc <LCD_GPIO_init+0x150>)
 80001ce:	f44f 7200 	mov.w	r2, #512	; 0x200
 80001d2:	801a      	strh	r2, [r3, #0]
 80001d4:	4b49      	ldr	r3, [pc, #292]	; (80002fc <LCD_GPIO_init+0x150>)
 80001d6:	2204      	movs	r2, #4
 80001d8:	709a      	strb	r2, [r3, #2]
 80001da:	4b48      	ldr	r3, [pc, #288]	; (80002fc <LCD_GPIO_init+0x150>)
 80001dc:	2201      	movs	r2, #1
 80001de:	70da      	strb	r2, [r3, #3]
 80001e0:	4946      	ldr	r1, [pc, #280]	; (80002fc <LCD_GPIO_init+0x150>)
 80001e2:	4847      	ldr	r0, [pc, #284]	; (8000300 <LCD_GPIO_init+0x154>)
 80001e4:	f000 fcfe 	bl	8000be4 <MCAL_GPIO_Init>
 80001e8:	4b44      	ldr	r3, [pc, #272]	; (80002fc <LCD_GPIO_init+0x150>)
 80001ea:	f44f 6280 	mov.w	r2, #1024	; 0x400
 80001ee:	801a      	strh	r2, [r3, #0]
 80001f0:	4b42      	ldr	r3, [pc, #264]	; (80002fc <LCD_GPIO_init+0x150>)
 80001f2:	2204      	movs	r2, #4
 80001f4:	709a      	strb	r2, [r3, #2]
 80001f6:	4b41      	ldr	r3, [pc, #260]	; (80002fc <LCD_GPIO_init+0x150>)
 80001f8:	2201      	movs	r2, #1
 80001fa:	70da      	strb	r2, [r3, #3]
 80001fc:	493f      	ldr	r1, [pc, #252]	; (80002fc <LCD_GPIO_init+0x150>)
 80001fe:	4840      	ldr	r0, [pc, #256]	; (8000300 <LCD_GPIO_init+0x154>)
 8000200:	f000 fcf0 	bl	8000be4 <MCAL_GPIO_Init>
 8000204:	4b3d      	ldr	r3, [pc, #244]	; (80002fc <LCD_GPIO_init+0x150>)
 8000206:	2201      	movs	r2, #1
 8000208:	801a      	strh	r2, [r3, #0]
 800020a:	4b3c      	ldr	r3, [pc, #240]	; (80002fc <LCD_GPIO_init+0x150>)
 800020c:	2204      	movs	r2, #4
 800020e:	709a      	strb	r2, [r3, #2]
 8000210:	4b3a      	ldr	r3, [pc, #232]	; (80002fc <LCD_GPIO_init+0x150>)
 8000212:	2201      	movs	r2, #1
 8000214:	70da      	strb	r2, [r3, #3]
 8000216:	4939      	ldr	r1, [pc, #228]	; (80002fc <LCD_GPIO_init+0x150>)
 8000218:	4839      	ldr	r0, [pc, #228]	; (8000300 <LCD_GPIO_init+0x154>)
 800021a:	f000 fce3 	bl	8000be4 <MCAL_GPIO_Init>
 800021e:	4b37      	ldr	r3, [pc, #220]	; (80002fc <LCD_GPIO_init+0x150>)
 8000220:	2202      	movs	r2, #2
 8000222:	801a      	strh	r2, [r3, #0]
 8000224:	4b35      	ldr	r3, [pc, #212]	; (80002fc <LCD_GPIO_init+0x150>)
 8000226:	2204      	movs	r2, #4
 8000228:	709a      	strb	r2, [r3, #2]
 800022a:	4b34      	ldr	r3, [pc, #208]	; (80002fc <LCD_GPIO_init+0x150>)
 800022c:	2201      	movs	r2, #1
 800022e:	70da      	strb	r2, [r3, #3]
 8000230:	4932      	ldr	r1, [pc, #200]	; (80002fc <LCD_GPIO_init+0x150>)
 8000232:	4833      	ldr	r0, [pc, #204]	; (8000300 <LCD_GPIO_init+0x154>)
 8000234:	f000 fcd6 	bl	8000be4 <MCAL_GPIO_Init>
 8000238:	4b30      	ldr	r3, [pc, #192]	; (80002fc <LCD_GPIO_init+0x150>)
 800023a:	2204      	movs	r2, #4
 800023c:	801a      	strh	r2, [r3, #0]
 800023e:	4b2f      	ldr	r3, [pc, #188]	; (80002fc <LCD_GPIO_init+0x150>)
 8000240:	2204      	movs	r2, #4
 8000242:	709a      	strb	r2, [r3, #2]
 8000244:	4b2d      	ldr	r3, [pc, #180]	; (80002fc <LCD_GPIO_init+0x150>)
 8000246:	2201      	movs	r2, #1
 8000248:	70da      	strb	r2, [r3, #3]
 800024a:	492c      	ldr	r1, [pc, #176]	; (80002fc <LCD_GPIO_init+0x150>)
 800024c:	482c      	ldr	r0, [pc, #176]	; (8000300 <LCD_GPIO_init+0x154>)
 800024e:	f000 fcc9 	bl	8000be4 <MCAL_GPIO_Init>
 8000252:	4b2a      	ldr	r3, [pc, #168]	; (80002fc <LCD_GPIO_init+0x150>)
 8000254:	2208      	movs	r2, #8
 8000256:	801a      	strh	r2, [r3, #0]
 8000258:	4b28      	ldr	r3, [pc, #160]	; (80002fc <LCD_GPIO_init+0x150>)
 800025a:	2204      	movs	r2, #4
 800025c:	709a      	strb	r2, [r3, #2]
 800025e:	4b27      	ldr	r3, [pc, #156]	; (80002fc <LCD_GPIO_init+0x150>)
 8000260:	2201      	movs	r2, #1
 8000262:	70da      	strb	r2, [r3, #3]
 8000264:	4925      	ldr	r1, [pc, #148]	; (80002fc <LCD_GPIO_init+0x150>)
 8000266:	4826      	ldr	r0, [pc, #152]	; (8000300 <LCD_GPIO_init+0x154>)
 8000268:	f000 fcbc 	bl	8000be4 <MCAL_GPIO_Init>
 800026c:	4b23      	ldr	r3, [pc, #140]	; (80002fc <LCD_GPIO_init+0x150>)
 800026e:	2210      	movs	r2, #16
 8000270:	801a      	strh	r2, [r3, #0]
 8000272:	4b22      	ldr	r3, [pc, #136]	; (80002fc <LCD_GPIO_init+0x150>)
 8000274:	2204      	movs	r2, #4
 8000276:	709a      	strb	r2, [r3, #2]
 8000278:	4b20      	ldr	r3, [pc, #128]	; (80002fc <LCD_GPIO_init+0x150>)
 800027a:	2201      	movs	r2, #1
 800027c:	70da      	strb	r2, [r3, #3]
 800027e:	491f      	ldr	r1, [pc, #124]	; (80002fc <LCD_GPIO_init+0x150>)
 8000280:	481f      	ldr	r0, [pc, #124]	; (8000300 <LCD_GPIO_init+0x154>)
 8000282:	f000 fcaf 	bl	8000be4 <MCAL_GPIO_Init>
 8000286:	4b1d      	ldr	r3, [pc, #116]	; (80002fc <LCD_GPIO_init+0x150>)
 8000288:	2220      	movs	r2, #32
 800028a:	801a      	strh	r2, [r3, #0]
 800028c:	4b1b      	ldr	r3, [pc, #108]	; (80002fc <LCD_GPIO_init+0x150>)
 800028e:	2204      	movs	r2, #4
 8000290:	709a      	strb	r2, [r3, #2]
 8000292:	4b1a      	ldr	r3, [pc, #104]	; (80002fc <LCD_GPIO_init+0x150>)
 8000294:	2201      	movs	r2, #1
 8000296:	70da      	strb	r2, [r3, #3]
 8000298:	4918      	ldr	r1, [pc, #96]	; (80002fc <LCD_GPIO_init+0x150>)
 800029a:	4819      	ldr	r0, [pc, #100]	; (8000300 <LCD_GPIO_init+0x154>)
 800029c:	f000 fca2 	bl	8000be4 <MCAL_GPIO_Init>
 80002a0:	4b16      	ldr	r3, [pc, #88]	; (80002fc <LCD_GPIO_init+0x150>)
 80002a2:	2240      	movs	r2, #64	; 0x40
 80002a4:	801a      	strh	r2, [r3, #0]
 80002a6:	4b15      	ldr	r3, [pc, #84]	; (80002fc <LCD_GPIO_init+0x150>)
 80002a8:	2204      	movs	r2, #4
 80002aa:	709a      	strb	r2, [r3, #2]
 80002ac:	4b13      	ldr	r3, [pc, #76]	; (80002fc <LCD_GPIO_init+0x150>)
 80002ae:	2201      	movs	r2, #1
 80002b0:	70da      	strb	r2, [r3, #3]
 80002b2:	4912      	ldr	r1, [pc, #72]	; (80002fc <LCD_GPIO_init+0x150>)
 80002b4:	4812      	ldr	r0, [pc, #72]	; (8000300 <LCD_GPIO_init+0x154>)
 80002b6:	f000 fc95 	bl	8000be4 <MCAL_GPIO_Init>
 80002ba:	4b10      	ldr	r3, [pc, #64]	; (80002fc <LCD_GPIO_init+0x150>)
 80002bc:	2280      	movs	r2, #128	; 0x80
 80002be:	801a      	strh	r2, [r3, #0]
 80002c0:	4b0e      	ldr	r3, [pc, #56]	; (80002fc <LCD_GPIO_init+0x150>)
 80002c2:	2204      	movs	r2, #4
 80002c4:	709a      	strb	r2, [r3, #2]
 80002c6:	4b0d      	ldr	r3, [pc, #52]	; (80002fc <LCD_GPIO_init+0x150>)
 80002c8:	2201      	movs	r2, #1
 80002ca:	70da      	strb	r2, [r3, #3]
 80002cc:	490b      	ldr	r1, [pc, #44]	; (80002fc <LCD_GPIO_init+0x150>)
 80002ce:	480c      	ldr	r0, [pc, #48]	; (8000300 <LCD_GPIO_init+0x154>)
 80002d0:	f000 fc88 	bl	8000be4 <MCAL_GPIO_Init>
 80002d4:	2200      	movs	r2, #0
 80002d6:	f44f 6180 	mov.w	r1, #1024	; 0x400
 80002da:	4809      	ldr	r0, [pc, #36]	; (8000300 <LCD_GPIO_init+0x154>)
 80002dc:	f000 fd0c 	bl	8000cf8 <MCAL_GPIO_WritePin>
 80002e0:	2200      	movs	r2, #0
 80002e2:	f44f 7180 	mov.w	r1, #256	; 0x100
 80002e6:	4806      	ldr	r0, [pc, #24]	; (8000300 <LCD_GPIO_init+0x154>)
 80002e8:	f000 fd06 	bl	8000cf8 <MCAL_GPIO_WritePin>
 80002ec:	2200      	movs	r2, #0
 80002ee:	f44f 7100 	mov.w	r1, #512	; 0x200
 80002f2:	4803      	ldr	r0, [pc, #12]	; (8000300 <LCD_GPIO_init+0x154>)
 80002f4:	f000 fd00 	bl	8000cf8 <MCAL_GPIO_WritePin>
 80002f8:	bf00      	nop
 80002fa:	bd80      	pop	{r7, pc}
 80002fc:	2000001c 	andcs	r0, r0, ip, lsl r0
 8000300:	40010800 	andmi	r0, r1, r0, lsl #16

08000304 <lcd_kick>:
 8000304:	b580      	push	{r7, lr}
 8000306:	af00      	add	r7, sp, #0
 8000308:	2201      	movs	r2, #1
 800030a:	f44f 6180 	mov.w	r1, #1024	; 0x400
 800030e:	4807      	ldr	r0, [pc, #28]	; (800032c <lcd_kick+0x28>)
 8000310:	f000 fcf2 	bl	8000cf8 <MCAL_GPIO_WritePin>
 8000314:	2032      	movs	r0, #50	; 0x32
 8000316:	f7ff ff2b 	bl	8000170 <delay_ms>
 800031a:	2200      	movs	r2, #0
 800031c:	f44f 6180 	mov.w	r1, #1024	; 0x400
 8000320:	4802      	ldr	r0, [pc, #8]	; (800032c <lcd_kick+0x28>)
 8000322:	f000 fce9 	bl	8000cf8 <MCAL_GPIO_WritePin>
 8000326:	bf00      	nop
 8000328:	bd80      	pop	{r7, pc}
 800032a:	bf00      	nop
 800032c:	40010800 	andmi	r0, r1, r0, lsl #16

08000330 <lcd_send_command>:
 8000330:	b580      	push	{r7, lr}
 8000332:	b082      	sub	sp, #8
 8000334:	af00      	add	r7, sp, #0
 8000336:	4603      	mov	r3, r0
 8000338:	71fb      	strb	r3, [r7, #7]
 800033a:	79fb      	ldrb	r3, [r7, #7]
 800033c:	4619      	mov	r1, r3
 800033e:	480c      	ldr	r0, [pc, #48]	; (8000370 <lcd_send_command+0x40>)
 8000340:	f000 fccc 	bl	8000cdc <MCAL_GPIO_WritePort>
 8000344:	2200      	movs	r2, #0
 8000346:	f44f 7100 	mov.w	r1, #512	; 0x200
 800034a:	4809      	ldr	r0, [pc, #36]	; (8000370 <lcd_send_command+0x40>)
 800034c:	f000 fcd4 	bl	8000cf8 <MCAL_GPIO_WritePin>
 8000350:	2200      	movs	r2, #0
 8000352:	f44f 7180 	mov.w	r1, #256	; 0x100
 8000356:	4806      	ldr	r0, [pc, #24]	; (8000370 <lcd_send_command+0x40>)
 8000358:	f000 fcce 	bl	8000cf8 <MCAL_GPIO_WritePin>
 800035c:	2001      	movs	r0, #1
 800035e:	f7ff ff07 	bl	8000170 <delay_ms>
 8000362:	f7ff ffcf 	bl	8000304 <lcd_kick>
 8000366:	bf00      	nop
 8000368:	3708      	adds	r7, #8
 800036a:	46bd      	mov	sp, r7
 800036c:	bd80      	pop	{r7, pc}
 800036e:	bf00      	nop
 8000370:	40010800 	andmi	r0, r1, r0, lsl #16

08000374 <lcd_init>:
 8000374:	b580      	push	{r7, lr}
 8000376:	af00      	add	r7, sp, #0
 8000378:	2014      	movs	r0, #20
 800037a:	f7ff fef9 	bl	8000170 <delay_ms>
 800037e:	f7ff ff15 	bl	80001ac <LCD_GPIO_init>
 8000382:	200f      	movs	r0, #15
 8000384:	f7ff fef4 	bl	8000170 <delay_ms>
 8000388:	f000 f80e 	bl	80003a8 <lcd_clear>
 800038c:	2038      	movs	r0, #56	; 0x38
 800038e:	f7ff ffcf 	bl	8000330 <lcd_send_command>
 8000392:	2006      	movs	r0, #6
 8000394:	f7ff ffcc 	bl	8000330 <lcd_send_command>
 8000398:	2080      	movs	r0, #128	; 0x80
 800039a:	f7ff ffc9 	bl	8000330 <lcd_send_command>
 800039e:	200d      	movs	r0, #13
 80003a0:	f7ff ffc6 	bl	8000330 <lcd_send_command>
 80003a4:	bf00      	nop
 80003a6:	bd80      	pop	{r7, pc}

080003a8 <lcd_clear>:
 80003a8:	b580      	push	{r7, lr}
 80003aa:	af00      	add	r7, sp, #0
 80003ac:	2001      	movs	r0, #1
 80003ae:	f7ff ffbf 	bl	8000330 <lcd_send_command>
 80003b2:	bf00      	nop
 80003b4:	bd80      	pop	{r7, pc}
	...

080003b8 <IRQ_EXTI9_callback>:
 80003b8:	b480      	push	{r7}
 80003ba:	af00      	add	r7, sp, #0
 80003bc:	4b08      	ldr	r3, [pc, #32]	; (80003e0 <IRQ_EXTI9_callback+0x28>)
 80003be:	2201      	movs	r2, #1
 80003c0:	601a      	str	r2, [r3, #0]
 80003c2:	bf00      	nop
 80003c4:	bf00      	nop
 80003c6:	bf00      	nop
 80003c8:	f3ef 8305 	mrs	r3, IPSR
 80003cc:	4a05      	ldr	r2, [pc, #20]	; (80003e4 <IRQ_EXTI9_callback+0x2c>)
 80003ce:	6013      	str	r3, [r2, #0]
 80003d0:	bf00      	nop
 80003d2:	bf00      	nop
 80003d4:	bf00      	nop
 80003d6:	bf00      	nop
 80003d8:	46bd      	mov	sp, r7
 80003da:	bc80      	pop	{r7}
 80003dc:	4770      	bx	lr
 80003de:	bf00      	nop
 80003e0:	20000020 	andcs	r0, r0, r0, lsr #32
 80003e4:	20000028 	andcs	r0, r0, r8, lsr #32

080003e8 <main>:
 80003e8:	b580      	push	{r7, lr}
 80003ea:	b088      	sub	sp, #32
 80003ec:	af00      	add	r7, sp, #0
 80003ee:	4b1b      	ldr	r3, [pc, #108]	; (800045c <main+0x74>)
 80003f0:	699b      	ldr	r3, [r3, #24]
 80003f2:	4a1a      	ldr	r2, [pc, #104]	; (800045c <main+0x74>)
 80003f4:	f043 0308 	orr.w	r3, r3, #8
 80003f8:	6193      	str	r3, [r2, #24]
 80003fa:	4b18      	ldr	r3, [pc, #96]	; (800045c <main+0x74>)
 80003fc:	699b      	ldr	r3, [r3, #24]
 80003fe:	4a17      	ldr	r2, [pc, #92]	; (800045c <main+0x74>)
 8000400:	f043 0301 	orr.w	r3, r3, #1
 8000404:	6193      	str	r3, [r2, #24]
 8000406:	f7ff ffb5 	bl	8000374 <lcd_init>
 800040a:	4a15      	ldr	r2, [pc, #84]	; (8000460 <main+0x78>)
 800040c:	f107 030c 	add.w	r3, r7, #12
 8000410:	ca07      	ldmia	r2, {r0, r1, r2}
 8000412:	e883 0007 	stmia.w	r3, {r0, r1, r2}
 8000416:	2300      	movs	r3, #0
 8000418:	763b      	strb	r3, [r7, #24]
 800041a:	4b12      	ldr	r3, [pc, #72]	; (8000464 <main+0x7c>)
 800041c:	61fb      	str	r3, [r7, #28]
 800041e:	2301      	movs	r3, #1
 8000420:	767b      	strb	r3, [r7, #25]
 8000422:	f107 030c 	add.w	r3, r7, #12
 8000426:	4618      	mov	r0, r3
 8000428:	f000 f918 	bl	800065c <MCAL_EXTI_Init>
 800042c:	4b0e      	ldr	r3, [pc, #56]	; (8000468 <main+0x80>)
 800042e:	2201      	movs	r2, #1
 8000430:	601a      	str	r2, [r3, #0]
 8000432:	bf00      	nop
 8000434:	bf00      	nop
 8000436:	bf00      	nop
 8000438:	f3ef 8314 	mrs	r3, CONTROL
 800043c:	4a0b      	ldr	r2, [pc, #44]	; (800046c <main+0x84>)
 800043e:	6013      	str	r3, [r2, #0]
 8000440:	bf00      	nop
 8000442:	bf00      	nop
 8000444:	bf00      	nop
 8000446:	4b08      	ldr	r3, [pc, #32]	; (8000468 <main+0x80>)
 8000448:	681b      	ldr	r3, [r3, #0]
 800044a:	2b00      	cmp	r3, #0
 800044c:	d0fb      	beq.n	8000446 <main+0x5e>
 800044e:	f7ff ffab 	bl	80003a8 <lcd_clear>
 8000452:	4b05      	ldr	r3, [pc, #20]	; (8000468 <main+0x80>)
 8000454:	2200      	movs	r2, #0
 8000456:	601a      	str	r2, [r3, #0]
 8000458:	e7f5      	b.n	8000446 <main+0x5e>
 800045a:	bf00      	nop
 800045c:	40021000 	andmi	r1, r2, r0
 8000460:	08000d88 	stmdaeq	r0, {r3, r7, r8, sl, fp}
 8000464:	080003b9 	stmdaeq	r0, {r0, r3, r4, r5, r7, r8, r9}
 8000468:	20000020 	andcs	r0, r0, r0, lsr #32
 800046c:	20000024 	andcs	r0, r0, r4, lsr #32

08000470 <Reset_Handler>:
 8000470:	480d      	ldr	r0, [pc, #52]	; (80004a8 <LoopForever+0x2>)
 8000472:	4685      	mov	sp, r0
 8000474:	f3af 8000 	nop.w
 8000478:	480c      	ldr	r0, [pc, #48]	; (80004ac <LoopForever+0x6>)
 800047a:	490d      	ldr	r1, [pc, #52]	; (80004b0 <LoopForever+0xa>)
 800047c:	4a0d      	ldr	r2, [pc, #52]	; (80004b4 <LoopForever+0xe>)
 800047e:	2300      	movs	r3, #0
 8000480:	e002      	b.n	8000488 <LoopCopyDataInit>

08000482 <CopyDataInit>:
 8000482:	58d4      	ldr	r4, [r2, r3]
 8000484:	50c4      	str	r4, [r0, r3]
 8000486:	3304      	adds	r3, #4

08000488 <LoopCopyDataInit>:
 8000488:	18c4      	adds	r4, r0, r3
 800048a:	428c      	cmp	r4, r1
 800048c:	d3f9      	bcc.n	8000482 <CopyDataInit>
 800048e:	4a0a      	ldr	r2, [pc, #40]	; (80004b8 <LoopForever+0x12>)
 8000490:	4c0a      	ldr	r4, [pc, #40]	; (80004bc <LoopForever+0x16>)
 8000492:	2300      	movs	r3, #0
 8000494:	e001      	b.n	800049a <LoopFillZerobss>

08000496 <FillZerobss>:
 8000496:	6013      	str	r3, [r2, #0]
 8000498:	3204      	adds	r2, #4

0800049a <LoopFillZerobss>:
 800049a:	42a2      	cmp	r2, r4
 800049c:	d3fb      	bcc.n	8000496 <FillZerobss>
 800049e:	f000 fc43 	bl	8000d28 <__libc_init_array>
 80004a2:	f7ff ffa1 	bl	80003e8 <main>

080004a6 <LoopForever>:
 80004a6:	e7fe      	b.n	80004a6 <LoopForever>
 80004a8:	20005000 	andcs	r5, r0, r0
 80004ac:	20000000 	andcs	r0, r0, r0
 80004b0:	20000000 	andcs	r0, r0, r0
 80004b4:	08000d9c 	stmdaeq	r0, {r2, r3, r4, r7, r8, sl, fp}
 80004b8:	20000000 	andcs	r0, r0, r0
 80004bc:	20000068 	andcs	r0, r0, r8, rrx

080004c0 <ADC1_2_IRQHandler>:
 80004c0:	e7fe      	b.n	80004c0 <ADC1_2_IRQHandler>
	...

080004c4 <Enable_NVIC>:
 80004c4:	b480      	push	{r7}
 80004c6:	b083      	sub	sp, #12
 80004c8:	af00      	add	r7, sp, #0
 80004ca:	4603      	mov	r3, r0
 80004cc:	80fb      	strh	r3, [r7, #6]
 80004ce:	88fb      	ldrh	r3, [r7, #6]
 80004d0:	2b0f      	cmp	r3, #15
 80004d2:	d854      	bhi.n	800057e <Enable_NVIC+0xba>
 80004d4:	a201      	add	r2, pc, #4	; (adr r2, 80004dc <Enable_NVIC+0x18>)
 80004d6:	f852 f023 	ldr.w	pc, [r2, r3, lsl #2]
 80004da:	bf00      	nop
 80004dc:	0800051d 	stmdaeq	r0, {r0, r2, r3, r4, r8, sl}
 80004e0:	0800052b 	stmdaeq	r0, {r0, r1, r3, r5, r8, sl}
 80004e4:	08000539 	stmdaeq	r0, {r0, r3, r4, r5, r8, sl}
 80004e8:	08000547 	stmdaeq	r0, {r0, r1, r2, r6, r8, sl}
 80004ec:	08000555 	stmdaeq	r0, {r0, r2, r4, r6, r8, sl}
 80004f0:	08000563 	stmdaeq	r0, {r0, r1, r5, r6, r8, sl}
 80004f4:	08000563 	stmdaeq	r0, {r0, r1, r5, r6, r8, sl}
 80004f8:	08000563 	stmdaeq	r0, {r0, r1, r5, r6, r8, sl}
 80004fc:	08000563 	stmdaeq	r0, {r0, r1, r5, r6, r8, sl}
 8000500:	08000563 	stmdaeq	r0, {r0, r1, r5, r6, r8, sl}
 8000504:	08000571 	stmdaeq	r0, {r0, r4, r5, r6, r8, sl}
 8000508:	08000571 	stmdaeq	r0, {r0, r4, r5, r6, r8, sl}
 800050c:	08000571 	stmdaeq	r0, {r0, r4, r5, r6, r8, sl}
 8000510:	08000571 	stmdaeq	r0, {r0, r4, r5, r6, r8, sl}
 8000514:	08000571 	stmdaeq	r0, {r0, r4, r5, r6, r8, sl}
 8000518:	08000571 	stmdaeq	r0, {r0, r4, r5, r6, r8, sl}
 800051c:	4b1a      	ldr	r3, [pc, #104]	; (8000588 <Enable_NVIC+0xc4>)
 800051e:	681b      	ldr	r3, [r3, #0]
 8000520:	4a19      	ldr	r2, [pc, #100]	; (8000588 <Enable_NVIC+0xc4>)
 8000522:	f043 0340 	orr.w	r3, r3, #64	; 0x40
 8000526:	6013      	str	r3, [r2, #0]
 8000528:	e029      	b.n	800057e <Enable_NVIC+0xba>
 800052a:	4b17      	ldr	r3, [pc, #92]	; (8000588 <Enable_NVIC+0xc4>)
 800052c:	681b      	ldr	r3, [r3, #0]
 800052e:	4a16      	ldr	r2, [pc, #88]	; (8000588 <Enable_NVIC+0xc4>)
 8000530:	f043 0380 	orr.w	r3, r3, #128	; 0x80
 8000534:	6013      	str	r3, [r2, #0]
 8000536:	e022      	b.n	800057e <Enable_NVIC+0xba>
 8000538:	4b13      	ldr	r3, [pc, #76]	; (8000588 <Enable_NVIC+0xc4>)
 800053a:	681b      	ldr	r3, [r3, #0]
 800053c:	4a12      	ldr	r2, [pc, #72]	; (8000588 <Enable_NVIC+0xc4>)
 800053e:	f443 7380 	orr.w	r3, r3, #256	; 0x100
 8000542:	6013      	str	r3, [r2, #0]
 8000544:	e01b      	b.n	800057e <Enable_NVIC+0xba>
 8000546:	4b10      	ldr	r3, [pc, #64]	; (8000588 <Enable_NVIC+0xc4>)
 8000548:	681b      	ldr	r3, [r3, #0]
 800054a:	4a0f      	ldr	r2, [pc, #60]	; (8000588 <Enable_NVIC+0xc4>)
 800054c:	f443 7300 	orr.w	r3, r3, #512	; 0x200
 8000550:	6013      	str	r3, [r2, #0]
 8000552:	e014      	b.n	800057e <Enable_NVIC+0xba>
 8000554:	4b0c      	ldr	r3, [pc, #48]	; (8000588 <Enable_NVIC+0xc4>)
 8000556:	681b      	ldr	r3, [r3, #0]
 8000558:	4a0b      	ldr	r2, [pc, #44]	; (8000588 <Enable_NVIC+0xc4>)
 800055a:	f443 6380 	orr.w	r3, r3, #1024	; 0x400
 800055e:	6013      	str	r3, [r2, #0]
 8000560:	e00d      	b.n	800057e <Enable_NVIC+0xba>
 8000562:	4b09      	ldr	r3, [pc, #36]	; (8000588 <Enable_NVIC+0xc4>)
 8000564:	681b      	ldr	r3, [r3, #0]
 8000566:	4a08      	ldr	r2, [pc, #32]	; (8000588 <Enable_NVIC+0xc4>)
 8000568:	f443 0300 	orr.w	r3, r3, #8388608	; 0x800000
 800056c:	6013      	str	r3, [r2, #0]
 800056e:	e006      	b.n	800057e <Enable_NVIC+0xba>
 8000570:	4b06      	ldr	r3, [pc, #24]	; (800058c <Enable_NVIC+0xc8>)
 8000572:	681b      	ldr	r3, [r3, #0]
 8000574:	4a05      	ldr	r2, [pc, #20]	; (800058c <Enable_NVIC+0xc8>)
 8000576:	f443 7380 	orr.w	r3, r3, #256	; 0x100
 800057a:	6013      	str	r3, [r2, #0]
 800057c:	bf00      	nop
 800057e:	bf00      	nop
 8000580:	370c      	adds	r7, #12
 8000582:	46bd      	mov	sp, r7
 8000584:	bc80      	pop	{r7}
 8000586:	4770      	bx	lr
 8000588:	e000e100 	and	lr, r0, r0, lsl #2
 800058c:	e000e104 	and	lr, r0, r4, lsl #2

08000590 <Disable_NVIC>:
 8000590:	b480      	push	{r7}
 8000592:	b083      	sub	sp, #12
 8000594:	af00      	add	r7, sp, #0
 8000596:	4603      	mov	r3, r0
 8000598:	80fb      	strh	r3, [r7, #6]
 800059a:	88fb      	ldrh	r3, [r7, #6]
 800059c:	2b0f      	cmp	r3, #15
 800059e:	d854      	bhi.n	800064a <Disable_NVIC+0xba>
 80005a0:	a201      	add	r2, pc, #4	; (adr r2, 80005a8 <Disable_NVIC+0x18>)
 80005a2:	f852 f023 	ldr.w	pc, [r2, r3, lsl #2]
 80005a6:	bf00      	nop
 80005a8:	080005e9 	stmdaeq	r0, {r0, r3, r5, r6, r7, r8, sl}
 80005ac:	080005f7 	stmdaeq	r0, {r0, r1, r2, r4, r5, r6, r7, r8, sl}
 80005b0:	08000605 	stmdaeq	r0, {r0, r2, r9, sl}
 80005b4:	08000613 	stmdaeq	r0, {r0, r1, r4, r9, sl}
 80005b8:	08000621 	stmdaeq	r0, {r0, r5, r9, sl}
 80005bc:	0800062f 	stmdaeq	r0, {r0, r1, r2, r3, r5, r9, sl}
 80005c0:	0800062f 	stmdaeq	r0, {r0, r1, r2, r3, r5, r9, sl}
 80005c4:	0800062f 	stmdaeq	r0, {r0, r1, r2, r3, r5, r9, sl}
 80005c8:	0800062f 	stmdaeq	r0, {r0, r1, r2, r3, r5, r9, sl}
 80005cc:	0800062f 	stmdaeq	r0, {r0, r1, r2, r3, r5, r9, sl}
 80005d0:	0800063d 	stmdaeq	r0, {r0, r2, r3, r4, r5, r9, sl}
 80005d4:	0800063d 	stmdaeq	r0, {r0, r2, r3, r4, r5, r9, sl}
 80005d8:	0800063d 	stmdaeq	r0, {r0, r2, r3, r4, r5, r9, sl}
 80005dc:	0800063d 	stmdaeq	r0, {r0, r2, r3, r4, r5, r9, sl}
 80005e0:	0800063d 	stmdaeq	r0, {r0, r2, r3, r4, r5, r9, sl}
 80005e4:	0800063d 	stmdaeq	r0, {r0, r2, r3, r4, r5, r9, sl}
 80005e8:	4b1a      	ldr	r3, [pc, #104]	; (8000654 <Disable_NVIC+0xc4>)
 80005ea:	681b      	ldr	r3, [r3, #0]
 80005ec:	4a19      	ldr	r2, [pc, #100]	; (8000654 <Disable_NVIC+0xc4>)
 80005ee:	f043 0340 	orr.w	r3, r3, #64	; 0x40
 80005f2:	6013      	str	r3, [r2, #0]
 80005f4:	e029      	b.n	800064a <Disable_NVIC+0xba>
 80005f6:	4b17      	ldr	r3, [pc, #92]	; (8000654 <Disable_NVIC+0xc4>)
 80005f8:	681b      	ldr	r3, [r3, #0]
 80005fa:	4a16      	ldr	r2, [pc, #88]	; (8000654 <Disable_NVIC+0xc4>)
 80005fc:	f043 0380 	orr.w	r3, r3, #128	; 0x80
 8000600:	6013      	str	r3, [r2, #0]
 8000602:	e022      	b.n	800064a <Disable_NVIC+0xba>
 8000604:	4b13      	ldr	r3, [pc, #76]	; (8000654 <Disable_NVIC+0xc4>)
 8000606:	681b      	ldr	r3, [r3, #0]
 8000608:	4a12      	ldr	r2, [pc, #72]	; (8000654 <Disable_NVIC+0xc4>)
 800060a:	f443 7380 	orr.w	r3, r3, #256	; 0x100
 800060e:	6013      	str	r3, [r2, #0]
 8000610:	e01b      	b.n	800064a <Disable_NVIC+0xba>
 8000612:	4b10      	ldr	r3, [pc, #64]	; (8000654 <Disable_NVIC+0xc4>)
 8000614:	681b      	ldr	r3, [r3, #0]
 8000616:	4a0f      	ldr	r2, [pc, #60]	; (8000654 <Disable_NVIC+0xc4>)
 8000618:	f443 7300 	orr.w	r3, r3, #512	; 0x200
 800061c:	6013      	str	r3, [r2, #0]
 800061e:	e014      	b.n	800064a <Disable_NVIC+0xba>
 8000620:	4b0c      	ldr	r3, [pc, #48]	; (8000654 <Disable_NVIC+0xc4>)
 8000622:	681b      	ldr	r3, [r3, #0]
 8000624:	4a0b      	ldr	r2, [pc, #44]	; (8000654 <Disable_NVIC+0xc4>)
 8000626:	f443 6380 	orr.w	r3, r3, #1024	; 0x400
 800062a:	6013      	str	r3, [r2, #0]
 800062c:	e00d      	b.n	800064a <Disable_NVIC+0xba>
 800062e:	4b09      	ldr	r3, [pc, #36]	; (8000654 <Disable_NVIC+0xc4>)
 8000630:	681b      	ldr	r3, [r3, #0]
 8000632:	4a08      	ldr	r2, [pc, #32]	; (8000654 <Disable_NVIC+0xc4>)
 8000634:	f443 0300 	orr.w	r3, r3, #8388608	; 0x800000
 8000638:	6013      	str	r3, [r2, #0]
 800063a:	e006      	b.n	800064a <Disable_NVIC+0xba>
 800063c:	4b06      	ldr	r3, [pc, #24]	; (8000658 <Disable_NVIC+0xc8>)
 800063e:	681b      	ldr	r3, [r3, #0]
 8000640:	4a05      	ldr	r2, [pc, #20]	; (8000658 <Disable_NVIC+0xc8>)
 8000642:	f443 7380 	orr.w	r3, r3, #256	; 0x100
 8000646:	6013      	str	r3, [r2, #0]
 8000648:	bf00      	nop
 800064a:	bf00      	nop
 800064c:	370c      	adds	r7, #12
 800064e:	46bd      	mov	sp, r7
 8000650:	bc80      	pop	{r7}
 8000652:	4770      	bx	lr
 8000654:	e000e180 	and	lr, r0, r0, lsl #3
 8000658:	e000e184 	and	lr, r0, r4, lsl #3

0800065c <MCAL_EXTI_Init>:
 800065c:	b580      	push	{r7, lr}
 800065e:	b082      	sub	sp, #8
 8000660:	af00      	add	r7, sp, #0
 8000662:	6078      	str	r0, [r7, #4]
 8000664:	6878      	ldr	r0, [r7, #4]
 8000666:	f000 f805 	bl	8000674 <update_EXTI>
 800066a:	bf00      	nop
 800066c:	3708      	adds	r7, #8
 800066e:	46bd      	mov	sp, r7
 8000670:	bd80      	pop	{r7, pc}
	...

08000674 <update_EXTI>:
 8000674:	b580      	push	{r7, lr}
 8000676:	b084      	sub	sp, #16
 8000678:	af00      	add	r7, sp, #0
 800067a:	6078      	str	r0, [r7, #4]
 800067c:	687b      	ldr	r3, [r7, #4]
 800067e:	891b      	ldrh	r3, [r3, #8]
 8000680:	813b      	strh	r3, [r7, #8]
 8000682:	2301      	movs	r3, #1
 8000684:	72bb      	strb	r3, [r7, #10]
 8000686:	687b      	ldr	r3, [r7, #4]
 8000688:	685b      	ldr	r3, [r3, #4]
 800068a:	f107 0208 	add.w	r2, r7, #8
 800068e:	4611      	mov	r1, r2
 8000690:	4618      	mov	r0, r3
 8000692:	f000 faa7 	bl	8000be4 <MCAL_GPIO_Init>
 8000696:	687b      	ldr	r3, [r7, #4]
 8000698:	781b      	ldrb	r3, [r3, #0]
 800069a:	089b      	lsrs	r3, r3, #2
 800069c:	73fb      	strb	r3, [r7, #15]
 800069e:	687b      	ldr	r3, [r7, #4]
 80006a0:	781b      	ldrb	r3, [r3, #0]
 80006a2:	f003 0303 	and.w	r3, r3, #3
 80006a6:	b2db      	uxtb	r3, r3
 80006a8:	009b      	lsls	r3, r3, #2
 80006aa:	73bb      	strb	r3, [r7, #14]
 80006ac:	4a62      	ldr	r2, [pc, #392]	; (8000838 <update_EXTI+0x1c4>)
 80006ae:	7bfb      	ldrb	r3, [r7, #15]
 80006b0:	3302      	adds	r3, #2
 80006b2:	f852 2023 	ldr.w	r2, [r2, r3, lsl #2]
 80006b6:	7bbb      	ldrb	r3, [r7, #14]
 80006b8:	210f      	movs	r1, #15
 80006ba:	fa01 f303 	lsl.w	r3, r1, r3
 80006be:	43db      	mvns	r3, r3
 80006c0:	4618      	mov	r0, r3
 80006c2:	495d      	ldr	r1, [pc, #372]	; (8000838 <update_EXTI+0x1c4>)
 80006c4:	7bfb      	ldrb	r3, [r7, #15]
 80006c6:	4002      	ands	r2, r0
 80006c8:	3302      	adds	r3, #2
 80006ca:	f841 2023 	str.w	r2, [r1, r3, lsl #2]
 80006ce:	4a5a      	ldr	r2, [pc, #360]	; (8000838 <update_EXTI+0x1c4>)
 80006d0:	7bfb      	ldrb	r3, [r7, #15]
 80006d2:	3302      	adds	r3, #2
 80006d4:	f852 2023 	ldr.w	r2, [r2, r3, lsl #2]
 80006d8:	687b      	ldr	r3, [r7, #4]
 80006da:	685b      	ldr	r3, [r3, #4]
 80006dc:	4957      	ldr	r1, [pc, #348]	; (800083c <update_EXTI+0x1c8>)
 80006de:	428b      	cmp	r3, r1
 80006e0:	d016      	beq.n	8000710 <update_EXTI+0x9c>
 80006e2:	687b      	ldr	r3, [r7, #4]
 80006e4:	685b      	ldr	r3, [r3, #4]
 80006e6:	4956      	ldr	r1, [pc, #344]	; (8000840 <update_EXTI+0x1cc>)
 80006e8:	428b      	cmp	r3, r1
 80006ea:	d00f      	beq.n	800070c <update_EXTI+0x98>
 80006ec:	687b      	ldr	r3, [r7, #4]
 80006ee:	685b      	ldr	r3, [r3, #4]
 80006f0:	4954      	ldr	r1, [pc, #336]	; (8000844 <update_EXTI+0x1d0>)
 80006f2:	428b      	cmp	r3, r1
 80006f4:	d008      	beq.n	8000708 <update_EXTI+0x94>
 80006f6:	687b      	ldr	r3, [r7, #4]
 80006f8:	685b      	ldr	r3, [r3, #4]
 80006fa:	4953      	ldr	r1, [pc, #332]	; (8000848 <update_EXTI+0x1d4>)
 80006fc:	428b      	cmp	r3, r1
 80006fe:	d101      	bne.n	8000704 <update_EXTI+0x90>
 8000700:	2303      	movs	r3, #3
 8000702:	e006      	b.n	8000712 <update_EXTI+0x9e>
 8000704:	2300      	movs	r3, #0
 8000706:	e004      	b.n	8000712 <update_EXTI+0x9e>
 8000708:	2302      	movs	r3, #2
 800070a:	e002      	b.n	8000712 <update_EXTI+0x9e>
 800070c:	2301      	movs	r3, #1
 800070e:	e000      	b.n	8000712 <update_EXTI+0x9e>
 8000710:	2300      	movs	r3, #0
 8000712:	7bb9      	ldrb	r1, [r7, #14]
 8000714:	408b      	lsls	r3, r1
 8000716:	4618      	mov	r0, r3
 8000718:	4947      	ldr	r1, [pc, #284]	; (8000838 <update_EXTI+0x1c4>)
 800071a:	7bfb      	ldrb	r3, [r7, #15]
 800071c:	4302      	orrs	r2, r0
 800071e:	3302      	adds	r3, #2
 8000720:	f841 2023 	str.w	r2, [r1, r3, lsl #2]
 8000724:	4b49      	ldr	r3, [pc, #292]	; (800084c <update_EXTI+0x1d8>)
 8000726:	689b      	ldr	r3, [r3, #8]
 8000728:	687a      	ldr	r2, [r7, #4]
 800072a:	7812      	ldrb	r2, [r2, #0]
 800072c:	4611      	mov	r1, r2
 800072e:	2201      	movs	r2, #1
 8000730:	408a      	lsls	r2, r1
 8000732:	43d2      	mvns	r2, r2
 8000734:	4611      	mov	r1, r2
 8000736:	4a45      	ldr	r2, [pc, #276]	; (800084c <update_EXTI+0x1d8>)
 8000738:	400b      	ands	r3, r1
 800073a:	6093      	str	r3, [r2, #8]
 800073c:	4b43      	ldr	r3, [pc, #268]	; (800084c <update_EXTI+0x1d8>)
 800073e:	68db      	ldr	r3, [r3, #12]
 8000740:	687a      	ldr	r2, [r7, #4]
 8000742:	7812      	ldrb	r2, [r2, #0]
 8000744:	4611      	mov	r1, r2
 8000746:	2201      	movs	r2, #1
 8000748:	408a      	lsls	r2, r1
 800074a:	43d2      	mvns	r2, r2
 800074c:	4611      	mov	r1, r2
 800074e:	4a3f      	ldr	r2, [pc, #252]	; (800084c <update_EXTI+0x1d8>)
 8000750:	400b      	ands	r3, r1
 8000752:	60d3      	str	r3, [r2, #12]
 8000754:	687b      	ldr	r3, [r7, #4]
 8000756:	7b1b      	ldrb	r3, [r3, #12]
 8000758:	2b00      	cmp	r3, #0
 800075a:	d10b      	bne.n	8000774 <update_EXTI+0x100>
 800075c:	4b3b      	ldr	r3, [pc, #236]	; (800084c <update_EXTI+0x1d8>)
 800075e:	689b      	ldr	r3, [r3, #8]
 8000760:	687a      	ldr	r2, [r7, #4]
 8000762:	7812      	ldrb	r2, [r2, #0]
 8000764:	4611      	mov	r1, r2
 8000766:	2201      	movs	r2, #1
 8000768:	408a      	lsls	r2, r1
 800076a:	4611      	mov	r1, r2
 800076c:	4a37      	ldr	r2, [pc, #220]	; (800084c <update_EXTI+0x1d8>)
 800076e:	430b      	orrs	r3, r1
 8000770:	6093      	str	r3, [r2, #8]
 8000772:	e029      	b.n	80007c8 <update_EXTI+0x154>
 8000774:	687b      	ldr	r3, [r7, #4]
 8000776:	7b1b      	ldrb	r3, [r3, #12]
 8000778:	2b01      	cmp	r3, #1
 800077a:	d10b      	bne.n	8000794 <update_EXTI+0x120>
 800077c:	4b33      	ldr	r3, [pc, #204]	; (800084c <update_EXTI+0x1d8>)
 800077e:	68db      	ldr	r3, [r3, #12]
 8000780:	687a      	ldr	r2, [r7, #4]
 8000782:	7812      	ldrb	r2, [r2, #0]
 8000784:	4611      	mov	r1, r2
 8000786:	2201      	movs	r2, #1
 8000788:	408a      	lsls	r2, r1
 800078a:	4611      	mov	r1, r2
 800078c:	4a2f      	ldr	r2, [pc, #188]	; (800084c <update_EXTI+0x1d8>)
 800078e:	430b      	orrs	r3, r1
 8000790:	60d3      	str	r3, [r2, #12]
 8000792:	e019      	b.n	80007c8 <update_EXTI+0x154>
 8000794:	687b      	ldr	r3, [r7, #4]
 8000796:	7b1b      	ldrb	r3, [r3, #12]
 8000798:	2b02      	cmp	r3, #2
 800079a:	d115      	bne.n	80007c8 <update_EXTI+0x154>
 800079c:	4b2b      	ldr	r3, [pc, #172]	; (800084c <update_EXTI+0x1d8>)
 800079e:	689b      	ldr	r3, [r3, #8]
 80007a0:	687a      	ldr	r2, [r7, #4]
 80007a2:	7812      	ldrb	r2, [r2, #0]
 80007a4:	4611      	mov	r1, r2
 80007a6:	2201      	movs	r2, #1
 80007a8:	408a      	lsls	r2, r1
 80007aa:	4611      	mov	r1, r2
 80007ac:	4a27      	ldr	r2, [pc, #156]	; (800084c <update_EXTI+0x1d8>)
 80007ae:	430b      	orrs	r3, r1
 80007b0:	6093      	str	r3, [r2, #8]
 80007b2:	4b26      	ldr	r3, [pc, #152]	; (800084c <update_EXTI+0x1d8>)
 80007b4:	68db      	ldr	r3, [r3, #12]
 80007b6:	687a      	ldr	r2, [r7, #4]
 80007b8:	7812      	ldrb	r2, [r2, #0]
 80007ba:	4611      	mov	r1, r2
 80007bc:	2201      	movs	r2, #1
 80007be:	408a      	lsls	r2, r1
 80007c0:	4611      	mov	r1, r2
 80007c2:	4a22      	ldr	r2, [pc, #136]	; (800084c <update_EXTI+0x1d8>)
 80007c4:	430b      	orrs	r3, r1
 80007c6:	60d3      	str	r3, [r2, #12]
 80007c8:	687b      	ldr	r3, [r7, #4]
 80007ca:	781b      	ldrb	r3, [r3, #0]
 80007cc:	4619      	mov	r1, r3
 80007ce:	687b      	ldr	r3, [r7, #4]
 80007d0:	691b      	ldr	r3, [r3, #16]
 80007d2:	4a1f      	ldr	r2, [pc, #124]	; (8000850 <update_EXTI+0x1dc>)
 80007d4:	f842 3021 	str.w	r3, [r2, r1, lsl #2]
 80007d8:	687b      	ldr	r3, [r7, #4]
 80007da:	7b5b      	ldrb	r3, [r3, #13]
 80007dc:	2b01      	cmp	r3, #1
 80007de:	d111      	bne.n	8000804 <update_EXTI+0x190>
 80007e0:	4b1a      	ldr	r3, [pc, #104]	; (800084c <update_EXTI+0x1d8>)
 80007e2:	681b      	ldr	r3, [r3, #0]
 80007e4:	687a      	ldr	r2, [r7, #4]
 80007e6:	7812      	ldrb	r2, [r2, #0]
 80007e8:	4611      	mov	r1, r2
 80007ea:	2201      	movs	r2, #1
 80007ec:	408a      	lsls	r2, r1
 80007ee:	4611      	mov	r1, r2
 80007f0:	4a16      	ldr	r2, [pc, #88]	; (800084c <update_EXTI+0x1d8>)
 80007f2:	430b      	orrs	r3, r1
 80007f4:	6013      	str	r3, [r2, #0]
 80007f6:	687b      	ldr	r3, [r7, #4]
 80007f8:	781b      	ldrb	r3, [r3, #0]
 80007fa:	b29b      	uxth	r3, r3
 80007fc:	4618      	mov	r0, r3
 80007fe:	f7ff fe61 	bl	80004c4 <Enable_NVIC>
 8000802:	e015      	b.n	8000830 <update_EXTI+0x1bc>
 8000804:	687b      	ldr	r3, [r7, #4]
 8000806:	7b5b      	ldrb	r3, [r3, #13]
 8000808:	2b00      	cmp	r3, #0
 800080a:	d111      	bne.n	8000830 <update_EXTI+0x1bc>
 800080c:	4b0f      	ldr	r3, [pc, #60]	; (800084c <update_EXTI+0x1d8>)
 800080e:	681b      	ldr	r3, [r3, #0]
 8000810:	687a      	ldr	r2, [r7, #4]
 8000812:	7812      	ldrb	r2, [r2, #0]
 8000814:	4611      	mov	r1, r2
 8000816:	2201      	movs	r2, #1
 8000818:	408a      	lsls	r2, r1
 800081a:	43d2      	mvns	r2, r2
 800081c:	4611      	mov	r1, r2
 800081e:	4a0b      	ldr	r2, [pc, #44]	; (800084c <update_EXTI+0x1d8>)
 8000820:	400b      	ands	r3, r1
 8000822:	6013      	str	r3, [r2, #0]
 8000824:	687b      	ldr	r3, [r7, #4]
 8000826:	781b      	ldrb	r3, [r3, #0]
 8000828:	b29b      	uxth	r3, r3
 800082a:	4618      	mov	r0, r3
 800082c:	f7ff feb0 	bl	8000590 <Disable_NVIC>
 8000830:	bf00      	nop
 8000832:	3710      	adds	r7, #16
 8000834:	46bd      	mov	sp, r7
 8000836:	bd80      	pop	{r7, pc}
 8000838:	40010000 	andmi	r0, r1, r0
 800083c:	40010800 	andmi	r0, r1, r0, lsl #16
 8000840:	40010c00 	andmi	r0, r1, r0, lsl #24
 8000844:	40011000 	andmi	r1, r1, r0
 8000848:	40011400 	andmi	r1, r1, r0, lsl #8
 800084c:	40010400 	andmi	r0, r1, r0, lsl #8
 8000850:	2000002c 	andcs	r0, r0, ip, lsr #32

08000854 <EXTI0_IRQHandler>:
 8000854:	b580      	push	{r7, lr}
 8000856:	af00      	add	r7, sp, #0
 8000858:	4b05      	ldr	r3, [pc, #20]	; (8000870 <EXTI0_IRQHandler+0x1c>)
 800085a:	695b      	ldr	r3, [r3, #20]
 800085c:	4a04      	ldr	r2, [pc, #16]	; (8000870 <EXTI0_IRQHandler+0x1c>)
 800085e:	f043 0301 	orr.w	r3, r3, #1
 8000862:	6153      	str	r3, [r2, #20]
 8000864:	4b03      	ldr	r3, [pc, #12]	; (8000874 <EXTI0_IRQHandler+0x20>)
 8000866:	681b      	ldr	r3, [r3, #0]
 8000868:	4798      	blx	r3
 800086a:	bf00      	nop
 800086c:	bd80      	pop	{r7, pc}
 800086e:	bf00      	nop
 8000870:	40010400 	andmi	r0, r1, r0, lsl #8
 8000874:	2000002c 	andcs	r0, r0, ip, lsr #32

08000878 <EXTI1_IRQHandler>:
 8000878:	b580      	push	{r7, lr}
 800087a:	af00      	add	r7, sp, #0
 800087c:	4b05      	ldr	r3, [pc, #20]	; (8000894 <EXTI1_IRQHandler+0x1c>)
 800087e:	695b      	ldr	r3, [r3, #20]
 8000880:	4a04      	ldr	r2, [pc, #16]	; (8000894 <EXTI1_IRQHandler+0x1c>)
 8000882:	f043 0302 	orr.w	r3, r3, #2
 8000886:	6153      	str	r3, [r2, #20]
 8000888:	4b03      	ldr	r3, [pc, #12]	; (8000898 <EXTI1_IRQHandler+0x20>)
 800088a:	685b      	ldr	r3, [r3, #4]
 800088c:	4798      	blx	r3
 800088e:	bf00      	nop
 8000890:	bd80      	pop	{r7, pc}
 8000892:	bf00      	nop
 8000894:	40010400 	andmi	r0, r1, r0, lsl #8
 8000898:	2000002c 	andcs	r0, r0, ip, lsr #32

0800089c <EXTI2_IRQHandler>:
 800089c:	b580      	push	{r7, lr}
 800089e:	af00      	add	r7, sp, #0
 80008a0:	4b05      	ldr	r3, [pc, #20]	; (80008b8 <EXTI2_IRQHandler+0x1c>)
 80008a2:	695b      	ldr	r3, [r3, #20]
 80008a4:	4a04      	ldr	r2, [pc, #16]	; (80008b8 <EXTI2_IRQHandler+0x1c>)
 80008a6:	f043 0304 	orr.w	r3, r3, #4
 80008aa:	6153      	str	r3, [r2, #20]
 80008ac:	4b03      	ldr	r3, [pc, #12]	; (80008bc <EXTI2_IRQHandler+0x20>)
 80008ae:	689b      	ldr	r3, [r3, #8]
 80008b0:	4798      	blx	r3
 80008b2:	bf00      	nop
 80008b4:	bd80      	pop	{r7, pc}
 80008b6:	bf00      	nop
 80008b8:	40010400 	andmi	r0, r1, r0, lsl #8
 80008bc:	2000002c 	andcs	r0, r0, ip, lsr #32

080008c0 <EXTI3_IRQHandler>:
 80008c0:	b580      	push	{r7, lr}
 80008c2:	af00      	add	r7, sp, #0
 80008c4:	4b05      	ldr	r3, [pc, #20]	; (80008dc <EXTI3_IRQHandler+0x1c>)
 80008c6:	695b      	ldr	r3, [r3, #20]
 80008c8:	4a04      	ldr	r2, [pc, #16]	; (80008dc <EXTI3_IRQHandler+0x1c>)
 80008ca:	f043 0308 	orr.w	r3, r3, #8
 80008ce:	6153      	str	r3, [r2, #20]
 80008d0:	4b03      	ldr	r3, [pc, #12]	; (80008e0 <EXTI3_IRQHandler+0x20>)
 80008d2:	68db      	ldr	r3, [r3, #12]
 80008d4:	4798      	blx	r3
 80008d6:	bf00      	nop
 80008d8:	bd80      	pop	{r7, pc}
 80008da:	bf00      	nop
 80008dc:	40010400 	andmi	r0, r1, r0, lsl #8
 80008e0:	2000002c 	andcs	r0, r0, ip, lsr #32

080008e4 <EXTI4_IRQHandler>:
 80008e4:	b580      	push	{r7, lr}
 80008e6:	af00      	add	r7, sp, #0
 80008e8:	4b05      	ldr	r3, [pc, #20]	; (8000900 <EXTI4_IRQHandler+0x1c>)
 80008ea:	695b      	ldr	r3, [r3, #20]
 80008ec:	4a04      	ldr	r2, [pc, #16]	; (8000900 <EXTI4_IRQHandler+0x1c>)
 80008ee:	f043 0310 	orr.w	r3, r3, #16
 80008f2:	6153      	str	r3, [r2, #20]
 80008f4:	4b03      	ldr	r3, [pc, #12]	; (8000904 <EXTI4_IRQHandler+0x20>)
 80008f6:	691b      	ldr	r3, [r3, #16]
 80008f8:	4798      	blx	r3
 80008fa:	bf00      	nop
 80008fc:	bd80      	pop	{r7, pc}
 80008fe:	bf00      	nop
 8000900:	40010400 	andmi	r0, r1, r0, lsl #8
 8000904:	2000002c 	andcs	r0, r0, ip, lsr #32

08000908 <EXTI9_5_IRQHandler>:
 8000908:	b580      	push	{r7, lr}
 800090a:	af00      	add	r7, sp, #0
 800090c:	4b26      	ldr	r3, [pc, #152]	; (80009a8 <EXTI9_5_IRQHandler+0xa0>)
 800090e:	695b      	ldr	r3, [r3, #20]
 8000910:	f003 0320 	and.w	r3, r3, #32
 8000914:	2b00      	cmp	r3, #0
 8000916:	d008      	beq.n	800092a <EXTI9_5_IRQHandler+0x22>
 8000918:	4b23      	ldr	r3, [pc, #140]	; (80009a8 <EXTI9_5_IRQHandler+0xa0>)
 800091a:	695b      	ldr	r3, [r3, #20]
 800091c:	4a22      	ldr	r2, [pc, #136]	; (80009a8 <EXTI9_5_IRQHandler+0xa0>)
 800091e:	f043 0320 	orr.w	r3, r3, #32
 8000922:	6153      	str	r3, [r2, #20]
 8000924:	4b21      	ldr	r3, [pc, #132]	; (80009ac <EXTI9_5_IRQHandler+0xa4>)
 8000926:	695b      	ldr	r3, [r3, #20]
 8000928:	4798      	blx	r3
 800092a:	4b1f      	ldr	r3, [pc, #124]	; (80009a8 <EXTI9_5_IRQHandler+0xa0>)
 800092c:	695b      	ldr	r3, [r3, #20]
 800092e:	f003 0340 	and.w	r3, r3, #64	; 0x40
 8000932:	2b00      	cmp	r3, #0
 8000934:	d008      	beq.n	8000948 <EXTI9_5_IRQHandler+0x40>
 8000936:	4b1c      	ldr	r3, [pc, #112]	; (80009a8 <EXTI9_5_IRQHandler+0xa0>)
 8000938:	695b      	ldr	r3, [r3, #20]
 800093a:	4a1b      	ldr	r2, [pc, #108]	; (80009a8 <EXTI9_5_IRQHandler+0xa0>)
 800093c:	f043 0340 	orr.w	r3, r3, #64	; 0x40
 8000940:	6153      	str	r3, [r2, #20]
 8000942:	4b1a      	ldr	r3, [pc, #104]	; (80009ac <EXTI9_5_IRQHandler+0xa4>)
 8000944:	699b      	ldr	r3, [r3, #24]
 8000946:	4798      	blx	r3
 8000948:	4b17      	ldr	r3, [pc, #92]	; (80009a8 <EXTI9_5_IRQHandler+0xa0>)
 800094a:	695b      	ldr	r3, [r3, #20]
 800094c:	f003 0380 	and.w	r3, r3, #128	; 0x80
 8000950:	2b00      	cmp	r3, #0
 8000952:	d008      	beq.n	8000966 <EXTI9_5_IRQHandler+0x5e>
 8000954:	4b14      	ldr	r3, [pc, #80]	; (80009a8 <EXTI9_5_IRQHandler+0xa0>)
 8000956:	695b      	ldr	r3, [r3, #20]
 8000958:	4a13      	ldr	r2, [pc, #76]	; (80009a8 <EXTI9_5_IRQHandler+0xa0>)
 800095a:	f043 0380 	orr.w	r3, r3, #128	; 0x80
 800095e:	6153      	str	r3, [r2, #20]
 8000960:	4b12      	ldr	r3, [pc, #72]	; (80009ac <EXTI9_5_IRQHandler+0xa4>)
 8000962:	69db      	ldr	r3, [r3, #28]
 8000964:	4798      	blx	r3
 8000966:	4b10      	ldr	r3, [pc, #64]	; (80009a8 <EXTI9_5_IRQHandler+0xa0>)
 8000968:	695b      	ldr	r3, [r3, #20]
 800096a:	f403 7380 	and.w	r3, r3, #256	; 0x100
 800096e:	2b00      	cmp	r3, #0
 8000970:	d008      	beq.n	8000984 <EXTI9_5_IRQHandler+0x7c>
 8000972:	4b0d      	ldr	r3, [pc, #52]	; (80009a8 <EXTI9_5_IRQHandler+0xa0>)
 8000974:	695b      	ldr	r3, [r3, #20]
 8000976:	4a0c      	ldr	r2, [pc, #48]	; (80009a8 <EXTI9_5_IRQHandler+0xa0>)
 8000978:	f443 7380 	orr.w	r3, r3, #256	; 0x100
 800097c:	6153      	str	r3, [r2, #20]
 800097e:	4b0b      	ldr	r3, [pc, #44]	; (80009ac <EXTI9_5_IRQHandler+0xa4>)
 8000980:	6a1b      	ldr	r3, [r3, #32]
 8000982:	4798      	blx	r3
 8000984:	4b08      	ldr	r3, [pc, #32]	; (80009a8 <EXTI9_5_IRQHandler+0xa0>)
 8000986:	695b      	ldr	r3, [r3, #20]
 8000988:	f403 7300 	and.w	r3, r3, #512	; 0x200
 800098c:	2b00      	cmp	r3, #0
 800098e:	d008      	beq.n	80009a2 <EXTI9_5_IRQHandler+0x9a>
 8000990:	4b05      	ldr	r3, [pc, #20]	; (80009a8 <EXTI9_5_IRQHandler+0xa0>)
 8000992:	695b      	ldr	r3, [r3, #20]
 8000994:	4a04      	ldr	r2, [pc, #16]	; (80009a8 <EXTI9_5_IRQHandler+0xa0>)
 8000996:	f443 7300 	orr.w	r3, r3, #512	; 0x200
 800099a:	6153      	str	r3, [r2, #20]
 800099c:	4b03      	ldr	r3, [pc, #12]	; (80009ac <EXTI9_5_IRQHandler+0xa4>)
 800099e:	6a5b      	ldr	r3, [r3, #36]	; 0x24
 80009a0:	4798      	blx	r3
 80009a2:	bf00      	nop
 80009a4:	bd80      	pop	{r7, pc}
 80009a6:	bf00      	nop
 80009a8:	40010400 	andmi	r0, r1, r0, lsl #8
 80009ac:	2000002c 	andcs	r0, r0, ip, lsr #32

080009b0 <EXTI15_10_IRQHandler>:
 80009b0:	b580      	push	{r7, lr}
 80009b2:	af00      	add	r7, sp, #0
 80009b4:	4b2d      	ldr	r3, [pc, #180]	; (8000a6c <EXTI15_10_IRQHandler+0xbc>)
 80009b6:	695b      	ldr	r3, [r3, #20]
 80009b8:	f403 6380 	and.w	r3, r3, #1024	; 0x400
 80009bc:	2b00      	cmp	r3, #0
 80009be:	d008      	beq.n	80009d2 <EXTI15_10_IRQHandler+0x22>
 80009c0:	4b2a      	ldr	r3, [pc, #168]	; (8000a6c <EXTI15_10_IRQHandler+0xbc>)
 80009c2:	695b      	ldr	r3, [r3, #20]
 80009c4:	4a29      	ldr	r2, [pc, #164]	; (8000a6c <EXTI15_10_IRQHandler+0xbc>)
 80009c6:	f443 6380 	orr.w	r3, r3, #1024	; 0x400
 80009ca:	6153      	str	r3, [r2, #20]
 80009cc:	4b28      	ldr	r3, [pc, #160]	; (8000a70 <EXTI15_10_IRQHandler+0xc0>)
 80009ce:	6a9b      	ldr	r3, [r3, #40]	; 0x28
 80009d0:	4798      	blx	r3
 80009d2:	4b26      	ldr	r3, [pc, #152]	; (8000a6c <EXTI15_10_IRQHandler+0xbc>)
 80009d4:	695b      	ldr	r3, [r3, #20]
 80009d6:	f403 6300 	and.w	r3, r3, #2048	; 0x800
 80009da:	2b00      	cmp	r3, #0
 80009dc:	d008      	beq.n	80009f0 <EXTI15_10_IRQHandler+0x40>
 80009de:	4b23      	ldr	r3, [pc, #140]	; (8000a6c <EXTI15_10_IRQHandler+0xbc>)
 80009e0:	695b      	ldr	r3, [r3, #20]
 80009e2:	4a22      	ldr	r2, [pc, #136]	; (8000a6c <EXTI15_10_IRQHandler+0xbc>)
 80009e4:	f443 6300 	orr.w	r3, r3, #2048	; 0x800
 80009e8:	6153      	str	r3, [r2, #20]
 80009ea:	4b21      	ldr	r3, [pc, #132]	; (8000a70 <EXTI15_10_IRQHandler+0xc0>)
 80009ec:	6adb      	ldr	r3, [r3, #44]	; 0x2c
 80009ee:	4798      	blx	r3
 80009f0:	4b1e      	ldr	r3, [pc, #120]	; (8000a6c <EXTI15_10_IRQHandler+0xbc>)
 80009f2:	695b      	ldr	r3, [r3, #20]
 80009f4:	f403 5380 	and.w	r3, r3, #4096	; 0x1000
 80009f8:	2b00      	cmp	r3, #0
 80009fa:	d008      	beq.n	8000a0e <EXTI15_10_IRQHandler+0x5e>
 80009fc:	4b1b      	ldr	r3, [pc, #108]	; (8000a6c <EXTI15_10_IRQHandler+0xbc>)
 80009fe:	695b      	ldr	r3, [r3, #20]
 8000a00:	4a1a      	ldr	r2, [pc, #104]	; (8000a6c <EXTI15_10_IRQHandler+0xbc>)
 8000a02:	f443 5380 	orr.w	r3, r3, #4096	; 0x1000
 8000a06:	6153      	str	r3, [r2, #20]
 8000a08:	4b19      	ldr	r3, [pc, #100]	; (8000a70 <EXTI15_10_IRQHandler+0xc0>)
 8000a0a:	6b1b      	ldr	r3, [r3, #48]	; 0x30
 8000a0c:	4798      	blx	r3
 8000a0e:	4b17      	ldr	r3, [pc, #92]	; (8000a6c <EXTI15_10_IRQHandler+0xbc>)
 8000a10:	695b      	ldr	r3, [r3, #20]
 8000a12:	f403 5300 	and.w	r3, r3, #8192	; 0x2000
 8000a16:	2b00      	cmp	r3, #0
 8000a18:	d008      	beq.n	8000a2c <EXTI15_10_IRQHandler+0x7c>
 8000a1a:	4b14      	ldr	r3, [pc, #80]	; (8000a6c <EXTI15_10_IRQHandler+0xbc>)
 8000a1c:	695b      	ldr	r3, [r3, #20]
 8000a1e:	4a13      	ldr	r2, [pc, #76]	; (8000a6c <EXTI15_10_IRQHandler+0xbc>)
 8000a20:	f443 5300 	orr.w	r3, r3, #8192	; 0x2000
 8000a24:	6153      	str	r3, [r2, #20]
 8000a26:	4b12      	ldr	r3, [pc, #72]	; (8000a70 <EXTI15_10_IRQHandler+0xc0>)
 8000a28:	6b5b      	ldr	r3, [r3, #52]	; 0x34
 8000a2a:	4798      	blx	r3
 8000a2c:	4b0f      	ldr	r3, [pc, #60]	; (8000a6c <EXTI15_10_IRQHandler+0xbc>)
 8000a2e:	695b      	ldr	r3, [r3, #20]
 8000a30:	f403 4380 	and.w	r3, r3, #16384	; 0x4000
 8000a34:	2b00      	cmp	r3, #0
 8000a36:	d008      	beq.n	8000a4a <EXTI15_10_IRQHandler+0x9a>
 8000a38:	4b0c      	ldr	r3, [pc, #48]	; (8000a6c <EXTI15_10_IRQHandler+0xbc>)
 8000a3a:	695b      	ldr	r3, [r3, #20]
 8000a3c:	4a0b      	ldr	r2, [pc, #44]	; (8000a6c <EXTI15_10_IRQHandler+0xbc>)
 8000a3e:	f443 4380 	orr.w	r3, r3, #16384	; 0x4000
 8000a42:	6153      	str	r3, [r2, #20]
 8000a44:	4b0a      	ldr	r3, [pc, #40]	; (8000a70 <EXTI15_10_IRQHandler+0xc0>)
 8000a46:	6b9b      	ldr	r3, [r3, #56]	; 0x38
 8000a48:	4798      	blx	r3
 8000a4a:	4b08      	ldr	r3, [pc, #32]	; (8000a6c <EXTI15_10_IRQHandler+0xbc>)
 8000a4c:	695b      	ldr	r3, [r3, #20]
 8000a4e:	f403 4300 	and.w	r3, r3, #32768	; 0x8000
 8000a52:	2b00      	cmp	r3, #0
 8000a54:	d008      	beq.n	8000a68 <EXTI15_10_IRQHandler+0xb8>
 8000a56:	4b05      	ldr	r3, [pc, #20]	; (8000a6c <EXTI15_10_IRQHandler+0xbc>)
 8000a58:	695b      	ldr	r3, [r3, #20]
 8000a5a:	4a04      	ldr	r2, [pc, #16]	; (8000a6c <EXTI15_10_IRQHandler+0xbc>)
 8000a5c:	f443 4300 	orr.w	r3, r3, #32768	; 0x8000
 8000a60:	6153      	str	r3, [r2, #20]
 8000a62:	4b03      	ldr	r3, [pc, #12]	; (8000a70 <EXTI15_10_IRQHandler+0xc0>)
 8000a64:	6bdb      	ldr	r3, [r3, #60]	; 0x3c
 8000a66:	4798      	blx	r3
 8000a68:	bf00      	nop
 8000a6a:	bd80      	pop	{r7, pc}
 8000a6c:	40010400 	andmi	r0, r1, r0, lsl #8
 8000a70:	2000002c 	andcs	r0, r0, ip, lsr #32

08000a74 <Get_Bit_Location>:
 8000a74:	b480      	push	{r7}
 8000a76:	b083      	sub	sp, #12
 8000a78:	af00      	add	r7, sp, #0
 8000a7a:	4603      	mov	r3, r0
 8000a7c:	80fb      	strh	r3, [r7, #6]
 8000a7e:	88fb      	ldrh	r3, [r7, #6]
 8000a80:	f5b3 4f00 	cmp.w	r3, #32768	; 0x8000
 8000a84:	f000 80a5 	beq.w	8000bd2 <Get_Bit_Location+0x15e>
 8000a88:	f5b3 4f00 	cmp.w	r3, #32768	; 0x8000
 8000a8c:	f300 80a3 	bgt.w	8000bd6 <Get_Bit_Location+0x162>
 8000a90:	f5b3 4f80 	cmp.w	r3, #16384	; 0x4000
 8000a94:	f000 809b 	beq.w	8000bce <Get_Bit_Location+0x15a>
 8000a98:	f5b3 4f80 	cmp.w	r3, #16384	; 0x4000
 8000a9c:	f300 809b 	bgt.w	8000bd6 <Get_Bit_Location+0x162>
 8000aa0:	f5b3 5f00 	cmp.w	r3, #8192	; 0x2000
 8000aa4:	f000 8091 	beq.w	8000bca <Get_Bit_Location+0x156>
 8000aa8:	f5b3 5f00 	cmp.w	r3, #8192	; 0x2000
 8000aac:	f300 8093 	bgt.w	8000bd6 <Get_Bit_Location+0x162>
 8000ab0:	f5b3 5f80 	cmp.w	r3, #4096	; 0x1000
 8000ab4:	f000 8087 	beq.w	8000bc6 <Get_Bit_Location+0x152>
 8000ab8:	f5b3 5f80 	cmp.w	r3, #4096	; 0x1000
 8000abc:	f300 808b 	bgt.w	8000bd6 <Get_Bit_Location+0x162>
 8000ac0:	f5b3 6f00 	cmp.w	r3, #2048	; 0x800
 8000ac4:	d07d      	beq.n	8000bc2 <Get_Bit_Location+0x14e>
 8000ac6:	f5b3 6f00 	cmp.w	r3, #2048	; 0x800
 8000aca:	f300 8084 	bgt.w	8000bd6 <Get_Bit_Location+0x162>
 8000ace:	f5b3 6f80 	cmp.w	r3, #1024	; 0x400
 8000ad2:	d074      	beq.n	8000bbe <Get_Bit_Location+0x14a>
 8000ad4:	f5b3 6f80 	cmp.w	r3, #1024	; 0x400
 8000ad8:	dc7d      	bgt.n	8000bd6 <Get_Bit_Location+0x162>
 8000ada:	f5b3 7f00 	cmp.w	r3, #512	; 0x200
 8000ade:	d06c      	beq.n	8000bba <Get_Bit_Location+0x146>
 8000ae0:	f5b3 7f00 	cmp.w	r3, #512	; 0x200
 8000ae4:	dc77      	bgt.n	8000bd6 <Get_Bit_Location+0x162>
 8000ae6:	f5b3 7f80 	cmp.w	r3, #256	; 0x100
 8000aea:	d064      	beq.n	8000bb6 <Get_Bit_Location+0x142>
 8000aec:	f5b3 7f80 	cmp.w	r3, #256	; 0x100
 8000af0:	dc71      	bgt.n	8000bd6 <Get_Bit_Location+0x162>
 8000af2:	2b80      	cmp	r3, #128	; 0x80
 8000af4:	d05d      	beq.n	8000bb2 <Get_Bit_Location+0x13e>
 8000af6:	2b80      	cmp	r3, #128	; 0x80
 8000af8:	dc6d      	bgt.n	8000bd6 <Get_Bit_Location+0x162>
 8000afa:	2b20      	cmp	r3, #32
 8000afc:	dc48      	bgt.n	8000b90 <Get_Bit_Location+0x11c>
 8000afe:	2b00      	cmp	r3, #0
 8000b00:	dd69      	ble.n	8000bd6 <Get_Bit_Location+0x162>
 8000b02:	3b01      	subs	r3, #1
 8000b04:	2b1f      	cmp	r3, #31
 8000b06:	d866      	bhi.n	8000bd6 <Get_Bit_Location+0x162>
 8000b08:	a201      	add	r2, pc, #4	; (adr r2, 8000b10 <Get_Bit_Location+0x9c>)
 8000b0a:	f852 f023 	ldr.w	pc, [r2, r3, lsl #2]
 8000b0e:	bf00      	nop
 8000b10:	08000b97 	stmdaeq	r0, {r0, r1, r2, r4, r7, r8, r9, fp}
 8000b14:	08000b9b 	stmdaeq	r0, {r0, r1, r3, r4, r7, r8, r9, fp}
 8000b18:	08000bd7 	stmdaeq	r0, {r0, r1, r2, r4, r6, r7, r8, r9, fp}
 8000b1c:	08000b9f 	stmdaeq	r0, {r0, r1, r2, r3, r4, r7, r8, r9, fp}
 8000b20:	08000bd7 	stmdaeq	r0, {r0, r1, r2, r4, r6, r7, r8, r9, fp}
 8000b24:	08000bd7 	stmdaeq	r0, {r0, r1, r2, r4, r6, r7, r8, r9, fp}
 8000b28:	08000bd7 	stmdaeq	r0, {r0, r1, r2, r4, r6, r7, r8, r9, fp}
 8000b2c:	08000ba3 	stmdaeq	r0, {r0, r1, r5, r7, r8, r9, fp}
 8000b30:	08000bd7 	stmdaeq	r0, {r0, r1, r2, r4, r6, r7, r8, r9, fp}
 8000b34:	08000bd7 	stmdaeq	r0, {r0, r1, r2, r4, r6, r7, r8, r9, fp}
 8000b38:	08000bd7 	stmdaeq	r0, {r0, r1, r2, r4, r6, r7, r8, r9, fp}
 8000b3c:	08000bd7 	stmdaeq	r0, {r0, r1, r2, r4, r6, r7, r8, r9, fp}
 8000b40:	08000bd7 	stmdaeq	r0, {r0, r1, r2, r4, r6, r7, r8, r9, fp}
 8000b44:	08000bd7 	stmdaeq	r0, {r0, r1, r2, r4, r6, r7, r8, r9, fp}
 8000b48:	08000bd7 	stmdaeq	r0, {r0, r1, r2, r4, r6, r7, r8, r9, fp}
 8000b4c:	08000ba7 	stmdaeq	r0, {r0, r1, r2, r5, r7, r8, r9, fp}
 8000b50:	08000bd7 	stmdaeq	r0, {r0, r1, r2, r4, r6, r7, r8, r9, fp}
 8000b54:	08000bd7 	stmdaeq	r0, {r0, r1, r2, r4, r6, r7, r8, r9, fp}
 8000b58:	08000bd7 	stmdaeq	r0, {r0, r1, r2, r4, r6, r7, r8, r9, fp}
 8000b5c:	08000bd7 	stmdaeq	r0, {r0, r1, r2, r4, r6, r7, r8, r9, fp}
 8000b60:	08000bd7 	stmdaeq	r0, {r0, r1, r2, r4, r6, r7, r8, r9, fp}
 8000b64:	08000bd7 	stmdaeq	r0, {r0, r1, r2, r4, r6, r7, r8, r9, fp}
 8000b68:	08000bd7 	stmdaeq	r0, {r0, r1, r2, r4, r6, r7, r8, r9, fp}
 8000b6c:	08000bd7 	stmdaeq	r0, {r0, r1, r2, r4, r6, r7, r8, r9, fp}
 8000b70:	08000bd7 	stmdaeq	r0, {r0, r1, r2, r4, r6, r7, r8, r9, fp}
 8000b74:	08000bd7 	stmdaeq	r0, {r0, r1, r2, r4, r6, r7, r8, r9, fp}
 8000b78:	08000bd7 	stmdaeq	r0, {r0, r1, r2, r4, r6, r7, r8, r9, fp}
 8000b7c:	08000bd7 	stmdaeq	r0, {r0, r1, r2, r4, r6, r7, r8, r9, fp}
 8000b80:	08000bd7 	stmdaeq	r0, {r0, r1, r2, r4, r6, r7, r8, r9, fp}
 8000b84:	08000bd7 	stmdaeq	r0, {r0, r1, r2, r4, r6, r7, r8, r9, fp}
 8000b88:	08000bd7 	stmdaeq	r0, {r0, r1, r2, r4, r6, r7, r8, r9, fp}
 8000b8c:	08000bab 	stmdaeq	r0, {r0, r1, r3, r5, r7, r8, r9, fp}
 8000b90:	2b40      	cmp	r3, #64	; 0x40
 8000b92:	d00c      	beq.n	8000bae <Get_Bit_Location+0x13a>
 8000b94:	e01f      	b.n	8000bd6 <Get_Bit_Location+0x162>
 8000b96:	2300      	movs	r3, #0
 8000b98:	e01e      	b.n	8000bd8 <Get_Bit_Location+0x164>
 8000b9a:	2304      	movs	r3, #4
 8000b9c:	e01c      	b.n	8000bd8 <Get_Bit_Location+0x164>
 8000b9e:	2308      	movs	r3, #8
 8000ba0:	e01a      	b.n	8000bd8 <Get_Bit_Location+0x164>
 8000ba2:	230c      	movs	r3, #12
 8000ba4:	e018      	b.n	8000bd8 <Get_Bit_Location+0x164>
 8000ba6:	2310      	movs	r3, #16
 8000ba8:	e016      	b.n	8000bd8 <Get_Bit_Location+0x164>
 8000baa:	2314      	movs	r3, #20
 8000bac:	e014      	b.n	8000bd8 <Get_Bit_Location+0x164>
 8000bae:	2318      	movs	r3, #24
 8000bb0:	e012      	b.n	8000bd8 <Get_Bit_Location+0x164>
 8000bb2:	231c      	movs	r3, #28
 8000bb4:	e010      	b.n	8000bd8 <Get_Bit_Location+0x164>
 8000bb6:	2300      	movs	r3, #0
 8000bb8:	e00e      	b.n	8000bd8 <Get_Bit_Location+0x164>
 8000bba:	2304      	movs	r3, #4
 8000bbc:	e00c      	b.n	8000bd8 <Get_Bit_Location+0x164>
 8000bbe:	2308      	movs	r3, #8
 8000bc0:	e00a      	b.n	8000bd8 <Get_Bit_Location+0x164>
 8000bc2:	230c      	movs	r3, #12
 8000bc4:	e008      	b.n	8000bd8 <Get_Bit_Location+0x164>
 8000bc6:	2310      	movs	r3, #16
 8000bc8:	e006      	b.n	8000bd8 <Get_Bit_Location+0x164>
 8000bca:	2314      	movs	r3, #20
 8000bcc:	e004      	b.n	8000bd8 <Get_Bit_Location+0x164>
 8000bce:	2318      	movs	r3, #24
 8000bd0:	e002      	b.n	8000bd8 <Get_Bit_Location+0x164>
 8000bd2:	231c      	movs	r3, #28
 8000bd4:	e000      	b.n	8000bd8 <Get_Bit_Location+0x164>
 8000bd6:	2300      	movs	r3, #0
 8000bd8:	4618      	mov	r0, r3
 8000bda:	370c      	adds	r7, #12
 8000bdc:	46bd      	mov	sp, r7
 8000bde:	bc80      	pop	{r7}
 8000be0:	4770      	bx	lr
 8000be2:	bf00      	nop

08000be4 <MCAL_GPIO_Init>:
 8000be4:	b580      	push	{r7, lr}
 8000be6:	b084      	sub	sp, #16
 8000be8:	af00      	add	r7, sp, #0
 8000bea:	6078      	str	r0, [r7, #4]
 8000bec:	6039      	str	r1, [r7, #0]
 8000bee:	2300      	movs	r3, #0
 8000bf0:	60fb      	str	r3, [r7, #12]
 8000bf2:	2300      	movs	r3, #0
 8000bf4:	60bb      	str	r3, [r7, #8]
 8000bf6:	683b      	ldr	r3, [r7, #0]
 8000bf8:	881b      	ldrh	r3, [r3, #0]
 8000bfa:	2bff      	cmp	r3, #255	; 0xff
 8000bfc:	d802      	bhi.n	8000c04 <MCAL_GPIO_Init+0x20>
 8000bfe:	687b      	ldr	r3, [r7, #4]
 8000c00:	60fb      	str	r3, [r7, #12]
 8000c02:	e002      	b.n	8000c0a <MCAL_GPIO_Init+0x26>
 8000c04:	687b      	ldr	r3, [r7, #4]
 8000c06:	3304      	adds	r3, #4
 8000c08:	60fb      	str	r3, [r7, #12]
 8000c0a:	683b      	ldr	r3, [r7, #0]
 8000c0c:	881b      	ldrh	r3, [r3, #0]
 8000c0e:	4618      	mov	r0, r3
 8000c10:	f7ff ff30 	bl	8000a74 <Get_Bit_Location>
 8000c14:	4603      	mov	r3, r0
 8000c16:	461a      	mov	r2, r3
 8000c18:	230f      	movs	r3, #15
 8000c1a:	4093      	lsls	r3, r2
 8000c1c:	43da      	mvns	r2, r3
 8000c1e:	68fb      	ldr	r3, [r7, #12]
 8000c20:	681b      	ldr	r3, [r3, #0]
 8000c22:	401a      	ands	r2, r3
 8000c24:	68fb      	ldr	r3, [r7, #12]
 8000c26:	601a      	str	r2, [r3, #0]
 8000c28:	683b      	ldr	r3, [r7, #0]
 8000c2a:	789b      	ldrb	r3, [r3, #2]
 8000c2c:	2b05      	cmp	r3, #5
 8000c2e:	d00b      	beq.n	8000c48 <MCAL_GPIO_Init+0x64>
 8000c30:	683b      	ldr	r3, [r7, #0]
 8000c32:	789b      	ldrb	r3, [r3, #2]
 8000c34:	2b04      	cmp	r3, #4
 8000c36:	d007      	beq.n	8000c48 <MCAL_GPIO_Init+0x64>
 8000c38:	683b      	ldr	r3, [r7, #0]
 8000c3a:	789b      	ldrb	r3, [r3, #2]
 8000c3c:	2b07      	cmp	r3, #7
 8000c3e:	d003      	beq.n	8000c48 <MCAL_GPIO_Init+0x64>
 8000c40:	683b      	ldr	r3, [r7, #0]
 8000c42:	789b      	ldrb	r3, [r3, #2]
 8000c44:	2b06      	cmp	r3, #6
 8000c46:	d10a      	bne.n	8000c5e <MCAL_GPIO_Init+0x7a>
 8000c48:	683b      	ldr	r3, [r7, #0]
 8000c4a:	789b      	ldrb	r3, [r3, #2]
 8000c4c:	3b04      	subs	r3, #4
 8000c4e:	009b      	lsls	r3, r3, #2
 8000c50:	683a      	ldr	r2, [r7, #0]
 8000c52:	78d2      	ldrb	r2, [r2, #3]
 8000c54:	4313      	orrs	r3, r2
 8000c56:	f003 030f 	and.w	r3, r3, #15
 8000c5a:	60bb      	str	r3, [r7, #8]
 8000c5c:	e02b      	b.n	8000cb6 <MCAL_GPIO_Init+0xd2>
 8000c5e:	683b      	ldr	r3, [r7, #0]
 8000c60:	789b      	ldrb	r3, [r3, #2]
 8000c62:	2b01      	cmp	r3, #1
 8000c64:	d003      	beq.n	8000c6e <MCAL_GPIO_Init+0x8a>
 8000c66:	683b      	ldr	r3, [r7, #0]
 8000c68:	789b      	ldrb	r3, [r3, #2]
 8000c6a:	2b00      	cmp	r3, #0
 8000c6c:	d106      	bne.n	8000c7c <MCAL_GPIO_Init+0x98>
 8000c6e:	683b      	ldr	r3, [r7, #0]
 8000c70:	789b      	ldrb	r3, [r3, #2]
 8000c72:	009b      	lsls	r3, r3, #2
 8000c74:	f003 030f 	and.w	r3, r3, #15
 8000c78:	60bb      	str	r3, [r7, #8]
 8000c7a:	e01c      	b.n	8000cb6 <MCAL_GPIO_Init+0xd2>
 8000c7c:	683b      	ldr	r3, [r7, #0]
 8000c7e:	789b      	ldrb	r3, [r3, #2]
 8000c80:	2b08      	cmp	r3, #8
 8000c82:	d102      	bne.n	8000c8a <MCAL_GPIO_Init+0xa6>
 8000c84:	2304      	movs	r3, #4
 8000c86:	60bb      	str	r3, [r7, #8]
 8000c88:	e015      	b.n	8000cb6 <MCAL_GPIO_Init+0xd2>
 8000c8a:	2308      	movs	r3, #8
 8000c8c:	60bb      	str	r3, [r7, #8]
 8000c8e:	683b      	ldr	r3, [r7, #0]
 8000c90:	789b      	ldrb	r3, [r3, #2]
 8000c92:	2b02      	cmp	r3, #2
 8000c94:	d107      	bne.n	8000ca6 <MCAL_GPIO_Init+0xc2>
 8000c96:	687b      	ldr	r3, [r7, #4]
 8000c98:	68db      	ldr	r3, [r3, #12]
 8000c9a:	683a      	ldr	r2, [r7, #0]
 8000c9c:	8812      	ldrh	r2, [r2, #0]
 8000c9e:	431a      	orrs	r2, r3
 8000ca0:	687b      	ldr	r3, [r7, #4]
 8000ca2:	60da      	str	r2, [r3, #12]
 8000ca4:	e007      	b.n	8000cb6 <MCAL_GPIO_Init+0xd2>
 8000ca6:	687b      	ldr	r3, [r7, #4]
 8000ca8:	68db      	ldr	r3, [r3, #12]
 8000caa:	683a      	ldr	r2, [r7, #0]
 8000cac:	8812      	ldrh	r2, [r2, #0]
 8000cae:	43d2      	mvns	r2, r2
 8000cb0:	401a      	ands	r2, r3
 8000cb2:	687b      	ldr	r3, [r7, #4]
 8000cb4:	60da      	str	r2, [r3, #12]
 8000cb6:	683b      	ldr	r3, [r7, #0]
 8000cb8:	881b      	ldrh	r3, [r3, #0]
 8000cba:	4618      	mov	r0, r3
 8000cbc:	f7ff feda 	bl	8000a74 <Get_Bit_Location>
 8000cc0:	4603      	mov	r3, r0
 8000cc2:	461a      	mov	r2, r3
 8000cc4:	68bb      	ldr	r3, [r7, #8]
 8000cc6:	fa03 f202 	lsl.w	r2, r3, r2
 8000cca:	68fb      	ldr	r3, [r7, #12]
 8000ccc:	681b      	ldr	r3, [r3, #0]
 8000cce:	431a      	orrs	r2, r3
 8000cd0:	68fb      	ldr	r3, [r7, #12]
 8000cd2:	601a      	str	r2, [r3, #0]
 8000cd4:	bf00      	nop
 8000cd6:	3710      	adds	r7, #16
 8000cd8:	46bd      	mov	sp, r7
 8000cda:	bd80      	pop	{r7, pc}

08000cdc <MCAL_GPIO_WritePort>:
 8000cdc:	b480      	push	{r7}
 8000cde:	b083      	sub	sp, #12
 8000ce0:	af00      	add	r7, sp, #0
 8000ce2:	6078      	str	r0, [r7, #4]
 8000ce4:	460b      	mov	r3, r1
 8000ce6:	70fb      	strb	r3, [r7, #3]
 8000ce8:	78fa      	ldrb	r2, [r7, #3]
 8000cea:	687b      	ldr	r3, [r7, #4]
 8000cec:	60da      	str	r2, [r3, #12]
 8000cee:	bf00      	nop
 8000cf0:	370c      	adds	r7, #12
 8000cf2:	46bd      	mov	sp, r7
 8000cf4:	bc80      	pop	{r7}
 8000cf6:	4770      	bx	lr

08000cf8 <MCAL_GPIO_WritePin>:
 8000cf8:	b480      	push	{r7}
 8000cfa:	b083      	sub	sp, #12
 8000cfc:	af00      	add	r7, sp, #0
 8000cfe:	6078      	str	r0, [r7, #4]
 8000d00:	460b      	mov	r3, r1
 8000d02:	807b      	strh	r3, [r7, #2]
 8000d04:	4613      	mov	r3, r2
 8000d06:	707b      	strb	r3, [r7, #1]
 8000d08:	787b      	ldrb	r3, [r7, #1]
 8000d0a:	2b00      	cmp	r3, #0
 8000d0c:	d003      	beq.n	8000d16 <MCAL_GPIO_WritePin+0x1e>
 8000d0e:	887a      	ldrh	r2, [r7, #2]
 8000d10:	687b      	ldr	r3, [r7, #4]
 8000d12:	611a      	str	r2, [r3, #16]
 8000d14:	e002      	b.n	8000d1c <MCAL_GPIO_WritePin+0x24>
 8000d16:	887a      	ldrh	r2, [r7, #2]
 8000d18:	687b      	ldr	r3, [r7, #4]
 8000d1a:	615a      	str	r2, [r3, #20]
 8000d1c:	bf00      	nop
 8000d1e:	370c      	adds	r7, #12
 8000d20:	46bd      	mov	sp, r7
 8000d22:	bc80      	pop	{r7}
 8000d24:	4770      	bx	lr
	...

08000d28 <__libc_init_array>:
 8000d28:	b570      	push	{r4, r5, r6, lr}
 8000d2a:	2600      	movs	r6, #0
 8000d2c:	4d0c      	ldr	r5, [pc, #48]	; (8000d60 <__libc_init_array+0x38>)
 8000d2e:	4c0d      	ldr	r4, [pc, #52]	; (8000d64 <__libc_init_array+0x3c>)
 8000d30:	1b64      	subs	r4, r4, r5
 8000d32:	10a4      	asrs	r4, r4, #2
 8000d34:	42a6      	cmp	r6, r4
 8000d36:	d109      	bne.n	8000d4c <__libc_init_array+0x24>
 8000d38:	f000 f81a 	bl	8000d70 <_init>
 8000d3c:	2600      	movs	r6, #0
 8000d3e:	4d0a      	ldr	r5, [pc, #40]	; (8000d68 <__libc_init_array+0x40>)
 8000d40:	4c0a      	ldr	r4, [pc, #40]	; (8000d6c <__libc_init_array+0x44>)
 8000d42:	1b64      	subs	r4, r4, r5
 8000d44:	10a4      	asrs	r4, r4, #2
 8000d46:	42a6      	cmp	r6, r4
 8000d48:	d105      	bne.n	8000d56 <__libc_init_array+0x2e>
 8000d4a:	bd70      	pop	{r4, r5, r6, pc}
 8000d4c:	f855 3b04 	ldr.w	r3, [r5], #4
 8000d50:	4798      	blx	r3
 8000d52:	3601      	adds	r6, #1
 8000d54:	e7ee      	b.n	8000d34 <__libc_init_array+0xc>
 8000d56:	f855 3b04 	ldr.w	r3, [r5], #4
 8000d5a:	4798      	blx	r3
 8000d5c:	3601      	adds	r6, #1
 8000d5e:	e7f2      	b.n	8000d46 <__libc_init_array+0x1e>
 8000d60:	08000d94 	stmdaeq	r0, {r2, r4, r7, r8, sl, fp}
 8000d64:	08000d94 	stmdaeq	r0, {r2, r4, r7, r8, sl, fp}
 8000d68:	08000d94 	stmdaeq	r0, {r2, r4, r7, r8, sl, fp}
 8000d6c:	08000d98 	stmdaeq	r0, {r3, r4, r7, r8, sl, fp}

08000d70 <_init>:
 8000d70:	b5f8      	push	{r3, r4, r5, r6, r7, lr}
 8000d72:	bf00      	nop
 8000d74:	bcf8      	pop	{r3, r4, r5, r6, r7}
 8000d76:	bc08      	pop	{r3}
 8000d78:	469e      	mov	lr, r3
 8000d7a:	4770      	bx	lr

08000d7c <_fini>:
 8000d7c:	b5f8      	push	{r3, r4, r5, r6, r7, lr}
 8000d7e:	bf00      	nop
 8000d80:	bcf8      	pop	{r3, r4, r5, r6, r7}
 8000d82:	bc08      	pop	{r3}
 8000d84:	469e      	mov	lr, r3
 8000d86:	4770      	bx	lr
