
Arm_Modes.axf:     file format elf32-littlearm


Disassembly of section .isr_vector:

08000000 <g_pfnVectors>:
 8000000:	20005000 	andcs	r5, r0, r0
 8000004:	08000471 	stmdaeq	r0, {r0, r4, r5, r6, sl}
 8000008:	080004c1 	stmdaeq	r0, {r0, r6, r7, sl}
 800000c:	080004c1 	stmdaeq	r0, {r0, r6, r7, sl}
 8000010:	080004c1 	stmdaeq	r0, {r0, r6, r7, sl}
 8000014:	080004c1 	stmdaeq	r0, {r0, r6, r7, sl}
 8000018:	080004c1 	stmdaeq	r0, {r0, r6, r7, sl}
	...
 800002c:	080004c1 	stmdaeq	r0, {r0, r6, r7, sl}
 8000030:	080004c1 	stmdaeq	r0, {r0, r6, r7, sl}
 8000034:	00000000 	andeq	r0, r0, r0
 8000038:	080004c1 	stmdaeq	r0, {r0, r6, r7, sl}
 800003c:	080004c1 	stmdaeq	r0, {r0, r6, r7, sl}
 8000040:	080004c1 	stmdaeq	r0, {r0, r6, r7, sl}
 8000044:	080004c1 	stmdaeq	r0, {r0, r6, r7, sl}
 8000048:	080004c1 	stmdaeq	r0, {r0, r6, r7, sl}
 800004c:	080004c1 	stmdaeq	r0, {r0, r6, r7, sl}
 8000050:	080004c1 	stmdaeq	r0, {r0, r6, r7, sl}
 8000054:	080004c1 	stmdaeq	r0, {r0, r6, r7, sl}
 8000058:	08000855 	stmdaeq	r0, {r0, r2, r4, r6, fp}
 800005c:	08000879 	stmdaeq	r0, {r0, r3, r4, r5, r6, fp}
 8000060:	0800089d 	stmdaeq	r0, {r0, r2, r3, r4, r7, fp}
 8000064:	080008c1 	stmdaeq	r0, {r0, r6, r7, fp}
 8000068:	080008e5 	stmdaeq	r0, {r0, r2, r5, r6, r7, fp}
 800006c:	080004c1 	stmdaeq	r0, {r0, r6, r7, sl}
 8000070:	080004c1 	stmdaeq	r0, {r0, r6, r7, sl}
 8000074:	080004c1 	stmdaeq	r0, {r0, r6, r7, sl}
 8000078:	080004c1 	stmdaeq	r0, {r0, r6, r7, sl}
 800007c:	080004c1 	stmdaeq	r0, {r0, r6, r7, sl}
 8000080:	080004c1 	stmdaeq	r0, {r0, r6, r7, sl}
 8000084:	080004c1 	stmdaeq	r0, {r0, r6, r7, sl}
 8000088:	080004c1 	stmdaeq	r0, {r0, r6, r7, sl}
 800008c:	080004c1 	stmdaeq	r0, {r0, r6, r7, sl}
 8000090:	080004c1 	stmdaeq	r0, {r0, r6, r7, sl}
 8000094:	080004c1 	stmdaeq	r0, {r0, r6, r7, sl}
 8000098:	080004c1 	stmdaeq	r0, {r0, r6, r7, sl}
 800009c:	08000909 	stmdaeq	r0, {r0, r3, r8, fp}
 80000a0:	080004c1 	stmdaeq	r0, {r0, r6, r7, sl}
 80000a4:	080004c1 	stmdaeq	r0, {r0, r6, r7, sl}
 80000a8:	080004c1 	stmdaeq	r0, {r0, r6, r7, sl}
 80000ac:	080004c1 	stmdaeq	r0, {r0, r6, r7, sl}
 80000b0:	080004c1 	stmdaeq	r0, {r0, r6, r7, sl}
 80000b4:	080004c1 	stmdaeq	r0, {r0, r6, r7, sl}
 80000b8:	080004c1 	stmdaeq	r0, {r0, r6, r7, sl}
 80000bc:	080004c1 	stmdaeq	r0, {r0, r6, r7, sl}
 80000c0:	080004c1 	stmdaeq	r0, {r0, r6, r7, sl}
 80000c4:	080004c1 	stmdaeq	r0, {r0, r6, r7, sl}
 80000c8:	080004c1 	stmdaeq	r0, {r0, r6, r7, sl}
 80000cc:	080004c1 	stmdaeq	r0, {r0, r6, r7, sl}
 80000d0:	080004c1 	stmdaeq	r0, {r0, r6, r7, sl}
 80000d4:	080004c1 	stmdaeq	r0, {r0, r6, r7, sl}
 80000d8:	080004c1 	stmdaeq	r0, {r0, r6, r7, sl}
 80000dc:	080004c1 	stmdaeq	r0, {r0, r6, r7, sl}
 80000e0:	080009b1 	stmdaeq	r0, {r0, r4, r5, r7, r8, fp}
 80000e4:	080004c1 	stmdaeq	r0, {r0, r6, r7, sl}
 80000e8:	00000000 	andeq	r0, r0, r0
 80000ec:	080004c1 	stmdaeq	r0, {r0, r6, r7, sl}
 80000f0:	080004c1 	stmdaeq	r0, {r0, r6, r7, sl}
 80000f4:	080004c1 	stmdaeq	r0, {r0, r6, r7, sl}
 80000f8:	080004c1 	stmdaeq	r0, {r0, r6, r7, sl}
 80000fc:	080004c1 	stmdaeq	r0, {r0, r6, r7, sl}
 8000100:	080004c1 	stmdaeq	r0, {r0, r6, r7, sl}
 8000104:	080004c1 	stmdaeq	r0, {r0, r6, r7, sl}
 8000108:	080004c1 	stmdaeq	r0, {r0, r6, r7, sl}
 800010c:	080004c1 	stmdaeq	r0, {r0, r6, r7, sl}
 8000110:	080004c1 	stmdaeq	r0, {r0, r6, r7, sl}
 8000114:	080004c1 	stmdaeq	r0, {r0, r6, r7, sl}
 8000118:	080004c1 	stmdaeq	r0, {r0, r6, r7, sl}
 800011c:	080004c1 	stmdaeq	r0, {r0, r6, r7, sl}
 8000120:	080004c1 	stmdaeq	r0, {r0, r6, r7, sl}
 8000124:	080004c1 	stmdaeq	r0, {r0, r6, r7, sl}
 8000128:	080004c1 	stmdaeq	r0, {r0, r6, r7, sl}
 800012c:	080004c1 	stmdaeq	r0, {r0, r6, r7, sl}

Disassembly of section .text:

08000130 <__do_global_dtors_aux>:
 8000130:	b510      	push	{r4, lr}
 8000132:	4c05      	ldr	r4, [pc, #20]	; (8000148 <__do_global_dtors_aux+0x18>)
 8000134:	7823      	ldrb	r3, [r4, #0]
 8000136:	b933      	cbnz	r3, 8000146 <__do_global_dtors_aux+0x16>
 8000138:	4b04      	ldr	r3, [pc, #16]	; (800014c <__do_global_dtors_aux+0x1c>)
 800013a:	b113      	cbz	r3, 8000142 <__do_global_dtors_aux+0x12>
 800013c:	4804      	ldr	r0, [pc, #16]	; (8000150 <__do_global_dtors_aux+0x20>)
 800013e:	f3af 8000 	nop.w
 8000142:	2301      	movs	r3, #1
 8000144:	7023      	strb	r3, [r4, #0]
 8000146:	bd10      	pop	{r4, pc}
 8000148:	20000000 	andcs	r0, r0, r0
 800014c:	00000000 	andeq	r0, r0, r0
 8000150:	08000d70 	stmdaeq	r0, {r4, r5, r6, r8, sl, fp}

08000154 <frame_dummy>:
 8000154:	b508      	push	{r3, lr}
 8000156:	4b03      	ldr	r3, [pc, #12]	; (8000164 <frame_dummy+0x10>)
 8000158:	b11b      	cbz	r3, 8000162 <frame_dummy+0xe>
 800015a:	4903      	ldr	r1, [pc, #12]	; (8000168 <frame_dummy+0x14>)
 800015c:	4803      	ldr	r0, [pc, #12]	; (800016c <frame_dummy+0x18>)
 800015e:	f3af 8000 	nop.w
 8000162:	bd08      	pop	{r3, pc}
 8000164:	00000000 	andeq	r0, r0, r0
 8000168:	20000004 	andcs	r0, r0, r4
 800016c:	08000d70 	stmdaeq	r0, {r4, r5, r6, r8, sl, fp}

08000170 <delay_ms>:
 8000170:	b480      	push	{r7}
 8000172:	b085      	sub	sp, #20
 8000174:	af00      	add	r7, sp, #0
 8000176:	6078      	str	r0, [r7, #4]
 8000178:	2300      	movs	r3, #0
 800017a:	60fb      	str	r3, [r7, #12]
 800017c:	e00b      	b.n	8000196 <delay_ms+0x26>
 800017e:	2300      	movs	r3, #0
 8000180:	60bb      	str	r3, [r7, #8]
 8000182:	e002      	b.n	800018a <delay_ms+0x1a>
 8000184:	68bb      	ldr	r3, [r7, #8]
 8000186:	3301      	adds	r3, #1
 8000188:	60bb      	str	r3, [r7, #8]
 800018a:	68bb      	ldr	r3, [r7, #8]
 800018c:	2bfe      	cmp	r3, #254	; 0xfe
 800018e:	d9f9      	bls.n	8000184 <delay_ms+0x14>
 8000190:	68fb      	ldr	r3, [r7, #12]
 8000192:	3301      	adds	r3, #1
 8000194:	60fb      	str	r3, [r7, #12]
 8000196:	68fa      	ldr	r2, [r7, #12]
 8000198:	687b      	ldr	r3, [r7, #4]
 800019a:	429a      	cmp	r2, r3
 800019c:	d3ef      	bcc.n	800017e <delay_ms+0xe>
 800019e:	bf00      	nop
 80001a0:	bf00      	nop
 80001a2:	3714      	adds	r7, #20
 80001a4:	46bd      	mov	sp, r7
 80001a6:	bc80      	pop	{r7}
 80001a8:	4770      	bx	lr
	...

080001ac <LCD_GPIO_init>:
 80001ac:	b580      	push	{r7, lr}
 80001ae:	af00      	add	r7, sp, #0
 80001b0:	4b52      	ldr	r3, [pc, #328]	; (80002fc <LCD_GPIO_init+0x150>)
 80001b2:	f44f 7280 	mov.w	r2, #256	; 0x100
 80001b6:	801a      	strh	r2, [r3, #0]
 80001b8:	4b50      	ldr	r3, [pc, #320]	; (80002fc <LCD_GPIO_init+0x150>)
 80001ba:	2204      	movs	r2, #4
 80001bc:	709a      	strb	r2, [r3, #2]
 80001be:	4b4f      	ldr	r3, [pc, #316]	; (80002fc <LCD_GPIO_init+0x150>)
 80001c0:	2201      	movs	r2, #1
 80001c2:	70da      	strb	r2, [r3, #3]
 80001c4:	494d      	ldr	r1, [pc, #308]	; (80002fc <LCD_GPIO_init+0x150>)
 80001c6:	484e      	ldr	r0, [pc, #312]	; (8000300 <LCD_GPIO_init+0x154>)
 80001c8:	f000 fd0c 	bl	8000be4 <MCAL_GPIO_Init>
 80001cc:	4b4b      	ldr	r3, [pc, #300]	; (80002fc <LCD_GPIO_init+0x150>)
 80001ce:	f44f 7200 	mov.w	r2, #512	; 0x200
 80001d2:	801a      	strh	r2, [r3, #0]
 80001d4:	4b49      	ldr	r3, [pc, #292]	; (80002fc <LCD_GPIO_init+0x150>)
 80001d6:	2204      	movs	r2, #4
 80001d8:	709a      	strb	r2, [r3, #2]
 80001da:	4b48      	ldr	r3, [pc, #288]	; (80002fc <LCD_GPIO_init+0x150>)
 80001dc:	2201      	movs	r2, #1
 80001de:	70da      	strb	r2, [r3, #3]
 80001e0:	4946      	ldr	r1, [pc, #280]	; (80002fc <LCD_GPIO_init+0x150>)
 80001e2:	4847      	ldr	r0, [pc, #284]	; (8000300 <LCD_GPIO_init+0x154>)
 80001e4:	f000 fcfe 	bl	8000be4 <MCAL_GPIO_Init>
 80001e8:	4b44      	ldr	r3, [pc, #272]	; (80002fc <LCD_GPIO_init+0x150>)
 80001ea:	f44f 6280 	mov.w	r2, #1024	; 0x400
 80001ee:	801a      	strh	r2, [r3, #0]
 80001f0:	4b42      	ldr	r3, [pc, #264]	; (80002fc <LCD_GPIO_init+0x150>)
 80001f2:	2204      	movs	r2, #4
 80001f4:	709a      	strb	r2, [r3, #2]
 80001f6:	4b41      	ldr	r3, [pc, #260]	; (80002fc <LCD_GPIO_init+0x150>)
 80001f8:	2201      	movs	r2, #1
 80001fa:	70da      	strb	r2, [r3, #3]
 80001fc:	493f      	ldr	r1, [pc, #252]	; (80002fc <LCD_GPIO_init+0x150>)
 80001fe:	4840      	ldr	r0, [pc, #256]	; (8000300 <LCD_GPIO_init+0x154>)
 8000200:	f000 fcf0 	bl	8000be4 <MCAL_GPIO_Init>
 8000204:	4b3d      	ldr	r3, [pc, #244]	; (80002fc <LCD_GPIO_init+0x150>)
 8000206:	2201      	movs	r2, #1
 8000208:	801a      	strh	r2, [r3, #0]
 800020a:	4b3c      	ldr	r3, [pc, #240]	; (80002fc <LCD_GPIO_init+0x150>)
 800020c:	2204      	movs	r2, #4
 800020e:	709a      	strb	r2, [r3, #2]
 8000210:	4b3a      	ldr	r3, [pc, #232]	; (80002fc <LCD_GPIO_init+0x150>)
 8000212:	2201      	movs	r2, #1
 8000214:	70da      	strb	r2, [r3, #3]
 8000216:	4939      	ldr	r1, [pc, #228]	; (80002fc <LCD_GPIO_init+0x150>)
 8000218:	4839      	ldr	r0, [pc, #228]	; (8000300 <LCD_GPIO_init+0x154>)
 800021a:	f000 fce3 	bl	8000be4 <MCAL_GPIO_Init>
 800021e:	4b37      	ldr	r3, [pc, #220]	; (80002fc <LCD_GPIO_init+0x150>)
 8000220:	2202      	movs	r2, #2
 8000222:	801a      	strh	r2, [r3, #0]
 8000224:	4b35      	ldr	r3, [pc, #212]	; (80002fc <LCD_GPIO_init+0x150>)
 8000226:	2204      	movs	r2, #4
 8000228:	709a      	strb	r2, [r3, #2]
 800022a:	4b34      	ldr	r3, [pc, #208]	; (80002fc <LCD_GPIO_init+0x150>)
 800022c:	2201      	movs	r2, #1
 800022e:	70da      	strb	r2, [r3, #3]
 8000230:	4932      	ldr	r1, [pc, #200]	; (80002fc <LCD_GPIO_init+0x150>)
 8000232:	4833      	ldr	r0, [pc, #204]	; (8000300 <LCD_GPIO_init+0x154>)
 8000234:	f000 fcd6 	bl	8000be4 <MCAL_GPIO_Init>
 8000238:	4b30      	ldr	r3, [pc, #192]	; (80002fc <LCD_GPIO_init+0x150>)
 800023a:	2204      	movs	r2, #4
 800023c:	801a      	strh	r2, [r3, #0]
 800023e:	4b2f      	ldr	r3, [pc, #188]	; (80002fc <LCD_GPIO_init+0x150>)
 8000240:	2204      	movs	r2, #4
 8000242:	709a      	strb	r2, [r3, #2]
 8000244:	4b2d      	ldr	r3, [pc, #180]	; (80002fc <LCD_GPIO_init+0x150>)
 8000246:	2201      	movs	r2, #1
 8000248:	70da      	strb	r2, [r3, #3]
 800024a:	492c      	ldr	r1, [pc, #176]	; (80002fc <LCD_GPIO_init+0x150>)
 800024c:	482c      	ldr	r0, [pc, #176]	; (8000300 <LCD_GPIO_init+0x154>)
 800024e:	f000 fcc9 	bl	8000be4 <MCAL_GPIO_Init>
 8000252:	4b2a      	ldr	r3, [pc, #168]	; (80002fc <LCD_GPIO_init+0x150>)
 8000254:	2208      	movs	r2, #8
 8000256:	801a      	strh	r2, [r3, #0]
 8000258:	4b28      	ldr	r3, [pc, #160]	; (80002fc <LCD_GPIO_init+0x150>)
 800025a:	2204      	movs	r2, #4
 800025c:	709a      	strb	r2, [r3, #2]
 800025e:	4b27      	ldr	r3, [pc, #156]	; (80002fc <LCD_GPIO_init+0x150>)
 8000260:	2201      	movs	r2, #1
 8000262:	70da      	strb	r2, [r3, #3]
 8000264:	4925      	ldr	r1, [pc, #148]	; (80002fc <LCD_GPIO_init+0x150>)
 8000266:	4826      	ldr	r0, [pc, #152]	; (8000300 <LCD_GPIO_init+0x154>)
 8000268:	f000 fcbc 	bl	8000be4 <MCAL_GPIO_Init>
 800026c:	4b23      	ldr	r3, [pc, #140]	; (80002fc <LCD_GPIO_init+0x150>)
 800026e:	2210      	movs	r2, #16
 8000270:	801a      	strh	r2, [r3, #0]
 8000272:	4b22      	ldr	r3, [pc, #136]	; (80002fc <LCD_GPIO_init+0x150>)
 8000274:	2204      	movs	r2, #4
 8000276:	709a      	strb	r2, [r3, #2]
 8000278:	4b20      	ldr	r3, [pc, #128]	; (80002fc <LCD_GPIO_init+0x150>)
 800027a:	2201      	movs	r2, #1
 800027c:	70da      	strb	r2, [r3, #3]
 800027e:	491f      	ldr	r1, [pc, #124]	; (80002fc <LCD_GPIO_init+0x150>)
 8000280:	481f      	ldr	r0, [pc, #124]	; (8000300 <LCD_GPIO_init+0x154>)
 8000282:	f000 fcaf 	bl	8000be4 <MCAL_GPIO_Init>
 8000286:	4b1d      	ldr	r3, [pc, #116]	; (80002fc <LCD_GPIO_init+0x150>)
 8000288:	2220      	movs	r2, #32
 800028a:	801a      	strh	r2, [r3, #0]
 800028c:	4b1b      	ldr	r3, [pc, #108]	; (80002fc <LCD_GPIO_init+0x150>)
 800028e:	2204      	movs	r2, #4
 8000290:	709a      	strb	r2, [r3, #2]
 8000292:	4b1a      	ldr	r3, [pc, #104]	; (80002fc <LCD_GPIO_init+0x150>)
 8000294:	2201      	movs	r2, #1
 8000296:	70da      	strb	r2, [r3, #3]
 8000298:	4918      	ldr	r1, [pc, #96]	; (80002fc <LCD_GPIO_init+0x150>)
 800029a:	4819      	ldr	r0, [pc, #100]	; (8000300 <LCD_GPIO_init+0x154>)
 800029c:	f000 fca2 	bl	8000be4 <MCAL_GPIO_Init>
 80002a0:	4b16      	ldr	r3, [pc, #88]	; (80002fc <LCD_GPIO_init+0x150>)
 80002a2:	2240      	movs	r2, #64	; 0x40
 80002a4:	801a      	strh	r2, [r3, #0]
 80002a6:	4b15      	ldr	r3, [pc, #84]	; (80002fc <LCD_GPIO_init+0x150>)
 80002a8:	2204      	movs	r2, #4
 80002aa:	709a      	strb	r2, [r3, #2]
 80002ac:	4b13      	ldr	r3, [pc, #76]	; (80002fc <LCD_GPIO_init+0x150>)
 80002ae:	2201      	movs	r2, #1
 80002b0:	70da      	strb	r2, [r3, #3]
 80002b2:	4912      	ldr	r1, [pc, #72]	; (80002fc <LCD_GPIO_init+0x150>)
 80002b4:	4812      	ldr	r0, [pc, #72]	; (8000300 <LCD_GPIO_init+0x154>)
 80002b6:	f000 fc95 	bl	8000be4 <MCAL_GPIO_Init>
 80002ba:	4b10      	ldr	r3, [pc, #64]	; (80002fc <LCD_GPIO_init+0x150>)
 80002bc:	2280      	movs	r2, #128	; 0x80
 80002be:	801a      	strh	r2, [r3, #0]
 80002c0:	4b0e      	ldr	r3, [pc, #56]	; (80002fc <LCD_GPIO_init+0x150>)
 80002c2:	2204      	movs	r2, #4
 80002c4:	709a      	strb	r2, [r3, #2]
 80002c6:	4b0d      	ldr	r3, [pc, #52]	; (80002fc <LCD_GPIO_init+0x150>)
 80002c8:	2201      	movs	r2, #1
 80002ca:	70da      	strb	r2, [r3, #3]
 80002cc:	490b      	ldr	r1, [pc, #44]	; (80002fc <LCD_GPIO_init+0x150>)
 80002ce:	480c      	ldr	r0, [pc, #48]	; (8000300 <LCD_GPIO_init+0x154>)
 80002d0:	f000 fc88 	bl	8000be4 <MCAL_GPIO_Init>
 80002d4:	2200      	movs	r2, #0
 80002d6:	f44f 6180 	mov.w	r1, #1024	; 0x400
 80002da:	4809      	ldr	r0, [pc, #36]	; (8000300 <LCD_GPIO_init+0x154>)
 80002dc:	f000 fd0c 	bl	8000cf8 <MCAL_GPIO_WritePin>
 80002e0:	2200      	movs	r2, #0
 80002e2:	f44f 7180 	mov.w	r1, #256	; 0x100
 80002e6:	4806      	ldr	r0, [pc, #24]	; (8000300 <LCD_GPIO_init+0x154>)
 80002e8:	f000 fd06 	bl	8000cf8 <MCAL_GPIO_WritePin>
 80002ec:	2200      	movs	r2, #0
 80002ee:	f44f 7100 	mov.w	r1, #512	; 0x200
 80002f2:	4803      	ldr	r0, [pc, #12]	; (8000300 <LCD_GPIO_init+0x154>)
 80002f4:	f000 fd00 	bl	8000cf8 <MCAL_GPIO_WritePin>
 80002f8:	bf00      	nop
 80002fa:	bd80      	pop	{r7, pc}
 80002fc:	2000001c 	andcs	r0, r0, ip, lsl r0
 8000300:	40010800 	andmi	r0, r1, r0, lsl #16

08000304 <lcd_kick>:
 8000304:	b580      	push	{r7, lr}
 8000306:	af00      	add	r7, sp, #0
 8000308:	2201      	movs	r2, #1
 800030a:	f44f 6180 	mov.w	r1, #1024	; 0x400
 800030e:	4807      	ldr	r0, [pc, #28]	; (800032c <lcd_kick+0x28>)
 8000310:	f000 fcf2 	bl	8000cf8 <MCAL_GPIO_WritePin>
 8000314:	2032      	movs	r0, #50	; 0x32
 8000316:	f7ff ff2b 	bl	8000170 <delay_ms>
 800031a:	2200      	movs	r2, #0
 800031c:	f44f 6180 	mov.w	r1, #1024	; 0x400
 8000320:	4802      	ldr	r0, [pc, #8]	; (800032c <lcd_kick+0x28>)
 8000322:	f000 fce9 	bl	8000cf8 <MCAL_GPIO_WritePin>
 8000326:	bf00      	nop
 8000328:	bd80      	pop	{r7, pc}
 800032a:	bf00      	nop
 800032c:	40010800 	andmi	r0, r1, r0, lsl #16

08000330 <lcd_send_command>:
 8000330:	b580      	push	{r7, lr}
 8000332:	b082      	sub	sp, #8
 8000334:	af00      	add	r7, sp, #0
 8000336:	4603      	mov	r3, r0
 8000338:	71fb      	strb	r3, [r7, #7]
 800033a:	79fb      	ldrb	r3, [r7, #7]
 800033c:	4619      	mov	r1, r3
 800033e:	480c      	ldr	r0, [pc, #48]	; (8000370 <lcd_send_command+0x40>)
 8000340:	f000 fccc 	bl	8000cdc <MCAL_GPIO_WritePort>
 8000344:	2200      	movs	r2, #0
 8000346:	f44f 7100 	mov.w	r1, #512	; 0x200
 800034a:	4809      	ldr	r0, [pc, #36]	; (8000370 <lcd_send_command+0x40>)
 800034c:	f000 fcd4 	bl	8000cf8 <MCAL_GPIO_WritePin>
 8000350:	2200      	movs	r2, #0
 8000352:	f44f 7180 	mov.w	r1, #256	; 0x100
 8000356:	4806      	ldr	r0, [pc, #24]	; (8000370 <lcd_send_command+0x40>)
 8000358:	f000 fcce 	bl	8000cf8 <MCAL_GPIO_WritePin>
 800035c:	2001      	movs	r0, #1
 800035e:	f7ff ff07 	bl	8000170 <delay_ms>
 8000362:	f7ff ffcf 	bl	8000304 <lcd_kick>
 8000366:	bf00      	nop
 8000368:	3708      	adds	r7, #8
 800036a:	46bd      	mov	sp, r7
 800036c:	bd80      	pop	{r7, pc}
 800036e:	bf00      	nop
 8000370:	40010800 	andmi	r0, r1, r0, lsl #16

08000374 <lcd_init>:
 8000374:	b580      	push	{r7, lr}
 8000376:	af00      	add	r7, sp, #0
 8000378:	2014      	movs	r0, #20
 800037a:	f7ff fef9 	bl	8000170 <delay_ms>
 800037e:	f7ff ff15 	bl	80001ac <LCD_GPIO_init>
 8000382:	200f      	movs	r0, #15
 8000384:	f7ff fef4 	bl	8000170 <delay_ms>
 8000388:	f000 f80e 	bl	80003a8 <lcd_clear>
 800038c:	2038      	movs	r0, #56	; 0x38
 800038e:	f7ff ffcf 	bl	8000330 <lcd_send_command>
 8000392:	2006      	movs	r0, #6
 8000394:	f7ff ffcc 	bl	8000330 <lcd_send_command>
 8000398:	2080      	movs	r0, #128	; 0x80
 800039a:	f7ff ffc9 	bl	8000330 <lcd_send_command>
 800039e:	200d      	movs	r0, #13
 80003a0:	f7ff ffc6 	bl	8000330 <lcd_send_command>
 80003a4:	bf00      	nop
 80003a6:	bd80      	pop	{r7, pc}

080003a8 <lcd_clear>:
 80003a8:	b580      	push	{r7, lr}
 80003aa:	af00      	add	r7, sp, #0
 80003ac:	2001      	movs	r0, #1
 80003ae:	f7ff ffbf 	bl	8000330 <lcd_send_command>
 80003b2:	bf00      	nop
 80003b4:	bd80      	pop	{r7, pc}
	...

080003b8 <IRQ_EXTI9_callback>:
 80003b8:	b480      	push	{r7}
 80003ba:	af00      	add	r7, sp, #0
 80003bc:	4b08      	ldr	r3, [pc, #32]	; (80003e0 <IRQ_EXTI9_callback+0x28>)
 80003be:	2201      	movs	r2, #1
 80003c0:	601a      	str	r2, [r3, #0]
 80003c2:	bf00      	nop
 80003c4:	bf00      	nop
 80003c6:	bf00      	nop
 80003c8:	f3ef 8305 	mrs	r3, IPSR
 80003cc:	4a05      	ldr	r2, [pc, #20]	; (80003e4 <IRQ_EXTI9_callback+0x2c>)
 80003ce:	6013      	str	r3, [r2, #0]
 80003d0:	bf00      	nop
 80003d2:	bf00      	nop
 80003d4:	bf00      	nop
 80003d6:	bf00      	nop
 80003d8:	46bd      	mov	sp, r7
 80003da:	bc80      	pop	{r7}
 80003dc:	4770      	bx	lr
 80003de:	bf00      	nop
 80003e0:	20000020 	andcs	r0, r0, r0, lsr #32
 80003e4:	20000028 	andcs	r0, r0, r8, lsr #32

080003e8 <main>:
 80003e8:	b580      	push	{r7, lr}
 80003ea:	b088      	sub	sp, #32
 80003ec:	af00      	add	r7, sp, #0
 80003ee:	4b1b      	ldr	r3, [pc, #108]	; (800045c <main+0x74>)
 80003f0:	699b      	ldr	r3, [r3, #24]
 80003f2:	4a1a      	ldr	r2, [pc, #104]	; (800045c <main+0x74>)
 80003f4:	f043 0308 	orr.w	r3, r3, #8
 80003f8:	6193      	str	r3, [r2, #24]
 80003fa:	4b18      	ldr	r3, [pc, #96]	; (800045c <main+0x74>)
 80003fc:	699b      	ldr	r3, [r3, #24]
 80003fe:	4a17      	ldr	r2, [pc, #92]	; (800045c <main+0x74>)
 8000400:	f043 0301 	orr.w	r3, r3, #1
 8000404:	6193      	str	r3, [r2, #24]
 8000406:	f7ff ffb5 	bl	8000374 <lcd_init>
 800040a:	4a15      	ldr	r2, [pc, #84]	; (8000460 <main+0x78>)
 800040c:	f107 030c 	add.w	r3, r7, #12
 8000410:	ca07      	ldmia	r2, {r0, r1, r2}
 8000412:	e883 0007 	stmia.w	r3, {r0, r1, r2}
 8000416:	2300      	movs	r3, #0
 8000418:	763b      	strb	r3, [r7, #24]
 800041a:	4b12      	ldr	r3, [pc, #72]	; (8000464 <main+0x7c>)
 800041c:	61fb      	str	r3, [r7, #28]
 800041e:	2301      	movs	r3, #1
 8000420:	767b      	strb	r3, [r7, #25]
 8000422:	f107 030c 	add.w	r3, r7, #12
 8000426:	4618      	mov	r0, r3
 8000428:	f000 f918 	bl	800065c <MCAL_EXTI_Init>
 800042c:	4b0e      	ldr	r3, [pc, #56]	; (8000468 <main+0x80>)
 800042e:	2201      	movs	r2, #1
 8000430:	601a      	str	r2, [r3, #0]
 8000432:	bf00      	nop
 8000434:	bf00      	nop
 8000436:	bf00      	nop
 8000438:	f3ef 8314 	mrs	r3, CONTROL
 800043c:	4a0b      	ldr	r2, [pc, #44]	; (800046c <main+0x84>)
 800043e:	6013      	str	r3, [r2, #0]
 8000440:	bf00      	nop
 8000442:	bf00      	nop
 8000444:	bf00      	nop
 8000446:	4b08      	ldr	r3, [pc, #32]	; (8000468 <main+0x80>)
 8000448:	681b      	ldr	r3, [r3, #0]
 800044a:	2b00      	cmp	r3, #0
 800044c:	d0fb      	beq.n	8000446 <main+0x5e>
 800044e:	f7ff ffab 	bl	80003a8 <lcd_clear>
 8000452:	4b05      	ldr	r3, [pc, #20]	; (8000468 <main+0x80>)
 8000454:	2200      	movs	r2, #0
 8000456:	601a      	str	r2, [r3, #0]
 8000458:	e7f5      	b.n	8000446 <main+0x5e>
 800045a:	bf00      	nop
 800045c:	40021000 	andmi	r1, r2, r0
 8000460:	08000d88 	stmdaeq	r0, {r3, r7, r8, sl, fp}
 8000464:	080003b9 	stmdaeq	r0, {r0, r3, r4, r5, r7, r8, r9}
 8000468:	20000020 	andcs	r0, r0, r0, lsr #32
 800046c:	20000024 	andcs	r0, r0, r4, lsr #32

08000470 <Reset_Handler>:
 8000470:	480d      	ldr	r0, [pc, #52]	; (80004a8 <LoopForever+0x2>)
 8000472:	4685      	mov	sp, r0
 8000474:	f3af 8000 	nop.w
 8000478:	480c      	ldr	r0, [pc, #48]	; (80004ac <LoopForever+0x6>)
 800047a:	490d      	ldr	r1, [pc, #52]	; (80004b0 <LoopForever+0xa>)
 800047c:	4a0d      	ldr	r2, [pc, #52]	; (80004b4 <LoopForever+0xe>)
 800047e:	2300      	movs	r3, #0
 8000480:	e002      	b.n	8000488 <LoopCopyDataInit>

08000482 <CopyDataInit>:
 8000482:	58d4      	ldr	r4, [r2, r3]
 8000484:	50c4      	str	r4, [r0, r3]
 8000486:	3304      	adds	r3, #4

08000488 <LoopCopyDataInit>:
 8000488:	18c4      	adds	r4, r0, r3
 800048a:	428c      	cmp	r4, r1
 800048c:	d3f9      	bcc.n	8000482 <CopyDataInit>
 800048e:	4a0a      	ldr	r2, [pc, #40]	; (80004b8 <LoopForever+0x12>)
 8000490:	4c0a      	ldr	r4, [pc, #40]	; (80004bc <LoopForever+0x16>)
 8000492:	2300      	movs	r3, #0
 8000494:	e001      	b.n	800049a <LoopFillZerobss>

08000496 <FillZerobss>:
 8000496:	6013      	str	r3, [r2, #0]
 8000498:	3204      	adds	r2, #4

0800049a <LoopFillZerobss>:
 800049a:	42a2      	cmp	r2, r4
 800049c:	d3fb      	bcc.n	8000496 <FillZerobss>
 800049e:	f000 fc43 	bl	8000d28 <__libc_init_array>
 80004a2:	f7ff ffa1 	bl	80003e8 <main>

080004a6 <LoopForever>:
 80004a6:	e7fe      	b.n	80004a6 <LoopForever>
 80004a8:	20005000 	andcs	r5, r0, r0
 80004ac:	20000000 	andcs	r0, r0, r0
 80004b0:	20000000 	andcs	r0, r0, r0
 80004b4:	08000d9c 	stmdaeq	r0, {r2, r3, r4, r7, r8, sl, fp}
 80004b8:	20000000 	andcs	r0, r0, r0
 80004bc:	20000068 	andcs	r0, r0, r8, rrx

080004c0 <ADC1_2_IRQHandler>:
 80004c0:	e7fe      	b.n	80004c0 <ADC1_2_IRQHandler>
	...

080004c4 <Enable_NVIC>:
 80004c4:	b480      	push	{r7}
 80004c6:	b083      	sub	sp, #12
 80004c8:	af00      	add	r7, sp, #0
 80004ca:	4603      	mov	r3, r0
 80004cc:	80fb      	strh	r3, [r7, #6]
 80004ce:	88fb      	ldrh	r3, [r7, #6]
 80004d0:	2b0f      	cmp	r3, #15
 80004d2:	d854      	bhi.n	800057e <Enable_NVIC+0xba>
 80004d4:	a201      	add	r2, pc, #4	; (adr r2, 80004dc <Enable_NVIC+0x18>)
 80004d6:	f852 f023 	ldr.w	pc, [r2, r3, lsl #2]
 80004da:	bf00      	nop
 80004dc:	0800051d 	stmdaeq	r0, {r0, r2, r3, r4, r8, sl}
 80004e0:	0800052b 	stmdaeq	r0, {r0, r1, r3, r5, r8, sl}
 80004e4:	08000539 	stmdaeq	r0, {r0, r3, r4, r5, r8, sl}
 80004e8:	08000547 	stmdaeq	r0, {r0, r1, r2, r6, r8, sl}
 80004ec:	08000555 	stmdaeq	r0, {r0, r2, r4, r6, r8, sl}
 80004f0:	08000563 	stmdaeq	r0, {r0, r1, r5, r6, r8, sl}
 80004f4:	08000563 	stmdaeq	r0, {r0, r1, r5, r6, r8, sl}
 80004f8:	08000563 	stmdaeq	r0, {r0, r1, r5, r6, r8, sl}
 80004fc:	08000563 	stmdaeq	r0, {r0, r1, r5, r6, r8, sl}
 8000500:	08000563 	stmdaeq	r0, {r0, r1, r5, r6, r8, sl}
 8000504:	08000571 	stmdaeq	r0, {r0, r4, r5, r6, r8, sl}
 8000508:	08000571 	stmdaeq	r0, {r0, r4, r5, r6, r8, sl}
 800050c:	08000571 	stmdaeq	r0, {r0, r4, r5, r6, r8, sl}
 8000510:	08000571 	stmdaeq	r0, {r0, r4, r5, r6, r8, sl}
 8000514:	08000571 	stmdaeq	r0, {r0, r4, r5, r6, r8, sl}
 8000518:	08000571 	stmdaeq	r0, {r0, r4, r5, r6, r8, sl}
 800051c:	4b1a      	ldr	r3, [pc, #104]	; (8000588 <Enable_NVIC+0xc4>)
 800051e:	681b      	ldr	r3, [r3, #0]
 8000520:	4a19      	ldr	r2, [pc, #100]	; (8000588 <Enable_NVIC+0xc4>)
 8000522:	f043 0340 	orr.w	r3, r3, #64	; 0x40
 8000526:	6013      	str	r3, [r2, #0]
 8000528:	e029      	b.n	800057e <Enable_NVIC+0xba>
 800052a:	4b17      	ldr	r3, [pc, #92]	; (8000588 <Enable_NVIC+0xc4>)
 800052c:	681b      	ldr	r3, [r3, #0]
 800052e:	4a16      	ldr	r2, [pc, #88]	; (8000588 <Enable_NVIC+0xc4>)
 8000530:	f043 0380 	orr.w	r3, r3, #128	; 0x80
 8000534:	6013      	str	r3, [r2, #0]
 8000536:	e022      	b.n	800057e <Enable_NVIC+0xba>
 8000538:	4b13      	ldr	r3, [pc, #76]	; (8000588 <Enable_NVIC+0xc4>)
 800053a:	681b      	ldr	r3, [r3, #0]
 800053c:	4a12      	ldr	r2, [pc, #72]	; (8000588 <Enable_NVIC+0xc4>)
 800053e:	f443 7380 	orr.w	r3, r3, #256	; 0x100
 8000542:	6013      	str	r3, [r2, #0]
 8000544:	e01b      	b.n	800057e <Enable_NVIC+0xba>
 8000546:	4b10      	ldr	r3, [pc, #64]	; (8000588 <Enable_NVIC+0xc4>)
 8000548:	681b      	ldr	r3, [r3, #0]
 800054a:	4a0f      	ldr	r2, [pc, #60]	; (8000588 <Enable_NVIC+0xc4>)
 800054c:	f443 7300 	orr.w	r3, r3, #512	; 0x200
 8000550:	6013      	str	r3, [r2, #0]
 8000552:	e014      	b.n	800057e <Enable_NVIC+0xba>
 8000554:	4b0c      	ldr	r3, [pc, #48]	; (8000588 <Enable_NVIC+0xc4>)
 8000556:	681b      	ldr	r3, [r3, #0]
 8000558:	4a0b      	ldr	r2, [pc, #44]	; (8000588 <Enable_NVIC+0xc4>)
 800055a:	f443 6380 	orr.w	r3, r3, #1024	; 0x400
 800055e:	6013      	str	r3, [r2, #0]
 8000560:	e00d      	b.n	800057e <Enable_NVIC+0xba>
 8000562:	4b09      	ldr	r3, [pc, #36]	; (8000588 <Enable_NVIC+0xc4>)
 8000564:	681b      	ldr	r3, [r3, #0]
 8000566:	4a08      	ldr	r2, [pc, #32]	; (8000588 <Enable_NVIC+0xc4>)
 8000568:	f443 0300 	orr.w	r3, r3, #8388608	; 0x800000
 800056c:	6013      	str	r3, [r2, #0]
 800056e:	e006      	b.n	800057e <Enable_NVIC+0xba>
 8000570:	4b06      	ldr	r3, [pc, #24]	; (800058c <Enable_NVIC+0xc8>)
 8000572:	681b      	ldr	r3, [r3, #0]
 8000574:	4a05      	ldr	r2, [pc, #20]	; (800058c <Enable_NVIC+0xc8>)
 8000576:	f443 7380 	orr.w	r3, r3, #256	; 0x100
 800057a:	6013      	str	r3, [r2, #0]
 800057c:	bf00      	nop
 800057e:	bf00      	nop
 8000580:	370c      	adds	r7, #12
 8000582:	46bd      	mov	sp, r7
 8000584:	bc80      	pop	{r7}
 8000586:	4770      	bx	lr
 8000588:	e000e100 	and	lr, r0, r0, lsl #2
 800058c:	e000e104 	and	lr, r0, r4, lsl #2

08000590 <Disable_NVIC>:
 8000590:	b480      	push	{r7}
 8000592:	b083      	sub	sp, #12
 8000594:	af00      	add	r7, sp, #0
 8000596:	4603      	mov	r3, r0
 8000598:	80fb      	strh	r3, [r7, #6]
 800059a:	88fb      	ldrh	r3, [r7, #6]
 800059c:	2b0f      	cmp	r3, #15
 800059e:	d854      	bhi.n	800064a <Disable_NVIC+0xba>
 80005a0:	a201      	add	r2, pc, #4	; (adr r2, 80005a8 <Disable_NVIC+0x18>)
 80005a2:	f852 f023 	ldr.w	pc, [r2, r3, lsl #2]
 80005a6:	bf00      	nop
 80005a8:	080005e9 	stmdaeq	r0, {r0, r3, r5, r6, r7, r8, sl}
 80005ac:	080005f7 	stmdaeq	r0, {r0, r1, r2, r4, r5, r6, r7, r8, sl}
 80005b0:	08000605 	stmdaeq	r0, {r0, r2, r9, sl}
 80005b4:	08000613 	stmdaeq	r0, {r0, r1, r4, r9, sl}
 80005b8:	08000621 	stmdaeq	r0, {r0, r5, r9, sl}
 80005bc:	0800062f 	stmdaeq	r0, {r0, r1, r2, r3, r5, r9, sl}
 80005c0:	0800062f 	stmdaeq	r0, {r0, r1, r2, r3, r5, r9, sl}
 80005c4:	0800062f 	stmdaeq	r0, {r0, r1, r2, r3, r5, r9, sl}
 80005c8:	0800062f 	stmdaeq	r0, {r0, r1, r2, r3, r5, r9, sl}
 80005cc:	0800062f 	stmdaeq	r0, {r0, r1, r2, r3, r5, r9, sl}
 80005d0:	0800063d 	stmdaeq	r0, {r0, r2, r3, r4, r5, r9, sl}
 80005d4:	0800063d 	stmdaeq	r0, {r0, r2, r3, r4, r5, r9, sl}
 80005d8:	0800063d 	stmdaeq	r0, {r0, r2, r3, r4, r5, r9, sl}
 80005dc:	0800063d 	stmdaeq	r0, {r0, r2, r3, r4, r5, r9, sl}
 80005e0:	0800063d 	stmdaeq	r0, {r0, r2, r3, r4, r5, r9, sl}
 80005e4:	0800063d 	stmdaeq	r0, {r0, r2, r3, r4, r5, r9, sl}
 80005e8:	4b1a      	ldr	r3, [pc, #104]	; (8000654 <Disable_NVIC+0xc4>)
 80005ea:	681b      	ldr	r3, [r3, #0]
 80005ec:	4a19      	ldr	r2, [pc, #100]	; (8000654 <Disable_NVIC+0xc4>)
 80005ee:	f043 0340 	orr.w	r3, r3, #64	; 0x40
 80005f2:	6013      	str	r3, [r2, #0]
 80005f4:	e029      	b.n	800064a <Disable_NVIC+0xba>
 80005f6:	4b17      	ldr	r3, [pc, #92]	; (8000654 <Disable_NVIC+0xc4>)
 80005f8:	681b      	ldr	r3, [r3, #0]
 80005fa:	4a16      	ldr	r2, [pc, #88]	; (8000654 <Disable_NVIC+0xc4>)
 80005fc:	f043 0380 	orr.w	r3, r3, #128	; 0x80
 8000600:	6013      	str	r3, [r2, #0]
 8000602:	e022      	b.n	800064a <Disable_NVIC+0xba>
 8000604:	4b13      	ldr	r3, [pc, #76]	; (8000654 <Disable_NVIC+0xc4>)
 8000606:	681b      	ldr	r3, [r3, #0]
 8000608:	4a12      	ldr	r2, [pc, #72]	; (8000654 <Disable_NVIC+0xc4>)
 800060a:	f443 7380 	orr.w	r3, r3, #256	; 0x100
 800060e:	6013      	str	r3, [r2, #0]
 8000610:	e01b      	b.n	800064a <Disable_NVIC+0xba>
 8000612:	4b10      	ldr	r3, [pc, #64]	; (8000654 <Disable_NVIC+0xc4>)
 8000614:	681b      	ldr	r3, [r3, #0]
 8000616:	4a0f      	ldr	r2, [pc, #60]	; (8000654 <Disable_NVIC+0xc4>)
 8000618:	f443 7300 	orr.w	r3, r3, #512	; 0x200
 800061c:	6013      	str	r3, [r2, #0]
 800061e:	e014      	b.n	800064a <Disable_NVIC+0xba>
 8000620:	4b0c      	ldr	r3, [pc, #48]	; (8000654 <Disable_NVIC+0xc4>)
 8000622:	681b      	ldr	r3, [r3, #0]
 8000624:	4a0b      	ldr	r2, [pc, #44]	; (8000654 <Disable_NVIC+0xc4>)
 8000626:	f443 6380 	orr.w	r3, r3, #1024	; 0x400
 800062a:	6013      	str	r3, [r2, #0]
 800062c:	e00d      	b.n	800064a <Disable_NVIC+0xba>
 800062e:	4b09      	ldr	r3, [pc, #36]	; (8000654 <Disable_NVIC+0xc4>)
 8000630:	681b      	ldr	r3, [r3, #0]
 8000632:	4a08      	ldr	r2, [pc, #32]	; (8000654 <Disable_NVIC+0xc4>)
 8000634:	f443 0300 	orr.w	r3, r3, #8388608	; 0x800000
 8000638:	6013      	str	r3, [r2, #0]
 800063a:	e006      	b.n	800064a <Disable_NVIC+0xba>
 800063c:	4b06      	ldr	r3, [pc, #24]	; (8000658 <Disable_NVIC+0xc8>)
 800063e:	681b      	ldr	r3, [r3, #0]
 8000640:	4a05      	ldr	r2, [pc, #20]	; (8000658 <Disable_NVIC+0xc8>)
 8000642:	f443 7380 	orr.w	r3, r3, #256	; 0x100
 8000646:	6013      	str	r3, [r2, #0]
 8000648:	bf00      	nop
 800064a:	bf00      	nop
 800064c:	370c      	adds	r7, #12
 800064e:	46bd      	mov	sp, r7
 8000650:	bc80      	pop	{r7}
 8000652:	4770      	bx	lr
 8000654:	e000e180 	and	lr, r0, r0, lsl #3
 8000658:	e000e184 	and	lr, r0, r4, lsl #3

0800065c <MCAL_EXTI_Init>:
 800065c:	b580      	push	{r7, lr}
 800065e:	b082      	sub	sp, #8
 8000660:	af00      	add	r7, sp, #0
 8000662:	6078      	str	r0, [r7, #4]
 8000664:	6878      	ldr	r0, [r7, #4]
 8000666:	f000 f805 	bl	8000674 <update_EXTI>
 800066a:	bf00      	nop
 800066c:	3708      	adds	r7, #8
 800066e:	46bd      	mov	sp, r7
 8000670:	bd80      	pop	{r7, pc}
	...

08000674 <update_EXTI>:
 8000674:	b580      	push	{r7, lr}
 8000676:	b084      	sub	sp, #16
 8000678:	af00      	add	r7, sp, #0
 800067a:	6078      	str	r0, [r7, #4]
 800067c:	687b      	ldr	r3, [r7, #4]
 800067e:	891b      	ldrh	r3, [r3, #8]
 8000680:	813b      	strh	r3, [r7, #8]
 8000682:	2301      	movs	r3, #1
 8000684:	72bb      	strb	r3, [r7, #10]
 8000686:	687b      	ldr	r3, [r7, #4]
 8000688:	685b      	ldr	r3, [r3, #4]
 800068a:	f107 0208 	add.w	r2, r7, #8
 800068e:	4611      	mov	r1, r2
 8000690:	4618      	mov	r0, r3
 8000692:	f000 faa7 	bl	8000be4 <MCAL_GPIO_Init>
 8000696:	687b      	ldr	r3, [r7, #4]
 8000698:	781b      	ldrb	r3, [r3, #0]
 800069a:	089b      	lsrs	r3, r3, #2
 800069c:	73fb      	strb	r3, [r7, #15]
 800069e:	687b      	ldr	r3, [r7, #4]
 80006a0:	781b      	ldrb	r3, [r3, #0]
 80006a2:	f003 0303 	and.w	r3, r3, #3
 80006a6:	b2db      	uxtb	r3, r3
 80006a8:	009b      	lsls	r3, r3, #2
 80006aa:	73bb      	strb	r3, [r7, #14]
 80006ac:	4a62      	ldr	r2, [pc, #392]	; (8000838 <update_EXTI+0x1c4>)
 80006ae:	7bfb      	ldrb	r3, [r7, #15]
 80006b0:	3302      	adds	r3, #2
 80006b2:	f852 2023 	ldr.w	r2, [r2, r3, lsl #2]
 80006b6:	7bbb      	ldrb	r3, [r7, #14]
 80006b8:	210f      	movs	r1, #15
 80006ba:	fa01 f303 	lsl.w	r3, r1, r3
 80006be:	43db      	mvns	r3, r3
 80006c0:	4618      	mov	r0, r3
 80006c2:	495d      	ldr	r1, [pc, #372]	; (8000838 <update_EXTI+0x1c4>)
 80006c4:	7bfb      	ldrb	r3, [r7, #15]
 80006c6:	4002      	ands	r2, r0
 80006c8:	3302      	adds	r3, #2
 80006ca:	f841 2023 	str.w	r2, [r1, r3, lsl #2]
 80006ce:	4a5a      	ldr	r2, [pc, #360]	; (8000838 <update_EXTI+0x1c4>)
 80006d0:	7bfb      	ldrb	r3, [r7, #15]
 80006d2:	3302      	adds	r3, #2
 80006d4:	f852 2023 	ldr.w	r2, [r2, r3, lsl #2]
 80006d8:	687b      	ldr	r3, [r7, #4]
 80006da:	685b      	ldr	r3, [r3, #4]
 80006dc:	4957      	ldr	r1, [pc, #348]	; (800083c <update_EXTI+0x1c8>)
 80006de:	428b      	cmp	r3, r1
 80006e0:	d016      	beq.n	8000710 <update_EXTI+0x9c>
 80006e2:	687b      	ldr	r3, [r7, #4]
 80006e4:	685b      	ldr	r3, [r3, #4]
 80006e6:	4956      	ldr	r1, [pc, #344]	; (8000840 <update_EXTI+0x1cc>)
 80006e8:	428b      	cmp	r3, r1
 80006ea:	d00f      	beq.n	800070c <update_EXTI+0x98>
 80006ec:	687b      	ldr	r3, [r7, #4]
 80006ee:	685b      	ldr	r3, [r3, #4]
 80006f0:	4954      	ldr	r1, [pc, #336]	; (8000844 <update_EXTI+0x1d0>)
 80006f2:	428b      	cmp	r3, r1
 80006f4:	d008      	beq.n	8000708 <update_EXTI+0x94>
 80006f6:	687b      	ldr	r3, [r7, #4]
 80006f8:	685b      	ldr	r3, [r3, #4]
 80006fa:	4953      	ldr	r1, [pc, #332]	; (8000848 <update_EXTI+0x1d4>)
 80006fc:	428b      	cmp	r3, r1
 80006fe:	d101      	bne.n	8000704 <update_EXTI+0x90>
 8000700:	2303      	movs	r3, #3
 8000702:	e006      	b.n	8000712 <update_EXTI+0x9e>
 8000704:	2300      	movs	r3, #0
 8000706:	e004      	b.n	8000712 <update_EXTI+0x9e>
 8000708:	2302      	movs	r3, #2
 800070a:	e002      	b.n	8000712 <update_EXTI+0x9e>
 800070c:	2301      	movs	r3, #1
 800070e:	e000      	b.n	8000712 <update_EXTI+0x9e>
 8000710:	2300      	movs	r3, #0
 8000712:	7bb9      	ldrb	r1, [r7, #14]
 8000714:	408b      	lsls	r3, r1
 8000716:	4618      	mov	r0, r3
 8000718:	4947      	ldr	r1, [pc, #284]	; (8000838 <update_EXTI+0x1c4>)
 800071a:	7bfb      	ldrb	r3, [r7, #15]
 800071c:	4302      	orrs	r2, r0
 800071e:	3302      	adds	r3, #2
 8000720:	f841 2023 	str.w	r2, [r1, r3, lsl #2]
 8000724:	4b49      	ldr	r3, [pc, #292]	; (800084c <update_EXTI+0x1d8>)
 8000726:	689b      	ldr	r3, [r3, #8]
 8000728:	687a      	ldr	r2, [r7, #4]
 800072a:	7812      	ldrb	r2, [r2, #0]
 800072c:	4611      	mov	r1, r2
 800072e:	2201      	movs	r2, #1
 8000730:	408a      	lsls	r2, r1
 8000732:	43d2      	mvns	r2, r2
 8000734:	4611      	mov	r1, r2
 8000736:	4a45      	ldr	r2, [pc, #276]	; (800084c <update_EXTI+0x1d8>)
 8000738:	400b      	ands	r3, r1
 800073a:	6093      	str	r3, [r2, #8]
 800073c:	4b43      	ldr	r3, [pc, #268]	; (800084c <update_EXTI+0x1d8>)
 800073e:	68db      	ldr	r3, [r3, #12]
 8000740:	687a      	ldr	r2, [r7, #4]
 8000742:	7812      	ldrb	r2, [r2, #0]
 8000744:	4611      	mov	r1, r2
 8000746:	2201      	movs	r2, #1
 8000748:	408a      	lsls	r2, r1
 800074a:	43d2      	mvns	r2, r2
 800074c:	4611      	mov	r1, r2
 800074e:	4a3f      	ldr	r2, [pc, #252]	; (800084c <update_EXTI+0x1d8>)
 8000750:	400b      	ands	r3, r1
 8000752:	60d3      	str	r3, [r2, #12]
 8000754:	687b      	ldr	r3, [r7, #4]
 8000756:	7b1b      	ldrb	r3, [r3, #12]
 8000758:	2b00      	cmp	r3, #0
 800075a:	d10b      	bne.n	8000774 <update_EXTI+0x100>
 800075c:	4b3b      	ldr	r3, [pc, #236]	; (800084c <update_EXTI+0x1d8>)
 800075e:	689b      	ldr	r3, [r3, #8]
 8000760:	687a      	ldr	r2, [r7, #4]
 8000762:	7812      	ldrb	r2, [r2, #0]
 8000764:	4611      	mov	r1, r2
 8000766:	2201      	movs	r2, #1
 8000768:	408a      	lsls	r2, r1
 800076a:	4611      	mov	r1, r2
 800076c:	4a37      	ldr	r2, [pc, #220]	; (800084c <update_EXTI+0x1d8>)
 800076e:	430b      	orrs	r3, r1
 8000770:	6093      	str	r3, [r2, #8]
 8000772:	e029      	b.n	80007c8 <update_EXTI+0x154>
 8000774:	687b      	ldr	r3, [r7, #4]
 8000776:	7b1b      	ldrb	r3, [r3, #12]
 8000778:	2b01      	cmp	r3, #1
 800077a:	d10b      	bne.n	8000794 <update_EXTI+0x120>
 800077c:	4b33      	ldr	r3, [pc, #204]	; (800084c <update_EXTI+0x1d8>)
 800077e:	68db      	ldr	r3, [r3, #12]
 8000780:	687a      	ldr	r2, [r7, #4]
 8000782:	7812      	ldrb	r2, [r2, #0]
 8000784:	4611      	mov	r1, r2
 8000786:	2201      	movs	r2, #1
 8000788:	408a      	lsls	r2, r1
 800078a:	4611      	mov	r1, r2
 800078c:	4a2f      	ldr	r2, [pc, #188]	; (800084c <update_EXTI+0x1d8>)
 800078e:	430b      	orrs	r3, r1
 8000790:	60d3      	str	r3, [r2, #12]
 8000792:	e019      	b.n	80007c8 <update_EXTI+0x154>
 8000794:	687b      	ldr	r3, [r7, #4]
 8000796:	7b1b      	ldrb	r3, [r3, #12]
 8000798:	2b02      	cmp	r3, #2
 800079a:	d115      	bne.n	80007c8 <update_EXTI+0x154>
 800079c:	4b2b      	ldr	r3, [pc, #172]	; (800084c <update_EXTI+0x1d8>)
 800079e:	689b      	ldr	r3, [r3, #8]
 80007a0:	687a      	ldr	r2, [r7, #4]
 80007a2:	7812      	ldrb	r2, [r2, #0]
 80007a4:	4611      	mov	r1, r2
 80007a6:	2201      	movs	r2, #1
 80007a8:	408a      	lsls	r2, r1
 80007aa:	4611      	mov	r1, r2
 80007ac:	4a27      	ldr	r2, [pc, #156]	; (800084c <update_EXTI+0x1d8>)
 80007ae:	430b      	orrs	r3, r1
 80007b0:	6093      	str	r3, [r2, #8]
 80007b2:	4b26      	ldr	r3, [pc, #152]	; (800084c <update_EXTI+0x1d8>)
 80007b4:	68db      	ldr	r3, [r3, #12]
 80007b6:	687a      	ldr	r2, [r7, #4]
 80007b8:	7812      	ldrb	r2, [r2, #0]
 80007ba:	4611      	mov	r1, r2
 80007bc:	2201      	movs	r2, #1
 80007be:	408a      	lsls	r2, r1
 80007c0:	4611      	mov	r1, r2
 80007c2:	4a22      	ldr	r2, [pc, #136]	; (800084c <update_EXTI+0x1d8>)
 80007c4:	430b      	orrs	r3, r1
 80007c6:	60d3      	str	r3, [r2, #12]
 80007c8:	687b      	ldr	r3, [r7, #4]
 80007ca:	781b      	ldrb	r3, [r3, #0]
 80007cc:	4619      	mov	r1, r3
 80007ce:	687b      	ldr	r3, [r7, #4]
 80007d0:	691b      	ldr	r3, [r3, #16]
 80007d2:	4a1f      	ldr	r2, [pc, #124]	; (8000850 <update_EXTI+0x1dc>)
 80007d4:	f842 3021 	str.w	r3, [r2, r1, lsl #2]
 80007d8:	687b      	ldr	r3, [r7, #4]
 80007da:	7b5b      	ldrb	r3, [r3, #13]
 80007dc:	2b01      	cmp	r3, #1
 80007de:	d111      	bne.n	8000804 <update_EXTI+0x190>
 80007e0:	4b1a      	ldr	r3, [pc, #104]	; (800084c <update_EXTI+0x1d8>)
 80007e2:	681b      	ldr	r3, [r3, #0]
 80007e4:	687a      	ldr	r2, [r7, #4]
 80007e6:	7812      	ldrb	r2, [r2, #0]
 80007e8:	4611      	mov	r1, r2
 80007ea:	2201      	movs	r2, #1
 80007ec:	408a      	lsls	r2, r1
 80007ee:	4611      	mov	r1, r2
 80007f0:	4a16      	ldr	r2, [pc, #88]	; (800084c <update_EXTI+0x1d8>)
 80007f2:	430b      	orrs	r3, r1
 80007f4:	6013      	str	r3, [r2, #0]
 80007f6:	687b      	ldr	r3, [r7, #4]
 80007f8:	781b      	ldrb	r3, [r3, #0]
 80007fa:	b29b      	uxth	r3, r3
 80007fc:	4618      	mov	r0, r3
 80007fe:	f7ff fe61 	bl	80004c4 <Enable_NVIC>
 8000802:	e015      	b.n	8000830 <update_EXTI+0x1bc>
 8000804:	687b      	ldr	r3, [r7, #4]
 8000806:	7b5b      	ldrb	r3, [r3, #13]
 8000808:	2b00      	cmp	r3, #0
 800080a:	d111      	bne.n	8000830 <update_EXTI+0x1bc>
 800080c:	4b0f      	ldr	r3, [pc, #60]	; (800084c <update_EXTI+0x1d8>)
 800080e:	681b      	ldr	r3, [r3, #0]
 8000810:	687a      	ldr	r2, [r7, #4]
 8000812:	7812      	ldrb	r2, [r2, #0]
 8000814:	4611      	mov	r1, r2
 8000816:	2201      	movs	r2, #1
 8000818:	408a      	lsls	r2, r1
 800081a:	43d2      	mvns	r2, r2
 800081c:	4611      	mov	r1, r2
 800081e:	4a0b      	ldr	r2, [pc, #44]	; (800084c <update_EXTI+0x1d8>)
 8000820:	400b      	ands	r3, r1
 8000822:	6013      	str	r3, [r2, #0]
 8000824:	687b      	ldr	r3, [r7, #4]
 8000826:	781b      	ldrb	r3, [r3, #0]
 8000828:	b29b      	uxth	r3, r3
 800082a:	4618      	mov	r0, r3
 800082c:	f7ff feb0 	bl	8000590 <Disable_NVIC>
 8000830:	bf00      	nop
 8000832:	3710      	adds	r7, #16
 8000834:	46bd      	mov	sp, r7
 8000836:	bd80      	pop	{r7, pc}
 8000838:	40010000 	andmi	r0, r1, r0
 800083c:	40010800 	andmi	r0, r1, r0, lsl #16
 8000840:	40010c00 	andmi	r0, r1, r0, lsl #24
 8000844:	40011000 	andmi	r1, r1, r0
 8000848:	40011400 	andmi	r1, r1, r0, lsl #8
 800084c:	40010400 	andmi	r0, r1, r0, lsl #8
 8000850:	2000002c 	andcs	r0, r0, ip, lsr #32

08000854 <EXTI0_IRQHandler>:
 8000854:	b580      	push	{r7, lr}
 8000856:	af00      	add	r7, sp, #0
 8000858:	4b05      	ldr	r3, [pc, #20]	; (8000870 <EXTI0_IRQHandler+0x1c>)
 800085a:	695b      	ldr	r3, [r3, #20]
 800085c:	4a04      	ldr	r2, [pc, #16]	; (8000870 <EXTI0_IRQHandler+0x1c>)
 800085e:	f043 0301 	orr.w	r3, r3, #1
 8000862:	6153      	str	r3, [r2, #20]
 8000864:	4b03      	ldr	r3, [pc, #12]	; (8000874 <EXTI0_IRQHandler+0x20>)
 8000866:	681b      	ldr	r3, [r3, #0]
 8000868:	4798      	blx	r3
 800086a:	bf00      	nop
 800086c:	bd80      	pop	{r7, pc}
 800086e:	bf00      	nop
 8000870:	40010400 	andmi	r0, r1, r0, lsl #8
 8000874:	2000002c 	andcs	r0, r0, ip, lsr #32

08000878 <EXTI1_IRQHandler>:
 8000878:	b580      	push	{r7, lr}
 800087a:	af00      	add	r7, sp, #0
 800087c:	4b05      	ldr	r3, [pc, #20]	; (8000894 <EXTI1_IRQHandler+0x1c>)
 800087e:	695b      	ldr	r3, [r3, #20]
 8000880:	4a04      	ldr	r2, [pc, #16]	; (8000894 <EXTI1_IRQHandler+0x1c>)
 8000882:	f043 0302 	orr.w	r3, r3, #2
 8000886:	6153      	str	r3, [r2, #20]
 8000888:	4b03      	ldr	r3, [pc, #12]	; (8000898 <EXTI1_IRQHandler+0x20>)
 800088a:	685b      	ldr	r3, [r3, #4]
 800088c:	4798      	blx	r3
 800088e:	bf00      	nop
 8000890:	bd80      	pop	{r7, pc}
 8000892:	bf00      	nop
 8000894:	40010400 	andmi	r0, r1, r0, lsl #8
 8000898:	2000002c 	andcs	r0, r0, ip, lsr #32

0800089c <EXTI2_IRQHandler>:
 800089c:	b580      	push	{r7, lr}
 800089e:	af00      	add	r7, sp, #0
 80008a0:	4b05      	ldr	r3, [pc, #20]	; (80008b8 <EXTI2_IRQHandler+0x1c>)
 80008a2:	695b      	ldr	r3, [r3, #20]
 80008a4:	4a04      	ldr	r2, [pc, #16]	; (80008b8 <EXTI2_IRQHandler+0x1c>)
 80008a6:	f043 0304 	orr.w	r3, r3, #4
 80008aa:	6153      	str	r3, [r2, #20]
 80008ac:	4b03      	ldr	r3, [pc, #12]	; (80008bc <EXTI2_IRQHandler+0x20>)
 80008ae:	689b      	ldr	r3, [r3, #8]
 80008b0:	4798      	blx	r3
 80008b2:	bf00      	nop
 80008b4:	bd80      	pop	{r7, pc}
 80008b6:	bf00      	nop
 80008b8:	40010400 	andmi	r0, r1, r0, lsl #8
 80008bc:	2000002c 	andcs	r0, r0, ip, lsr #32

080008c0 <EXTI3_IRQHandler>:
 80008c0:	b580      	push	{r7, lr}
 80008c2:	af00      	add	r7, sp, #0
 80008c4:	4b05      	ldr	r3, [pc, #20]	; (80008dc <EXTI3_IRQHandler+0x1c>)
 80008c6:	695b      	ldr	r3, [r3, #20]
 80008c8:	4a04      	ldr	r2, [pc, #16]	; (80008dc <EXTI3_IRQHandler+0x1c>)
 80008ca:	f043 0308 	orr.w	r3, r3, #8
 80008ce:	6153      	str	r3, [r2, #20]
 80008d0:	4b03      	ldr	r3, [pc, #12]	; (80008e0 <EXTI3_IRQHandler+0x20>)
 80008d2:	68db      	ldr	r3, [r3, #12]
 80008d4:	4798      	blx	r3
 80008d6:	bf00      	nop
 80008d8:	bd80      	pop	{r7, pc}
 80008da:	bf00      	nop
 80008dc:	40010400 	andmi	r0, r1, r0, lsl #8
 80008e0:	2000002c 	andcs	r0, r0, ip, lsr #32

080008e4 <EXTI4_IRQHandler>:
 80008e4:	b580      	push	{r7, lr}
 80008e6:	af00      	add	r7, sp, #0
 80008e8:	4b05      	ldr	r3, [pc, #20]	; (8000900 <EXTI4_IRQHandler+0x1c>)
 80008ea:	695b      	ldr	r3, [r3, #20]
 80008ec:	4a04      	ldr	r2, [pc, #16]	; (8000900 <EXTI4_IRQHandler+0x1c>)
 80008ee:	f043 0310 	orr.w	r3, r3, #16
 80008f2:	6153      	str	r3, [r2, #20]
 80008f4:	4b03      	ldr	r3, [pc, #12]	; (8000904 <EXTI4_IRQHandler+0x20>)
 80008f6:	691b      	ldr	r3, [r3, #16]
 80008f8:	4798      	blx	r3
 80008fa:	bf00      	nop
 80008fc:	bd80      	pop	{r7, pc}
 80008fe:	bf00      	nop
 8000900:	40010400 	andmi	r0, r1, r0, lsl #8
 8000904:	2000002c 	andcs	r0, r0, ip, lsr #32

08000908 <EXTI9_5_IRQHandler>:
 8000908:	b580      	push	{r7, lr}
 800090a:	af00      	add	r7, sp, #0
 800090c:	4b26      	ldr	r3, [pc, #152]	; (80009a8 <EXTI9_5_IRQHandler+0xa0>)
 800090e:	695b      	ldr	r3, [r3, #20]
 8000910:	f003 0320 	and.w	r3, r3, #32
 8000914:	2b00      	cmp	r3, #0
 8000916:	d008      	beq.n	800092a <EXTI9_5_IRQHandler+0x22>
 8000918:	4b23      	ldr	r3, [pc, #140]	; (80009a8 <EXTI9_5_IRQHandler+0xa0>)
 800091a:	695b      	ldr	r3, [r3, #20]
 800091c:	4a22      	ldr	r2, [pc, #136]	; (80009a8 <EXTI9_5_IRQHandler+0xa0>)
 800091e:	f043 0320 	orr.w	r3, r3, #32
 8000922:	6153      	str	r3, [r2, #20]
 8000924:	4b21      	ldr	r3, [pc, #132]	; (80009ac <EXTI9_5_IRQHandler+0xa4>)
 8000926:	695b      	ldr	r3, [r3, #20]
 8000928:	4798      	blx	r3
 800092a:	4b1f      	ldr	r3, [pc, #124]	; (80009a8 <EXTI9_5_IRQHandler+0xa0>)
 800092c:	695b      	ldr	r3, [r3, #20]
 800092e:	f003 0340 	and.w	r3, r3, #64	; 0x40
 8000932:	2b00      	cmp	r3, #0
 8000934:	d008      	beq.n	8000948 <EXTI9_5_IRQHandler+0x40>
 8000936:	4b1c      	ldr	r3, [pc, #112]	; (80009a8 <EXTI9_5_IRQHandler+0xa0>)
 8000938:	695b      	ldr	r3, [r3, #20]
 800093a:	4a1b      	ldr	r2, [pc, #108]	; (80009a8 <EXTI9_5_IRQHandler+0xa0>)
 800093c:	f043 0340 	orr.w	r3, r3, #64	; 0x40
 8000940:	6153      	str	r3, [r2, #20]
 8000942:	4b1a      	ldr	r3, [pc, #104]	; (80009ac <EXTI9_5_IRQHandler+0xa4>)
 8000944:	699b      	ldr	r3, [r3, #24]
 8000946:	4798      	blx	r3
 8000948:	4b17      	ldr	r3, [pc, #92]	; (80009a8 <EXTI9_5_IRQHandler+0xa0>)
 800094a:	695b      	ldr	r3, [r3, #20]
 800094c:	f003 0380 	and.w	r3, r3, #128	; 0x80
 8000950:	2b00      	cmp	r3, #0
 8000952:	d008      	beq.n	8000966 <EXTI9_5_IRQHandler+0x5e>
 8000954:	4b14      	ldr	r3, [pc, #80]	; (80009a8 <EXTI9_5_IRQHandler+0xa0>)
 8000956:	695b      	ldr	r3, [r3, #20]
 8000958:	4a13      	ldr	r2, [pc, #76]	; (80009a8 <EXTI9_5_IRQHandler+0xa0>)
 800095a:	f043 0380 	orr.w	r3, r3, #128	; 0x80
 800095e:	6153      	str	r3, [r2, #20]
 8000960:	4b12      	ldr	r3, [pc, #72]	; (80009ac <EXTI9_5_IRQHandler+0xa4>)
 8000962:	69db      	ldr	r3, [r3, #28]
 8000964:	4798      	blx	r3
 8000966:	4b10      	ldr	r3, [pc, #64]	; (80009a8 <EXTI9_5_IRQHandler+0xa0>)
 8000968:	695b      	ldr	r3, [r3, #20]
 800096a:	f403 7380 	and.w	r3, r3, #256	; 0x100
 800096e:	2b00      	cmp	r3, #0
 8000970:	d008      	beq.n	8000984 <EXTI9_5_IRQHandler+0x7c>
 8000972:	4b0d      	ldr	r3, [pc, #52]	; (80009a8 <EXTI9_5_IRQHandler+0xa0>)
 8000974:	695b      	ldr	r3, [r3, #20]
 8000976:	4a0c      	ldr	r2, [pc, #48]	; (80009a8 <EXTI9_5_IRQHandler+0xa0>)
 8000978:	f443 7380 	orr.w	r3, r3, #256	; 0x100
 800097c:	6153      	str	r3, [r2, #20]
 800097e:	4b0b      	ldr	r3, [pc, #44]	; (80009ac <EXTI9_5_IRQHandler+0xa4>)
 8000980:	6a1b      	ldr	r3, [r3, #32]
 8000982:	4798      	blx	r3
 8000984:	4b08      	ldr	r3, [pc, #32]	; (80009a8 <EXTI9_5_IRQHandler+0xa0>)
 8000986:	695b      	ldr	r3, [r3, #20]
 8000988:	f403 7300 	and.w	r3, r3, #512	; 0x200
 800098c:	2b00      	cmp	r3, #0
 800098e:	d008      	beq.n	80009a2 <EXTI9_5_IRQHandler+0x9a>
 8000990:	4b05      	ldr	r3, [pc, #20]	; (80009a8 <EXTI9_5_IRQHandler+0xa0>)
 8000992:	695b      	ldr	r3, [r3, #20]
 8000994:	4a04      	ldr	r2, [pc, #16]	; (80009a8 <EXTI9_5_IRQHandler+0xa0>)
 8000996:	f443 7300 	orr.w	r3, r3, #512	; 0x200
 800099a:	6153      	str	r3, [r2, #20]
 800099c:	4b03      	ldr	r3, [pc, #12]	; (80009ac <EXTI9_5_IRQHandler+0xa4>)
 800099e:	6a5b      	ldr	r3, [r3, #36]	; 0x24
 80009a0:	4798      	blx	r3
 80009a2:	bf00      	nop
 80009a4:	bd80      	pop	{r7, pc}
 80009a6:	bf00      	nop
 80009a8:	40010400 	andmi	r0, r1, r0, lsl #8
 80009ac:	2000002c 	andcs	r0, r0, ip, lsr #32

080009b0 <EXTI15_10_IRQHandler>:
 80009b0:	b580      	push	{r7, lr}
 80009b2:	af00      	add	r7, sp, #0
 80009b4:	4b2d      	ldr	r3, [pc, #180]	; (8000a6c <EXTI15_10_IRQHandler+0xbc>)
 80009b6:	695b      	ldr	r3, [r3, #20]
 80009b8:	f403 6380 	and.w	r3, r3, #1024	; 0x400
 80009bc:	2b00      	cmp	r3, #0
 80009be:	d008      	beq.n	80009d2 <EXTI15_10_IRQHandler+0x22>
 80009c0:	4b2a      	ldr	r3, [pc, #168]	; (8000a6c <EXTI15_10_IRQHandler+0xbc>)
 80009c2:	695b      	ldr	r3, [r3, #20]
 80009c4:	4a29      	ldr	r2, [pc, #164]	; (8000a6c <EXTI15_10_IRQHandler+0xbc>)
 80009c6:	f443 6380 	orr.w	r3, r3, #1024	; 0x400
 80009ca:	6153      	str	r3, [r2, #20]
 80009cc:	4b28      	ldr	r3, [pc, #160]	; (8000a70 <EXTI15_10_IRQHandler+0xc0>)
 80009ce:	6a9b      	ldr	r3, [r3, #40]	; 0x28
 80009d0:	4798      	blx	r3
 80009d2:	4b26      	ldr	r3, [pc, #152]	; (8000a6c <EXTI15_10_IRQHandler+0xbc>)
 80009d4:	695b      	ldr	r3, [r3, #20]
 80009d6:	f403 6300 	and.w	r3, r3, #2048	; 0x800
 80009da:	2b00      	cmp	r3, #0
 80009dc:	d008      	beq.n	80009f0 <EXTI15_10_IRQHandler+0x40>
 80009de:	4b23      	ldr	r3, [pc, #140]	; (8000a6c <EXTI15_10_IRQHandler+0xbc>)
 80009e0:	695b      	ldr	r3, [r3, #20]
 80009e2:	4a22      	ldr	r2, [pc, #136]	; (8000a6c <EXTI15_10_IRQHandler+0xbc>)
 80009e4:	f443 6300 	orr.w	r3, r3, #2048	; 0x800
 80009e8:	6153      	str	r3, [r2, #20]
 80009ea:	4b21      	ldr	r3, [pc, #132]	; (8000a70 <EXTI15_10_IRQHandler+0xc0>)
 80009ec:	6adb      	ldr	r3, [r3, #44]	; 0x2c
 80009ee:	4798      	blx	r3
 80009f0:	4b1e      	ldr	r3, [pc, #120]	; (8000a6c <EXTI15_10_IRQHandler+0xbc>)
 80009f2:	695b      	ldr	r3, [r3, #20]
 80009f4:	f403 5380 	and.w	r3, r3, #4096	; 0x1000
 80009f8:	2b00      	cmp	r3, #0
 80009fa:	d008      	beq.n	8000a0e <EXTI15_10_IRQHandler+0x5e>
 80009fc:	4b1b      	ldr	r3, [pc, #108]	; (8000a6c <EXTI15_10_IRQHandler+0xbc>)
 80009fe:	695b      	ldr	r3, [r3, #20]
 8000a00:	4a1a      	ldr	r2, [pc, #104]	; (8000a6c <EXTI15_10_IRQHandler+0xbc>)
 8000a02:	f443 5380 	orr.w	r3, r3, #4096	; 0x1000
 8000a06:	6153      	str	r3, [r2, #20]
 8000a08:	4b19      	ldr	r3, [pc, #100]	; (8000a70 <EXTI15_10_IRQHandler+0xc0>)
 8000a0a:	6b1b      	ldr	r3, [r3, #48]	; 0x30
 8000a0c:	4798      	blx	r3
 8000a0e:	4b17      	ldr	r3, [pc, #92]	; (8000a6c <EXTI15_10_IRQHandler+0xbc>)
 8000a10:	695b      	ldr	r3, [r3, #20]
 8000a12:	f403 5300 	and.w	r3, r3, #8192	; 0x2000
 8000a16:	2b00      	cmp	r3, #0
 8000a18:	d008      	beq.n	8000a2c <EXTI15_10_IRQHandler+0x7c>
 8000a1a:	4b14      	ldr	r3, [pc, #80]	; (8000a6c <EXTI15_10_IRQHandler+0xbc>)
 8000a1c:	695b      	ldr	r3, [r3, #20]
 8000a1e:	4a13      	ldr	r2, [pc, #76]	; (8000a6c <EXTI15_10_IRQHandler+0xbc>)
 8000a20:	f443 5300 	orr.w	r3, r3, #8192	; 0x2000
 8000a24:	6153      	str	r3, [r2, #20]
 8000a26:	4b12      	ldr	r3, [pc, #72]	; (8000a70 <EXTI15_10_IRQHandler+0xc0>)
 8000a28:	6b5b      	ldr	r3, [r3, #52]	; 0x34
 8000a2a:	4798      	blx	r3
 8000a2c:	4b0f      	ldr	r3, [pc, #60]	; (8000a6c <EXTI15_10_IRQHandler+0xbc>)
 8000a2e:	695b      	ldr	r3, [r3, #20]
 8000a30:	f403 4380 	and.w	r3, r3, #16384	; 0x4000
 8000a34:	2b00      	cmp	r3, #0
 8000a36:	d008      	beq.n	8000a4a <EXTI15_10_IRQHandler+0x9a>
 8000a38:	4b0c      	ldr	r3, [pc, #48]	; (8000a6c <EXTI15_10_IRQHandler+0xbc>)
 8000a3a:	695b      	ldr	r3, [r3, #20]
 8000a3c:	4a0b      	ldr	r2, [pc, #44]	; (8000a6c <EXTI15_10_IRQHandler+0xbc>)
 8000a3e:	f443 4380 	orr.w	r3, r3, #16384	; 0x4000
 8000a42:	6153      	str	r3, [r2, #20]
 8000a44:	4b0a      	ldr	r3, [pc, #40]	; (8000a70 <EXTI15_10_IRQHandler+0xc0>)
 8000a46:	6b9b      	ldr	r3, [r3, #56]	; 0x38
 8000a48:	4798      	blx	r3
 8000a4a:	4b08      	ldr	r3, [pc, #32]	; (8000a6c <EXTI15_10_IRQHandler+0xbc>)
 8000a4c:	695b      	ldr	r3, [r3, #20]
 8000a4e:	f403 4300 	and.w	r3, r3, #32768	; 0x8000
 8000a52:	2b00      	cmp	r3, #0
 8000a54:	d008      	beq.n	8000a68 <EXTI15_10_IRQHandler+0xb8>
 8000a56:	4b05      	ldr	r3, [pc, #20]	; (8000a6c <EXTI15_10_IRQHandler+0xbc>)
 8000a58:	695b      	ldr	r3, [r3, #20]
 8000a5a:	4a04      	ldr	r2, [pc, #16]	; (8000a6c <EXTI15_10_IRQHandler+0xbc>)
 8000a5c:	f443 4300 	orr.w	r3, r3, #32768	; 0x8000
 8000a60:	6153      	str	r3, [r2, #20]
 8000a62:	4b03      	ldr	r3, [pc, #12]	; (8000a70 <EXTI15_10_IRQHandler+0xc0>)
 8000a64:	6bdb      	ldr	r3, [r3, #60]	; 0x3c
 8000a66:	4798      	blx	r3
 8000a68:	bf00      	nop
 8000a6a:	bd80      	pop	{r7, pc}
 8000a6c:	40010400 	andmi	r0, r1, r0, lsl #8
 8000a70:	2000002c 	andcs	r0, r0, ip, lsr #32

08000a74 <Get_Bit_Location>:
 8000a74:	b480      	push	{r7}
 8000a76:	b083      	sub	sp, #12
 8000a78:	af00      	add	r7, sp, #0
 8000a7a:	4603      	mov	r3, r0
 8000a7c:	80fb      	strh	r3, [r7, #6]
 8000a7e:	88fb      	ldrh	r3, [r7, #6]
 8000a80:	f5b3 4f00 	cmp.w	r3, #32768	; 0x8000
 8000a84:	f000 80a5 	beq.w	8000bd2 <Get_Bit_Location+0x15e>
 8000a88:	f5b3 4f00 	cmp.w	r3, #32768	; 0x8000
 8000a8c:	f300 80a3 	bgt.w	8000bd6 <Get_Bit_Location+0x162>
 8000a90:	f5b3 4f80 	cmp.w	r3, #16384	; 0x4000
 8000a94:	f000 809b 	beq.w	8000bce <Get_Bit_Location+0x15a>
 8000a98:	f5b3 4f80 	cmp.w	r3, #16384	; 0x4000
 8000a9c:	f300 809b 	bgt.w	8000bd6 <Get_Bit_Location+0x162>
 8000aa0:	f5b3 5f00 	cmp.w	r3, #8192	; 0x2000
 8000aa4:	f000 8091 	beq.w	8000bca <Get_Bit_Location+0x156>
 8000aa8:	f5b3 5f00 	cmp.w	r3, #8192	; 0x2000
 8000aac:	f300 8093 	bgt.w	8000bd6 <Get_Bit_Location+0x162>
 8000ab0:	f5b3 5f80 	cmp.w	r3, #4096	; 0x1000
 8000ab4:	f000 8087 	beq.w	8000bc6 <Get_Bit_Location+0x152>
 8000ab8:	f5b3 5f80 	cmp.w	r3, #4096	; 0x1000
 8000abc:	f300 808b 	bgt.w	8000bd6 <Get_Bit_Location+0x162>
 8000ac0:	f5b3 6f00 	cmp.w	r3, #2048	; 0x800
 8000ac4:	d07d      	beq.n	8000bc2 <Get_Bit_Location+0x14e>
 8000ac6:	f5b3 6f00 	cmp.w	r3, #2048	; 0x800
 8000aca:	f300 8084 	bgt.w	8000bd6 <Get_Bit_Location+0x162>
 8000ace:	f5b3 6f80 	cmp.w	r3, #1024	; 0x400
 8000ad2:	d074      	beq.n	8000bbe <Get_Bit_Location+0x14a>
 8000ad4:	f5b3 6f80 	cmp.w	r3, #1024	; 0x400
 8000ad8:	dc7d      	bgt.n	8000bd6 <Get_Bit_Location+0x162>
 8000ada:	f5b3 7f00 	cmp.w	r3, #512	; 0x200
 8000ade:	d06c      	beq.n	8000bba <Get_Bit_Location+0x146>
 8000ae0:	f5b3 7f00 	cmp.w	r3, #512	; 0x200
 8000ae4:	dc77      	bgt.n	8000bd6 <Get_Bit_Location+0x162>
 8000ae6:	f5b3 7f80 	cmp.w	r3, #256	; 0x100
 8000aea:	d064      	beq.n	8000bb6 <Get_Bit_Location+0x142>
 8000aec:	f5b3 7f80 	cmp.w	r3, #256	; 0x100
 8000af0:	dc71      	bgt.n	8000bd6 <Get_Bit_Location+0x162>
 8000af2:	2b80      	cmp	r3, #128	; 0x80
 8000af4:	d05d      	beq.n	8000bb2 <Get_Bit_Location+0x13e>
 8000af6:	2b80      	cmp	r3, #128	; 0x80
 8000af8:	dc6d      	bgt.n	8000bd6 <Get_Bit_Location+0x162>
 8000afa:	2b20      	cmp	r3, #32
 8000afc:	dc48      	bgt.n	8000b90 <Get_Bit_Location+0x11c>
 8000afe:	2b00      	cmp	r3, #0
 8000b00:	dd69      	ble.n	8000bd6 <Get_Bit_Location+0x162>
 8000b02:	3b01      	subs	r3, #1
 8000b04:	2b1f      	cmp	r3, #31
 8000b06:	d866      	bhi.n	8000bd6 <Get_Bit_Location+0x162>
 8000b08:	a201      	add	r2, pc, #4	; (adr r2, 8000b10 <Get_Bit_Location+0x9c>)
 8000b0a:	f852 f023 	ldr.w	pc, [r2, r3, lsl #2]
 8000b0e:	bf00      	nop
 8000b10:	08000b97 	stmdaeq	r0, {r0, r1, r2, r4, r7, r8, r9, fp}
 8000b14:	08000b9b 	stmdaeq	r0, {r0, r1, r3, r4, r7, r8, r9, fp}
 8000b18:	08000bd7 	stmdaeq	r0, {r0, r1, r2, r4, r6, r7, r8, r9, fp}
 8000b1c:	08000b9f 	stmdaeq	r0, {r0, r1, r2, r3, r4, r7, r8, r9, fp}
 8000b20:	08000bd7 	stmdaeq	r0, {r0, r1, r2, r4, r6, r7, r8, r9, fp}
 8000b24:	08000bd7 	stmdaeq	r0, {r0, r1, r2, r4, r6, r7, r8, r9, fp}
 8000b28:	08000bd7 	stmdaeq	r0, {r0, r1, r2, r4, r6, r7, r8, r9, fp}
 8000b2c:	08000ba3 	stmdaeq	r0, {r0, r1, r5, r7, r8, r9, fp}
 8000b30:	08000bd7 	stmdaeq	r0, {r0, r1, r2, r4, r6, r7, r8, r9, fp}
 8000b34:	08000bd7 	stmdaeq	r0, {r0, r1, r2, r4, r6, r7, r8, r9, fp}
 8000b38:	08000bd7 	stmdaeq	r0, {r0, r1, r2, r4, r6, r7, r8, r9, fp}
 8000b3c:	08000bd7 	stmdaeq	r0, {r0, r1, r2, r4, r6, r7, r8, r9, fp}
 8000b40:	08000bd7 	stmdaeq	r0, {r0, r1, r2, r4, r6, r7, r8, r9, fp}
 8000b44:	08000bd7 	stmdaeq	r0, {r0, r1, r2, r4, r6, r7, r8, r9, fp}
 8000b48:	08000bd7 	stmdaeq	r0, {r0, r1, r2, r4, r6, r7, r8, r9, fp}
 8000b4c:	08000ba7 	stmdaeq	r0, {r0, r1, r2, r5, r7, r8, r9, fp}
 8000b50:	08000bd7 	stmdaeq	r0, {r0, r1, r2, r4, r6, r7, r8, r9, fp}
 8000b54:	08000bd7 	stmdaeq	r0, {r0, r1, r2, r4, r6, r7, r8, r9, fp}
 8000b58:	08000bd7 	stmdaeq	r0, {r0, r1, r2, r4, r6, r7, r8, r9, fp}
 8000b5c:	08000bd7 	stmdaeq	r0, {r0, r1, r2, r4, r6, r7, r8, r9, fp}
 8000b60:	08000bd7 	stmdaeq	r0, {r0, r1, r2, r4, r6, r7, r8, r9, fp}
 8000b64:	08000bd7 	stmdaeq	r0, {r0, r1, r2, r4, r6, r7, r8, r9, fp}
 8000b68:	08000bd7 	stmdaeq	r0, {r0, r1, r2, r4, r6, r7, r8, r9, fp}
 8000b6c:	08000bd7 	stmdaeq	r0, {r0, r1, r2, r4, r6, r7, r8, r9, fp}
 8000b70:	08000bd7 	stmdaeq	r0, {r0, r1, r2, r4, r6, r7, r8, r9, fp}
 8000b74:	08000bd7 	stmdaeq	r0, {r0, r1, r2, r4, r6, r7, r8, r9, fp}
 8000b78:	08000bd7 	stmdaeq	r0, {r0, r1, r2, r4, r6, r7, r8, r9, fp}
 8000b7c:	08000bd7 	stmdaeq	r0, {r0, r1, r2, r4, r6, r7, r8, r9, fp}
 8000b80:	08000bd7 	stmdaeq	r0, {r0, r1, r2, r4, r6, r7, r8, r9, fp}
 8000b84:	08000bd7 	stmdaeq	r0, {r0, r1, r2, r4, r6, r7, r8, r9, fp}
 8000b88:	08000bd7 	stmdaeq	r0, {r0, r1, r2, r4, r6, r7, r8, r9, fp}
 8000b8c:	08000bab 	stmdaeq	r0, {r0, r1, r3, r5, r7, r8, r9, fp}
 8000b90:	2b40      	cmp	r3, #64	; 0x40
 8000b92:	d00c      	beq.n	8000bae <Get_Bit_Location+0x13a>
 8000b94:	e01f      	b.n	8000bd6 <Get_Bit_Location+0x162>
 8000b96:	2300      	movs	r3, #0
 8000b98:	e01e      	b.n	8000bd8 <Get_Bit_Location+0x164>
 8000b9a:	2304      	movs	r3, #4
 8000b9c:	e01c      	b.n	8000bd8 <Get_Bit_Location+0x164>
 8000b9e:	2308      	movs	r3, #8
 8000ba0:	e01a      	b.n	8000bd8 <Get_Bit_Location+0x164>
 8000ba2:	230c      	movs	r3, #12
 8000ba4:	e018      	b.n	8000bd8 <Get_Bit_Location+0x164>
 8000ba6:	2310      	movs	r3, #16
 8000ba8:	e016      	b.n	8000bd8 <Get_Bit_Location+0x164>
 8000baa:	2314      	movs	r3, #20
 8000bac:	e014      	b.n	8000bd8 <Get_Bit_Location+0x164>
 8000bae:	2318      	movs	r3, #24
 8000bb0:	e012      	b.n	8000bd8 <Get_Bit_Location+0x164>
 8000bb2:	231c      	movs	r3, #28
 8000bb4:	e010      	b.n	8000bd8 <Get_Bit_Location+0x164>
 8000bb6:	2300      	movs	r3, #0
 8000bb8:	e00e      	b.n	8000bd8 <Get_Bit_Location+0x164>
 8000bba:	2304      	movs	r3, #4
 8000bbc:	e00c      	b.n	8000bd8 <Get_Bit_Location+0x164>
 8000bbe:	2308      	movs	r3, #8
 8000bc0:	e00a      	b.n	8000bd8 <Get_Bit_Location+0x164>
 8000bc2:	230c      	movs	r3, #12
 8000bc4:	e008      	b.n	8000bd8 <Get_Bit_Location+0x164>
 8000bc6:	2310      	movs	r3, #16
 8000bc8:	e006      	b.n	8000bd8 <Get_Bit_Location+0x164>
 8000bca:	2314      	movs	r3, #20
 8000bcc:	e004      	b.n	8000bd8 <Get_Bit_Location+0x164>
 8000bce:	2318      	movs	r3, #24
 8000bd0:	e002      	b.n	8000bd8 <Get_Bit_Location+0x164>
 8000bd2:	231c      	movs	r3, #28
 8000bd4:	e000      	b.n	8000bd8 <Get_Bit_Location+0x164>
 8000bd6:	2300      	movs	r3, #0
 8000bd8:	4618      	mov	r0, r3
 8000bda:	370c      	adds	r7, #12
 8000bdc:	46bd      	mov	sp, r7
 8000bde:	bc80      	pop	{r7}
 8000be0:	4770      	bx	lr
 8000be2:	bf00      	nop

08000be4 <MCAL_GPIO_Init>:
 8000be4:	b580      	push	{r7, lr}
 8000be6:	b084      	sub	sp, #16
 8000be8:	af00      	add	r7, sp, #0
 8000bea:	6078      	str	r0, [r7, #4]
 8000bec:	6039      	str	r1, [r7, #0]
 8000bee:	2300      	movs	r3, #0
 8000bf0:	60fb      	str	r3, [r7, #12]
 8000bf2:	2300      	movs	r3, #0
 8000bf4:	60bb      	str	r3, [r7, #8]
 8000bf6:	683b      	ldr	r3, [r7, #0]
 8000bf8:	881b      	ldrh	r3, [r3, #0]
 8000bfa:	2bff      	cmp	r3, #255	; 0xff
 8000bfc:	d802      	bhi.n	8000c04 <MCAL_GPIO_Init+0x20>
 8000bfe:	687b      	ldr	r3, [r7, #4]
 8000c00:	60fb      	str	r3, [r7, #12]
 8000c02:	e002      	b.n	8000c0a <MCAL_GPIO_Init+0x26>
 8000c04:	687b      	ldr	r3, [r7, #4]
 8000c06:	3304      	adds	r3, #4
 8000c08:	60fb      	str	r3, [r7, #12]
 8000c0a:	683b      	ldr	r3, [r7, #0]
 8000c0c:	881b      	ldrh	r3, [r3, #0]
 8000c0e:	4618      	mov	r0, r3
 8000c10:	f7ff ff30 	bl	8000a74 <Get_Bit_Location>
 8000c14:	4603      	mov	r3, r0
 8000c16:	461a      	mov	r2, r3
 8000c18:	230f      	movs	r3, #15
 8000c1a:	4093      	lsls	r3, r2
 8000c1c:	43da      	mvns	r2, r3
 8000c1e:	68fb      	ldr	r3, [r7, #12]
 8000c20:	681b      	ldr	r3, [r3, #0]
 8000c22:	401a      	ands	r2, r3
 8000c24:	68fb      	ldr	r3, [r7, #12]
 8000c26:	601a      	str	r2, [r3, #0]
 8000c28:	683b      	ldr	r3, [r7, #0]
 8000c2a:	789b      	ldrb	r3, [r3, #2]
 8000c2c:	2b05      	cmp	r3, #5
 8000c2e:	d00b      	beq.n	8000c48 <MCAL_GPIO_Init+0x64>
 8000c30:	683b      	ldr	r3, [r7, #0]
 8000c32:	789b      	ldrb	r3, [r3, #2]
 8000c34:	2b04      	cmp	r3, #4
 8000c36:	d007      	beq.n	8000c48 <MCAL_GPIO_Init+0x64>
 8000c38:	683b      	ldr	r3, [r7, #0]
 8000c3a:	789b      	ldrb	r3, [r3, #2]
 8000c3c:	2b07      	cmp	r3, #7
 8000c3e:	d003      	beq.n	8000c48 <MCAL_GPIO_Init+0x64>
 8000c40:	683b      	ldr	r3, [r7, #0]
 8000c42:	789b      	ldrb	r3, [r3, #2]
 8000c44:	2b06      	cmp	r3, #6
 8000c46:	d10a      	bne.n	8000c5e <MCAL_GPIO_Init+0x7a>
 8000c48:	683b      	ldr	r3, [r7, #0]
 8000c4a:	789b      	ldrb	r3, [r3, #2]
 8000c4c:	3b04      	subs	r3, #4
 8000c4e:	009b      	lsls	r3, r3, #2
 8000c50:	683a      	ldr	r2, [r7, #0]
 8000c52:	78d2      	ldrb	r2, [r2, #3]
 8000c54:	4313      	orrs	r3, r2
 8000c56:	f003 030f 	and.w	r3, r3, #15
 8000c5a:	60bb      	str	r3, [r7, #8]
 8000c5c:	e02b      	b.n	8000cb6 <MCAL_GPIO_Init+0xd2>
 8000c5e:	683b      	ldr	r3, [r7, #0]
 8000c60:	789b      	ldrb	r3, [r3, #2]
 8000c62:	2b01      	cmp	r3, #1
 8000c64:	d003      	beq.n	8000c6e <MCAL_GPIO_Init+0x8a>
 8000c66:	683b      	ldr	r3, [r7, #0]
 8000c68:	789b      	ldrb	r3, [r3, #2]
 8000c6a:	2b00      	cmp	r3, #0
 8000c6c:	d106      	bne.n	8000c7c <MCAL_GPIO_Init+0x98>
 8000c6e:	683b      	ldr	r3, [r7, #0]
 8000c70:	789b      	ldrb	r3, [r3, #2]
 8000c72:	009b      	lsls	r3, r3, #2
 8000c74:	f003 030f 	and.w	r3, r3, #15
 8000c78:	60bb      	str	r3, [r7, #8]
 8000c7a:	e01c      	b.n	8000cb6 <MCAL_GPIO_Init+0xd2>
 8000c7c:	683b      	ldr	r3, [r7, #0]
 8000c7e:	789b      	ldrb	r3, [r3, #2]
 8000c80:	2b08      	cmp	r3, #8
 8000c82:	d102      	bne.n	8000c8a <MCAL_GPIO_Init+0xa6>
 8000c84:	2304      	movs	r3, #4
 8000c86:	60bb      	str	r3, [r7, #8]
 8000c88:	e015      	b.n	8000cb6 <MCAL_GPIO_Init+0xd2>
 8000c8a:	2308      	movs	r3, #8
 8000c8c:	60bb      	str	r3, [r7, #8]
 8000c8e:	683b      	ldr	r3, [r7, #0]
 8000c90:	789b      	ldrb	r3, [r3, #2]
 8000c92:	2b02      	cmp	r3, #2
 8000c94:	d107      	bne.n	8000ca6 <MCAL_GPIO_Init+0xc2>
 8000c96:	687b      	ldr	r3, [r7, #4]
 8000c98:	68db      	ldr	r3, [r3, #12]
 8000c9a:	683a      	ldr	r2, [r7, #0]
 8000c9c:	8812      	ldrh	r2, [r2, #0]
 8000c9e:	431a      	orrs	r2, r3
 8000ca0:	687b      	ldr	r3, [r7, #4]
 8000ca2:	60da      	str	r2, [r3, #12]
 8000ca4:	e007      	b.n	8000cb6 <MCAL_GPIO_Init+0xd2>
 8000ca6:	687b      	ldr	r3, [r7, #4]
 8000ca8:	68db      	ldr	r3, [r3, #12]
 8000caa:	683a      	ldr	r2, [r7, #0]
 8000cac:	8812      	ldrh	r2, [r2, #0]
 8000cae:	43d2      	mvns	r2, r2
 8000cb0:	401a      	ands	r2, r3
 8000cb2:	687b      	ldr	r3, [r7, #4]
 8000cb4:	60da      	str	r2, [r3, #12]
 8000cb6:	683b      	ldr	r3, [r7, #0]
 8000cb8:	881b      	ldrh	r3, [r3, #0]
 8000cba:	4618      	mov	r0, r3
 8000cbc:	f7ff feda 	bl	8000a74 <Get_Bit_Location>
 8000cc0:	4603      	mov	r3, r0
 8000cc2:	461a      	mov	r2, r3
 8000cc4:	68bb      	ldr	r3, [r7, #8]
 8000cc6:	fa03 f202 	lsl.w	r2, r3, r2
 8000cca:	68fb      	ldr	r3, [r7, #12]
 8000ccc:	681b      	ldr	r3, [r3, #0]
 8000cce:	431a      	orrs	r2, r3
 8000cd0:	68fb      	ldr	r3, [r7, #12]
 8000cd2:	601a      	str	r2, [r3, #0]
 8000cd4:	bf00      	nop
 8000cd6:	3710      	adds	r7, #16
 8000cd8:	46bd      	mov	sp, r7
 8000cda:	bd80      	pop	{r7, pc}

08000cdc <MCAL_GPIO_WritePort>:
 8000cdc:	b480      	push	{r7}
 8000cde:	b083      	sub	sp, #12
 8000ce0:	af00      	add	r7, sp, #0
 8000ce2:	6078      	str	r0, [r7, #4]
 8000ce4:	460b      	mov	r3, r1
 8000ce6:	70fb      	strb	r3, [r7, #3]
 8000ce8:	78fa      	ldrb	r2, [r7, #3]
 8000cea:	687b      	ldr	r3, [r7, #4]
 8000cec:	60da      	str	r2, [r3, #12]
 8000cee:	bf00      	nop
 8000cf0:	370c      	adds	r7, #12
 8000cf2:	46bd      	mov	sp, r7
 8000cf4:	bc80      	pop	{r7}
 8000cf6:	4770      	bx	lr

08000cf8 <MCAL_GPIO_WritePin>:
 8000cf8:	b480      	push	{r7}
 8000cfa:	b083      	sub	sp, #12
 8000cfc:	af00      	add	r7, sp, #0
 8000cfe:	6078      	str	r0, [r7, #4]
 8000d00:	460b      	mov	r3, r1
 8000d02:	807b      	strh	r3, [r7, #2]
 8000d04:	4613      	mov	r3, r2
 8000d06:	707b      	strb	r3, [r7, #1]
 8000d08:	787b      	ldrb	r3, [r7, #1]
 8000d0a:	2b00      	cmp	r3, #0
 8000d0c:	d003      	beq.n	8000d16 <MCAL_GPIO_WritePin+0x1e>
 8000d0e:	887a      	ldrh	r2, [r7, #2]
 8000d10:	687b      	ldr	r3, [r7, #4]
 8000d12:	611a      	str	r2, [r3, #16]
 8000d14:	e002      	b.n	8000d1c <MCAL_GPIO_WritePin+0x24>
 8000d16:	887a      	ldrh	r2, [r7, #2]
 8000d18:	687b      	ldr	r3, [r7, #4]
 8000d1a:	615a      	str	r2, [r3, #20]
 8000d1c:	bf00      	nop
 8000d1e:	370c      	adds	r7, #12
 8000d20:	46bd      	mov	sp, r7
 8000d22:	bc80      	pop	{r7}
 8000d24:	4770      	bx	lr
	...

08000d28 <__libc_init_array>:
 8000d28:	b570      	push	{r4, r5, r6, lr}
 8000d2a:	2600      	movs	r6, #0
 8000d2c:	4d0c      	ldr	r5, [pc, #48]	; (8000d60 <__libc_init_array+0x38>)
 8000d2e:	4c0d      	ldr	r4, [pc, #52]	; (8000d64 <__libc_init_array+0x3c>)
 8000d30:	1b64      	subs	r4, r4, r5
 8000d32:	10a4      	asrs	r4, r4, #2
 8000d34:	42a6      	cmp	r6, r4
 8000d36:	d109      	bne.n	8000d4c <__libc_init_array+0x24>
 8000d38:	f000 f81a 	bl	8000d70 <_init>
 8000d3c:	2600      	movs	r6, #0
 8000d3e:	4d0a      	ldr	r5, [pc, #40]	; (8000d68 <__libc_init_array+0x40>)
 8000d40:	4c0a      	ldr	r4, [pc, #40]	; (8000d6c <__libc_init_array+0x44>)
 8000d42:	1b64      	subs	r4, r4, r5
 8000d44:	10a4      	asrs	r4, r4, #2
 8000d46:	42a6      	cmp	r6, r4
 8000d48:	d105      	bne.n	8000d56 <__libc_init_array+0x2e>
 8000d4a:	bd70      	pop	{r4, r5, r6, pc}
 8000d4c:	f855 3b04 	ldr.w	r3, [r5], #4
 8000d50:	4798      	blx	r3
 8000d52:	3601      	adds	r6, #1
 8000d54:	e7ee      	b.n	8000d34 <__libc_init_array+0xc>
 8000d56:	f855 3b04 	ldr.w	r3, [r5], #4
 8000d5a:	4798      	blx	r3
 8000d5c:	3601      	adds	r6, #1
 8000d5e:	e7f2      	b.n	8000d46 <__libc_init_array+0x1e>
 8000d60:	08000d94 	stmdaeq	r0, {r2, r4, r7, r8, sl, fp}
 8000d64:	08000d94 	stmdaeq	r0, {r2, r4, r7, r8, sl, fp}
 8000d68:	08000d94 	stmdaeq	r0, {r2, r4, r7, r8, sl, fp}
 8000d6c:	08000d98 	stmdaeq	r0, {r3, r4, r7, r8, sl, fp}

08000d70 <_init>:
 8000d70:	b5f8      	push	{r3, r4, r5, r6, r7, lr}
 8000d72:	bf00      	nop
 8000d74:	bcf8      	pop	{r3, r4, r5, r6, r7}
 8000d76:	bc08      	pop	{r3}
 8000d78:	469e      	mov	lr, r3
 8000d7a:	4770      	bx	lr

08000d7c <_fini>:
 8000d7c:	b5f8      	push	{r3, r4, r5, r6, r7, lr}
 8000d7e:	bf00      	nop
 8000d80:	bcf8      	pop	{r3, r4, r5, r6, r7}
 8000d82:	bc08      	pop	{r3}
 8000d84:	469e      	mov	lr, r3
 8000d86:	4770      	bx	lr

Disassembly of section .rodata:

08000d88 <.rodata>:
 8000d88:	00000009 	andeq	r0, r0, r9
 8000d8c:	40010c00 	andmi	r0, r1, r0, lsl #24
 8000d90:	00170200 	andseq	r0, r7, r0, lsl #4

Disassembly of section .init_array:

08000d94 <__frame_dummy_init_array_entry>:
 8000d94:	08000155 	stmdaeq	r0, {r0, r2, r4, r6, r8}

Disassembly of section .fini_array:

08000d98 <__do_global_dtors_aux_fini_array_entry>:
 8000d98:	08000131 	stmdaeq	r0, {r0, r4, r5, r8}

Disassembly of section .bss:

20000000 <__bss_start__>:
20000000:	00000000 	andeq	r0, r0, r0

20000004 <object.0>:
	...

2000001c <PinCfg>:
2000001c:	00000000 	andeq	r0, r0, r0

20000020 <IRQ_flag>:
20000020:	00000000 	andeq	r0, r0, r0

20000024 <Control_Reg_Thread_Mode>:
20000024:	00000000 	andeq	r0, r0, r0

20000028 <IPSR_Handler_Mode>:
20000028:	00000000 	andeq	r0, r0, r0

2000002c <GP_IRQ_callBack>:
	...

Disassembly of section ._user_heap_stack:

20000068 <_end>:
	...

Disassembly of section .ARM.attributes:

00000000 <.ARM.attributes>:
   0:	00002841 	andeq	r2, r0, r1, asr #16
   4:	61656100 	cmnvs	r5, r0, lsl #2
   8:	01006962 	tsteq	r0, r2, ror #18
   c:	0000001e 	andeq	r0, r0, lr, lsl r0
  10:	4d2d3705 	stcmi	7, cr3, [sp, #-20]!	; 0xffffffec
  14:	070a0600 	streq	r0, [sl, -r0, lsl #12]
  18:	1202094d 	andne	r0, r2, #1261568	; 0x134000
  1c:	15011404 	strne	r1, [r1, #-1028]	; 0xfffffbfc
  20:	18031701 	stmdane	r3, {r0, r8, r9, sl, ip}
  24:	22011a01 	andcs	r1, r1, #4096	; 0x1000
  28:	Address 0x0000000000000028 is out of bounds.


Disassembly of section .debug_info:

00000000 <.debug_info>:
       0:	00000438 	andeq	r0, r0, r8, lsr r4
       4:	00000004 	andeq	r0, r0, r4
       8:	01040000 	mrseq	r0, (UNDEF: 4)
       c:	000046e7 	andeq	r4, r0, r7, ror #13
      10:	000c5a0c 	andeq	r5, ip, ip, lsl #20
      14:	0001af00 	andeq	sl, r1, r0, lsl #30
	...
      28:	07040200 	streq	r0, [r4, -r0, lsl #4]
      2c:	00002138 	andeq	r2, r0, r8, lsr r1
      30:	69050403 	stmdbvs	r5, {r0, r1, sl}
      34:	0200746e 	andeq	r7, r0, #1845493760	; 0x6e000000
      38:	50c90508 	sbcpl	r0, r9, r8, lsl #10
      3c:	08020000 	stmdaeq	r2, {}	; <UNPREDICTABLE>
      40:	0003c104 	andeq	ip, r3, r4, lsl #2
      44:	06010200 	streq	r0, [r1], -r0, lsl #4
      48:	00000804 	andeq	r0, r0, r4, lsl #16
      4c:	0012bc04 	andseq	fp, r2, r4, lsl #24
      50:	182b0200 	stmdane	fp!, {r9}
      54:	00000058 	andeq	r0, r0, r8, asr r0
      58:	4e080102 	adfmie	f0, f0, f2
      5c:	02000032 	andeq	r0, r0, #50	; 0x32
      60:	0a810502 	beq	fe041470 <_estack+0xde03c470>
      64:	b3040000 	movwlt	r0, #16384	; 0x4000
      68:	0200002b 	andeq	r0, r0, #43	; 0x2b
      6c:	00721939 	rsbseq	r1, r2, r9, lsr r9
      70:	02020000 	andeq	r0, r2, #0
      74:	0068b207 	rsbeq	fp, r8, r7, lsl #4
      78:	05040200 	streq	r0, [r4, #-512]	; 0xfffffe00
      7c:	00006c07 	andeq	r6, r0, r7, lsl #24
      80:	003fac04 	eorseq	sl, pc, r4, lsl #24
      84:	194f0200 	stmdbne	pc, {r9}^	; <UNPREDICTABLE>
      88:	0000008c 	andeq	r0, r0, ip, lsl #1
      8c:	9b070402 	blls	1c109c <_Min_Stack_Size+0x1c0c9c>
      90:	0200001a 	andeq	r0, r0, #26
      94:	73770708 	cmnvc	r7, #8, 14	; 0x200000
      98:	04050000 	streq	r0, [r5], #-0
      9c:	00000058 	andeq	r0, r0, r8, asr r0
      a0:	00a60405 	adceq	r0, r6, r5, lsl #8
      a4:	01020000 	mrseq	r0, (UNDEF: 2)
      a8:	00080b08 	andeq	r0, r8, r8, lsl #22
      ac:	00a60600 	adceq	r0, r6, r0, lsl #12
      b0:	04050000 	streq	r0, [r5], #-0
      b4:	000000ad 	andeq	r0, r0, sp, lsr #1
      b8:	0012be04 	andseq	fp, r2, r4, lsl #28
      bc:	13180300 	tstne	r8, #0, 6
      c0:	0000004c 	andeq	r0, r0, ip, asr #32
      c4:	002bb504 	eoreq	fp, fp, r4, lsl #10
      c8:	14240300 	strtne	r0, [r4], #-768	; 0xfffffd00
      cc:	00000066 	andeq	r0, r0, r6, rrx
      d0:	003fae04 	eorseq	sl, pc, r4, lsl #28
      d4:	14300300 	ldrtne	r0, [r0], #-768	; 0xfffffd00
      d8:	00000080 	andeq	r0, r0, r0, lsl #1
      dc:	0000d007 	andeq	sp, r0, r7
      e0:	041c0800 	ldreq	r0, [ip], #-2048	; 0xfffff800
      e4:	01460950 	cmpeq	r6, r0, asr r9
      e8:	43090000 	movwmi	r0, #36864	; 0x9000
      ec:	04004c52 	streq	r4, [r0], #-3154	; 0xfffff3ae
      f0:	00dc1452 	sbcseq	r1, ip, r2, asr r4
      f4:	09000000 	stmdbeq	r0, {}	; <UNPREDICTABLE>
      f8:	00485243 	subeq	r5, r8, r3, asr #4
      fc:	dc145304 	ldcle	3, cr5, [r4], {4}
     100:	04000000 	streq	r0, [r0], #-0
     104:	52444909 	subpl	r4, r4, #147456	; 0x24000
     108:	14540400 	ldrbne	r0, [r4], #-1024	; 0xfffffc00
     10c:	000000dc 	ldrdeq	r0, [r0], -ip
     110:	444f0908 	strbmi	r0, [pc], #-2312	; 118 <_Min_Heap_Size-0xe8>
     114:	55040052 	strpl	r0, [r4, #-82]	; 0xffffffae
     118:	0000dc14 	andeq	sp, r0, r4, lsl ip
     11c:	330a0c00 	movwcc	r0, #44032	; 0xac00
     120:	0400007c 	streq	r0, [r0], #-124	; 0xffffff84
     124:	00dc1456 	sbcseq	r1, ip, r6, asr r4
     128:	09100000 	ldmdbeq	r0, {}	; <UNPREDICTABLE>
     12c:	00525242 	subseq	r5, r2, r2, asr #4
     130:	dc145704 	ldcle	7, cr5, [r4], {4}
     134:	14000000 	strne	r0, [r0], #-0
     138:	0043ae0a 	subeq	sl, r3, sl, lsl #28
     13c:	14580400 	ldrbne	r0, [r8], #-1024	; 0xfffffc00
     140:	000000dc 	ldrdeq	r0, [r0], -ip
     144:	df040018 	svcle	0x00040018
     148:	0400000c 	streq	r0, [r0], #-12
     14c:	00e10259 	rsceq	r0, r1, r9, asr r2
     150:	04080000 	streq	r0, [r8], #-0
     154:	83091705 	movwhi	r1, #38661	; 0x9705
     158:	0a000001 	beq	164 <_Min_Heap_Size-0x9c>
     15c:	00000f49 	andeq	r0, r0, r9, asr #30
     160:	c40b1805 	strgt	r1, [fp], #-2053	; 0xfffff7fb
     164:	00000000 	andeq	r0, r0, r0
     168:	001edb0a 	andseq	sp, lr, sl, lsl #22
     16c:	0a1a0500 	beq	681574 <_Min_Stack_Size+0x681174>
     170:	000000b8 	strheq	r0, [r0], -r8
     174:	4f690a02 	svcmi	0x00690a02
     178:	1c050000 	stcne	0, cr0, [r5], {-0}
     17c:	0000b80a 	andeq	fp, r0, sl, lsl #16
     180:	04000300 	streq	r0, [r0], #-768	; 0xfffffd00
     184:	00005b3e 	andeq	r5, r0, lr, lsr fp
     188:	52021e05 	andpl	r1, r2, #5, 28	; 0x50
     18c:	0b000001 	bleq	198 <_Min_Heap_Size-0x68>
     190:	00001eb2 			; <UNDEFINED> instruction: 0x00001eb2
     194:	83130d01 	tsthi	r3, #1, 26	; 0x40
     198:	05000001 	streq	r0, [r0, #-1]
     19c:	00001c03 	andeq	r1, r0, r3, lsl #24
     1a0:	43ef0c20 	mvnmi	r0, #32, 24	; 0x2000
     1a4:	f4060000 	vst4.8	{d0-d3}, [r6], r0
     1a8:	00003005 	andeq	r3, r0, r5
     1ac:	0001bd00 	andeq	fp, r1, r0, lsl #26
     1b0:	00a00d00 	adceq	r0, r0, r0, lsl #26
     1b4:	b20d0000 	andlt	r0, sp, #0
     1b8:	0e000000 	cdpeq	0, 0, cr0, cr0, cr0, {0}
     1bc:	5cac0f00 	stcpl	15, cr0, [ip]
     1c0:	77050000 	strvc	r0, [r5, -r0]
     1c4:	0001d406 	andeq	sp, r1, r6, lsl #8
     1c8:	01d40d00 	bicseq	r0, r4, r0, lsl #26
     1cc:	b80d0000 	stmdalt	sp, {}	; <UNPREDICTABLE>
     1d0:	00000000 	andeq	r0, r0, r0
     1d4:	01460405 	cmpeq	r6, r5, lsl #8
     1d8:	e00f0000 	and	r0, pc, r0
     1dc:	0500002e 	streq	r0, [r0, #-46]	; 0xffffffd2
     1e0:	01f60678 	mvnseq	r0, r8, ror r6
     1e4:	d40d0000 	strle	r0, [sp], #-0
     1e8:	0d000001 	stceq	0, cr0, [r0, #-4]
     1ec:	000000c4 	andeq	r0, r0, r4, asr #1
     1f0:	0000b80d 	andeq	fp, r0, sp, lsl #16
     1f4:	850f0000 	strhi	r0, [pc, #-0]	; 1fc <_Min_Heap_Size-0x4>
     1f8:	05000000 	streq	r0, [r0, #-0]
     1fc:	020d066f 	andeq	r0, sp, #116391936	; 0x6f00000
     200:	d40d0000 	strle	r0, [sp], #-0
     204:	0d000001 	stceq	0, cr0, [r0, #-4]
     208:	0000020d 	andeq	r0, r0, sp, lsl #4
     20c:	83040500 	movwhi	r0, #17664	; 0x4500
     210:	10000001 	andne	r0, r0, r1
     214:	00004942 	andeq	r4, r0, r2, asr #18
     218:	0006d401 	andeq	sp, r6, r1, lsl #8
     21c:	8c000000 	stchi	0, cr0, [r0], {-0}
     220:	01000000 	mrseq	r0, (UNDEF: 0)
     224:	0002939c 	muleq	r2, ip, r3
     228:	43721100 	cmnmi	r2, #0, 2
     22c:	d4010000 	strle	r0, [r1], #-0
     230:	00029321 	andeq	r9, r2, r1, lsr #6
     234:	4c910200 	lfmmi	f0, 4, [r1], {0}
     238:	72747312 	rsbsvc	r7, r4, #1207959552	; 0x48000000
     23c:	08d60100 	ldmeq	r6, {r8}^
     240:	0000029a 	muleq	r0, sl, r2
     244:	13549102 	cmpne	r4, #-2147483648	; 0x80000000
     248:	00000ff0 	strdeq	r0, [r0], -r0	; <UNPREDICTABLE>
     24c:	a009d701 	andge	sp, r9, r1, lsl #14
     250:	02000000 	andeq	r0, r0, #0
     254:	a7137491 			; <UNDEFINED> instruction: 0xa7137491
     258:	0100008c 	smlabbeq	r0, ip, r0, r0
     25c:	029309d8 	addseq	r0, r3, #216, 18	; 0x360000
     260:	91020000 	mrsls	r0, (UNDEF: 2)
     264:	43c81370 	bicmi	r1, r8, #112, 6	; 0xc0000001
     268:	da010000 	ble	40270 <_Min_Stack_Size+0x3fe70>
     26c:	00003007 	andeq	r3, r0, r7
     270:	6c910200 	lfmvs	f0, 4, [r1], {0}
     274:	00163f13 	andseq	r3, r6, r3, lsl pc
     278:	09db0100 	ldmibeq	fp, {r8}^
     27c:	00000293 	muleq	r0, r3, r2
     280:	13689102 	cmnne	r8, #-2147483648	; 0x80000000
     284:	00006498 	muleq	r0, r8, r4
     288:	3007dc01 	andcc	sp, r7, r1, lsl #24
     28c:	02000000 	andeq	r0, r0, #0
     290:	02006491 	andeq	r6, r0, #-1862270976	; 0x91000000
     294:	848c0404 	strhi	r0, [ip], #1028	; 0x404
     298:	a6140000 	ldrge	r0, [r4], -r0
     29c:	aa000000 	bge	2a4 <_Min_Heap_Size+0xa4>
     2a0:	15000002 	strne	r0, [r0, #-2]
     2a4:	00000029 	andeq	r0, r0, r9, lsr #32
     2a8:	6910000f 	ldmdbvs	r0, {r0, r1, r2, r3}
     2ac:	01000043 	tsteq	r0, r3, asr #32
     2b0:	000006cd 	andeq	r0, r0, sp, asr #13
     2b4:	002c0000 	eoreq	r0, ip, r0
     2b8:	9c010000 	stcls	0, cr0, [r1], {-0}
     2bc:	000002df 	ldrdeq	r0, [r0], -pc	; <UNPREDICTABLE>
     2c0:	00437211 	subeq	r7, r3, r1, lsl r2
     2c4:	1acd0100 	bne	ff3406cc <_estack+0xdf33b6cc>
     2c8:	00000030 	andeq	r0, r0, r0, lsr r0
     2cc:	126c9102 	rsbne	r9, ip, #-2147483648	; 0x80000000
     2d0:	00727473 	rsbseq	r7, r2, r3, ror r4
     2d4:	df07cf01 	svcle	0x0007cf01
     2d8:	02000002 	andeq	r0, r0, #2
     2dc:	14007091 	strne	r7, [r0], #-145	; 0xffffff6f
     2e0:	000000a6 	andeq	r0, r0, r6, lsr #1
     2e4:	000002ef 	andeq	r0, r0, pc, ror #5
     2e8:	00002915 	andeq	r2, r0, r5, lsl r9
     2ec:	16000600 	strne	r0, [r0], -r0, lsl #12
     2f0:	000002e4 	andeq	r0, r0, r4, ror #5
     2f4:	a806c901 	stmdage	r6, {r0, r8, fp, lr, pc}
     2f8:	0e080003 	cdpeq	0, 0, cr0, cr8, cr3, {0}
     2fc:	01000000 	mrseq	r0, (UNDEF: 0)
     300:	62eb109c 	rscvs	r1, fp, #156	; 0x9c
     304:	bc010000 	stclt	0, cr0, [r1], {-0}
     308:	00000006 	andeq	r0, r0, r6
     30c:	00004a00 	andeq	r4, r0, r0, lsl #20
     310:	369c0100 	ldrcc	r0, [ip], r0, lsl #2
     314:	11000003 	tstne	r0, r3
     318:	00009771 	andeq	r9, r0, r1, ror r7
     31c:	5825bc01 	stmdapl	r5!, {r0, sl, fp, ip, sp, pc}
     320:	02000000 	andeq	r0, r0, #0
     324:	70177791 	mulsvc	r7, r1, r7
     328:	0100736f 	tsteq	r0, pc, ror #6
     32c:	005839bc 	ldrheq	r3, [r8], #-156	; 0xffffff64
     330:	91020000 	mrsls	r0, (UNDEF: 2)
     334:	c9100076 	ldmdbgt	r0, {r1, r2, r4, r5, r6}
     338:	01000055 	qaddeq	r0, r5, r0
     33c:	000006ab 	andeq	r0, r0, fp, lsr #13
     340:	005a0000 	subseq	r0, sl, r0
     344:	9c010000 	stcls	0, cr0, [r1], {-0}
     348:	0000036b 	andeq	r0, r0, fp, ror #6
     34c:	004aa911 	subeq	sl, sl, r1, lsl r9
     350:	25ab0100 	strcs	r0, [fp, #256]!	; 0x100
     354:	0000009a 	muleq	r0, sl, r0
     358:	136c9102 	cmnne	ip, #-2147483648	; 0x80000000
     35c:	00005443 	andeq	r5, r0, r3, asr #8
     360:	3006ad01 	andcc	sl, r6, r1, lsl #26
     364:	02000000 	andeq	r0, r0, #0
     368:	10007491 	mulne	r0, r1, r4
     36c:	000074ea 	andeq	r7, r0, sl, ror #9
     370:	0006a201 	andeq	sl, r6, r1, lsl #4
     374:	44000000 	strmi	r0, [r0], #-0
     378:	01000000 	mrseq	r0, (UNDEF: 0)
     37c:	0003919c 	muleq	r3, ip, r1
     380:	4aa91100 	bmi	fea44788 <_estack+0xdea3f788>
     384:	a2010000 	andge	r0, r1, #0
     388:	00005822 	andeq	r5, r0, r2, lsr #16
     38c:	77910200 	ldrvc	r0, [r1, r0, lsl #4]
     390:	62fc1600 	rscsvs	r1, ip, #0, 12
     394:	96010000 	strls	r0, [r1], -r0
     398:	00037406 	andeq	r7, r3, r6, lsl #8
     39c:	00003408 	andeq	r3, r0, r8, lsl #8
     3a0:	109c0100 	addsne	r0, ip, r0, lsl #2
     3a4:	00007dfe 	strdeq	r7, [r0], -lr
     3a8:	30068e01 	andcc	r8, r6, r1, lsl #28
     3ac:	44080003 	strmi	r0, [r8], #-3
     3b0:	01000000 	mrseq	r0, (UNDEF: 0)
     3b4:	0003c99c 	muleq	r3, ip, r9
     3b8:	7e071100 	adfvcs	f1, f7, f0
     3bc:	8e010000 	cdphi	0, 0, cr0, cr1, cr0, {0}
     3c0:	00005825 	andeq	r5, r0, r5, lsr #16
     3c4:	77910200 	ldrvc	r0, [r1, r0, lsl #4]
     3c8:	7c4e1600 	mcrrvc	6, 0, r1, lr, cr0
     3cc:	87010000 	strhi	r0, [r1, -r0]
     3d0:	00030406 	andeq	r0, r3, r6, lsl #8
     3d4:	00002c08 	andeq	r2, r0, r8, lsl #24
     3d8:	169c0100 	ldrne	r0, [ip], r0, lsl #2
     3dc:	00002538 	andeq	r2, r0, r8, lsr r5
     3e0:	00065901 	andeq	r5, r6, r1, lsl #18
     3e4:	d8000000 	stmdale	r0, {}	; <UNPREDICTABLE>
     3e8:	01000000 	mrseq	r0, (UNDEF: 0)
     3ec:	4864189c 	stmdami	r4!, {r2, r3, r4, r7, fp, ip}^
     3f0:	17010000 	strne	r0, [r1, -r0]
     3f4:	0001ac06 	andeq	sl, r1, r6, lsl #24
     3f8:	00015808 	andeq	r5, r1, r8, lsl #16
     3fc:	199c0100 	ldmibne	ip, {r8}
     400:	00008a80 	andeq	r8, r0, r0, lsl #21
     404:	700d0e01 	andvc	r0, sp, r1, lsl #28
     408:	3a080001 	bcc	200414 <_Min_Stack_Size+0x200014>
     40c:	01000000 	mrseq	r0, (UNDEF: 0)
     410:	1036119c 	mlasne	r6, ip, r1, r1
     414:	0e010000 	cdpeq	0, 0, cr0, cr1, cr0, {0}
     418:	0000d01f 	andeq	sp, r0, pc, lsl r0
     41c:	6c910200 	lfmvs	f0, 4, [r1], {0}
     420:	01006912 	tsteq	r0, r2, lsl r9
     424:	00d00b10 	sbcseq	r0, r0, r0, lsl fp
     428:	91020000 	mrsls	r0, (UNDEF: 2)
     42c:	006a1274 	rsbeq	r1, sl, r4, ror r2
     430:	d00e1001 	andle	r1, lr, r1
     434:	02000000 	andeq	r0, r0, #0
     438:	00007091 	muleq	r0, r1, r0
     43c:	00000340 	andeq	r0, r0, r0, asr #6
     440:	018b0004 	orreq	r0, fp, r4
     444:	01040000 	mrseq	r0, (UNDEF: 4)
     448:	000046e7 	andeq	r4, r0, r7, ror #13
     44c:	0093c30c 	addseq	ip, r3, ip, lsl #6
     450:	0001af00 	andeq	sl, r1, r0, lsl #30
     454:	00006800 	andeq	r6, r0, r0, lsl #16
     458:	00000000 	andeq	r0, r0, r0
     45c:	0008e800 	andeq	lr, r8, r0, lsl #16
     460:	00215300 	eoreq	r5, r1, r0, lsl #6
     464:	07040200 	streq	r0, [r4, -r0, lsl #4]
     468:	00002138 	andeq	r2, r0, r8, lsr r1
     46c:	69050403 	stmdbvs	r5, {r0, r1, sl}
     470:	0200746e 	andeq	r7, r0, #1845493760	; 0x6e000000
     474:	50c90508 	sbcpl	r0, r9, r8, lsl #10
     478:	08020000 	stmdaeq	r2, {}	; <UNPREDICTABLE>
     47c:	0003c104 	andeq	ip, r3, r4, lsl #2
     480:	06010200 	streq	r0, [r1], -r0, lsl #4
     484:	00000804 	andeq	r0, r0, r4, lsl #16
     488:	0012bc04 	andseq	fp, r2, r4, lsl #24
     48c:	182b0200 	stmdane	fp!, {r9}
     490:	00000058 	andeq	r0, r0, r8, asr r0
     494:	4e080102 	adfmie	f0, f0, f2
     498:	02000032 	andeq	r0, r0, #50	; 0x32
     49c:	0a810502 	beq	fe0418ac <_estack+0xde03c8ac>
     4a0:	b3040000 	movwlt	r0, #16384	; 0x4000
     4a4:	0200002b 	andeq	r0, r0, #43	; 0x2b
     4a8:	00721939 	rsbseq	r1, r2, r9, lsr r9
     4ac:	02020000 	andeq	r0, r2, #0
     4b0:	0068b207 	rsbeq	fp, r8, r7, lsl #4
     4b4:	05040200 	streq	r0, [r4, #-512]	; 0xfffffe00
     4b8:	00006c07 	andeq	r6, r0, r7, lsl #24
     4bc:	003fac04 	eorseq	sl, pc, r4, lsl #24
     4c0:	194f0200 	stmdbne	pc, {r9}^	; <UNPREDICTABLE>
     4c4:	0000008c 	andeq	r0, r0, ip, lsl #1
     4c8:	9b070402 	blls	1c14d8 <_Min_Stack_Size+0x1c10d8>
     4cc:	0200001a 	andeq	r0, r0, #26
     4d0:	73770708 	cmnvc	r7, #8, 14	; 0x200000
     4d4:	04050000 	streq	r0, [r5], #-0
     4d8:	000000a0 	andeq	r0, r0, r0, lsr #1
     4dc:	08010206 	stmdaeq	r1, {r1, r2, r9}
     4e0:	0000080b 	andeq	r0, r0, fp, lsl #16
     4e4:	0012be04 	andseq	fp, r2, r4, lsl #28
     4e8:	13180300 	tstne	r8, #0, 6
     4ec:	0000004c 	andeq	r0, r0, ip, asr #32
     4f0:	002bb504 	eoreq	fp, fp, r4, lsl #10
     4f4:	14240300 	strtne	r0, [r4], #-768	; 0xfffffd00
     4f8:	00000066 	andeq	r0, r0, r6, rrx
     4fc:	003fae04 	eorseq	sl, pc, r4, lsl #28
     500:	14300300 	ldrtne	r0, [r0], #-768	; 0xfffffd00
     504:	00000080 	andeq	r0, r0, r0, lsl #1
     508:	0000c007 	andeq	ip, r0, r7
     50c:	041c0800 	ldreq	r0, [ip], #-2048	; 0xfffff800
     510:	01360950 	teqeq	r6, r0, asr r9
     514:	43090000 	movwmi	r0, #36864	; 0x9000
     518:	04004c52 	streq	r4, [r0], #-3154	; 0xfffff3ae
     51c:	00cc1452 	sbceq	r1, ip, r2, asr r4
     520:	09000000 	stmdbeq	r0, {}	; <UNPREDICTABLE>
     524:	00485243 	subeq	r5, r8, r3, asr #4
     528:	cc145304 	ldcgt	3, cr5, [r4], {4}
     52c:	04000000 	streq	r0, [r0], #-0
     530:	52444909 	subpl	r4, r4, #147456	; 0x24000
     534:	14540400 	ldrbne	r0, [r4], #-1024	; 0xfffffc00
     538:	000000cc 	andeq	r0, r0, ip, asr #1
     53c:	444f0908 	strbmi	r0, [pc], #-2312	; 544 <_Min_Stack_Size+0x144>
     540:	55040052 	strpl	r0, [r4, #-82]	; 0xffffffae
     544:	0000cc14 	andeq	ip, r0, r4, lsl ip
     548:	330a0c00 	movwcc	r0, #44032	; 0xac00
     54c:	0400007c 	streq	r0, [r0], #-124	; 0xffffff84
     550:	00cc1456 	sbceq	r1, ip, r6, asr r4
     554:	09100000 	ldmdbeq	r0, {}	; <UNPREDICTABLE>
     558:	00525242 	subseq	r5, r2, r2, asr #4
     55c:	cc145704 	ldcgt	7, cr5, [r4], {4}
     560:	14000000 	strne	r0, [r0], #-0
     564:	0043ae0a 	subeq	sl, r3, sl, lsl #28
     568:	14580400 	ldrbne	r0, [r8], #-1024	; 0xfffffc00
     56c:	000000cc 	andeq	r0, r0, ip, asr #1
     570:	df040018 	svcle	0x00040018
     574:	0400000c 	streq	r0, [r0], #-12
     578:	00d10259 	sbcseq	r0, r1, r9, asr r2
     57c:	28080000 	stmdacs	r8, {}	; <UNPREDICTABLE>
     580:	cd097b04 	vstrgt	d7, [r9, #-16]
     584:	09000001 	stmdbeq	r0, {r0}
     588:	04005243 	streq	r5, [r0], #-579	; 0xfffffdbd
     58c:	00cc147d 	sbceq	r1, ip, sp, ror r4
     590:	0a000000 	beq	598 <_Min_Stack_Size+0x198>
     594:	00009474 	andeq	r9, r0, r4, ror r4
     598:	cc147e04 	ldcgt	14, cr7, [r4], {4}
     59c:	04000000 	streq	r0, [r0], #-0
     5a0:	52494309 	subpl	r4, r9, #603979776	; 0x24000000
     5a4:	147f0400 	ldrbtne	r0, [pc], #-1024	; 5ac <_Min_Stack_Size+0x1ac>
     5a8:	000000cc 	andeq	r0, r0, ip, asr #1
     5ac:	966a0a08 	strbtls	r0, [sl], -r8, lsl #20
     5b0:	80040000 	andhi	r0, r4, r0
     5b4:	0000cc14 	andeq	ip, r0, r4, lsl ip
     5b8:	c80a0c00 	stmdagt	sl, {sl, fp}
     5bc:	0400009a 	streq	r0, [r0], #-154	; 0xffffff66
     5c0:	00cc1481 	sbceq	r1, ip, r1, lsl #9
     5c4:	0a100000 	beq	4005cc <_Min_Stack_Size+0x4001cc>
     5c8:	00009d99 	muleq	r0, r9, sp
     5cc:	cc148204 	lfmgt	f0, 1, [r4], {4}
     5d0:	14000000 	strne	r0, [r0], #-0
     5d4:	00907d0a 	addseq	r7, r0, sl, lsl #26
     5d8:	14830400 	strne	r0, [r3], #1024	; 0x400
     5dc:	000000cc 	andeq	r0, r0, ip, asr #1
     5e0:	9ad10a18 	bls	ff442e48 <_estack+0xdf43de48>
     5e4:	84040000 	strhi	r0, [r4], #-0
     5e8:	0000cc14 	andeq	ip, r0, r4, lsl ip
     5ec:	dd0a1c00 	stcle	12, cr1, [sl, #-0]
     5f0:	04000093 	streq	r0, [r0], #-147	; 0xffffff6d
     5f4:	00cc1485 	sbceq	r1, ip, r5, lsl #9
     5f8:	09200000 	stmdbeq	r0!, {}	; <UNPREDICTABLE>
     5fc:	00525343 	subseq	r5, r2, r3, asr #6
     600:	cc148604 	ldcgt	6, cr8, [r4], {4}
     604:	24000000 	strcs	r0, [r0], #-0
     608:	94ba0400 	ldrtls	r0, [sl], #1024	; 0x400
     60c:	88040000 	stmdahi	r4, {}	; <UNPREDICTABLE>
     610:	00014202 	andeq	r4, r1, r2, lsl #4
     614:	050c0800 	streq	r0, [ip, #-2048]	; 0xfffff800
     618:	02170916 	andseq	r0, r7, #360448	; 0x58000
     61c:	620a0000 	andvs	r0, sl, #0
     620:	05000097 	streq	r0, [r0, #-151]	; 0xffffff69
     624:	00a80a17 	adceq	r0, r8, r7, lsl sl
     628:	0a000000 	beq	630 <_Min_Stack_Size+0x230>
     62c:	00009b5b 	andeq	r9, r0, fp, asr fp
     630:	170a1805 	strne	r1, [sl, -r5, lsl #16]
     634:	04000002 	streq	r0, [r0], #-2
     638:	0091950a 	addseq	r9, r1, sl, lsl #10
     63c:	0b190500 	bleq	641a44 <_Min_Stack_Size+0x641644>
     640:	000000b4 	strheq	r0, [r0], -r4
     644:	8dcb0a08 	vstrhi	s1, [fp, #32]
     648:	1a050000 	bne	140650 <_Min_Stack_Size+0x140250>
     64c:	0000a80a 	andeq	sl, r0, sl, lsl #16
     650:	05000a00 	streq	r0, [r0, #-2560]	; 0xfffff600
     654:	00013604 	andeq	r3, r1, r4, lsl #12
     658:	95060400 	strls	r0, [r6, #-1024]	; 0xfffffc00
     65c:	1b050000 	blne	140664 <_Min_Stack_Size+0x140264>
     660:	0001d902 	andeq	sp, r1, r2, lsl #18
     664:	05140800 	ldreq	r0, [r4, #-2048]	; 0xfffff800
     668:	0267091d 	rsbeq	r0, r7, #475136	; 0x74000
     66c:	730a0000 	movwvc	r0, #40960	; 0xa000
     670:	05000096 	streq	r0, [r0, #-150]	; 0xffffff6a
     674:	021d151e 	andseq	r1, sp, #125829120	; 0x7800000
     678:	0a000000 	beq	680 <_Min_Stack_Size+0x280>
     67c:	00008dea 	andeq	r8, r0, sl, ror #27
     680:	a80d2005 	stmdage	sp, {r0, r2, sp}
     684:	0c000000 	stceq	0, cr0, [r0], {-0}
     688:	009b650a 	addseq	r6, fp, sl, lsl #10
     68c:	0d220500 	cfstr32eq	mvfx0, [r2, #-0]
     690:	000000a8 	andeq	r0, r0, r8, lsr #1
     694:	93d10a0d 	bicsls	r0, r1, #53248	; 0xd000
     698:	24050000 	strcs	r0, [r5], #-0
     69c:	00009a08 	andeq	r9, r0, r8, lsl #20
     6a0:	04001000 	streq	r1, [r0], #-0
     6a4:	00008f17 	andeq	r8, r0, r7, lsl pc
     6a8:	29022605 	stmdbcs	r2, {r0, r2, r9, sl, sp}
     6ac:	0b000002 	bleq	6bc <_Min_Stack_Size+0x2bc>
     6b0:	00009f8c 	andeq	r9, r0, ip, lsl #31
     6b4:	c00a1e01 	andgt	r1, sl, r1, lsl #28
     6b8:	05000000 	streq	r0, [r0, #-0]
     6bc:	00002003 	andeq	r2, r0, r3
     6c0:	955e0b20 	ldrbls	r0, [lr, #-2848]	; 0xfffff4e0
     6c4:	1f010000 	svcne	0x00010000
     6c8:	00003005 	andeq	r3, r0, r5
     6cc:	24030500 	strcs	r0, [r3], #-1280	; 0xfffffb00
     6d0:	0b200000 	bleq	8006d8 <_Min_Stack_Size+0x8002d8>
     6d4:	0000919e 	muleq	r0, lr, r1
     6d8:	30052001 	andcc	r2, r5, r1
     6dc:	05000000 	streq	r0, [r0, #-0]
     6e0:	00002803 	andeq	r2, r0, r3, lsl #16
     6e4:	8f320b20 	svchi	0x00320b20
     6e8:	2c010000 	stccs	0, cr0, [r1], {-0}
     6ec:	00003005 	andeq	r3, r0, r5
     6f0:	00030500 	andeq	r0, r3, r0, lsl #10
     6f4:	0b000000 	bleq	6fc <_Min_Stack_Size+0x2fc>
     6f8:	00008f37 	andeq	r8, r0, r7, lsr pc
     6fc:	30052d01 	andcc	r2, r5, r1, lsl #26
     700:	05000000 	streq	r0, [r0, #-0]
     704:	00000003 	andeq	r0, r0, r3
     708:	8f3c0b00 	svchi	0x003c0b00
     70c:	2e010000 	cdpcs	0, 0, cr0, cr1, cr0, {0}
     710:	00003005 	andeq	r3, r0, r5
     714:	00030500 	andeq	r0, r3, r0, lsl #10
     718:	0c000000 	stceq	0, cr0, [r0], {-0}
     71c:	000002e4 	andeq	r0, r0, r4, ror #5
     720:	0d064906 	vstreq.16	s8, [r6, #-12]	; <UNPREDICTABLE>
     724:	00009085 	andeq	r9, r0, r5, lsl #1
     728:	f906c305 			; <UNDEFINED> instruction: 0xf906c305
     72c:	0e000002 	cdpeq	0, 0, cr0, cr0, cr2, {0}
     730:	000002f9 	strdeq	r0, [r0], -r9
     734:	67040500 	strvs	r0, [r4, -r0, lsl #10]
     738:	0c000002 	stceq	0, cr0, [r0], {2}
     73c:	000062fc 	strdeq	r6, [r0], -ip
     740:	0f064506 	svceq	0x00064506
     744:	00008ff2 	strdeq	r8, [r0], -r2
     748:	30052f01 	andcc	r2, r5, r1, lsl #30
     74c:	e8000000 	stmda	r0, {}	; <UNPREDICTABLE>
     750:	88080003 	stmdahi	r8, {r0, r1}
     754:	01000000 	mrseq	r0, (UNDEF: 0)
     758:	0003319c 	muleq	r3, ip, r1
     75c:	8f291000 	svchi	0x00291000
     760:	35010000 	strcc	r0, [r1, #-0]
     764:	00026714 	andeq	r6, r2, r4, lsl r7
     768:	64910200 	ldrvs	r0, [r1], #512	; 0x200
     76c:	95911100 	ldrls	r1, [r1, #256]	; 0x100
     770:	23010000 	movwcs	r0, #4096	; 0x1000
     774:	0003b806 	andeq	fp, r3, r6, lsl #16
     778:	00003008 	andeq	r3, r0, r8
     77c:	009c0100 	addseq	r0, ip, r0, lsl #2
     780:	0000001e 	andeq	r0, r0, lr, lsl r0
     784:	029a0002 	addseq	r0, sl, #2
     788:	01040000 	mrseq	r0, (UNDEF: 4)
     78c:	00000f8e 	andeq	r0, r0, lr, lsl #31
     790:	00000080 	andeq	r0, r0, r0, lsl #1
     794:	0000a027 	andeq	sl, r0, r7, lsr #32
     798:	000001af 	andeq	r0, r0, pc, lsr #3
     79c:	0000a04a 	andeq	sl, r0, sl, asr #32
     7a0:	04a48001 	strteq	r8, [r4], #1
     7a4:	00040000 	andeq	r0, r4, r0
     7a8:	000002ac 	andeq	r0, r0, ip, lsr #5
     7ac:	46e70104 	strbtmi	r0, [r7], r4, lsl #2
     7b0:	120c0000 	andne	r0, ip, #0
     7b4:	af0000a1 	svcge	0x000000a1
     7b8:	a0000001 	andge	r0, r0, r1
     7bc:	00000000 	andeq	r0, r0, r0
     7c0:	12000000 	andne	r0, r0, #0
     7c4:	d7000010 	smladle	r0, r0, r0, r0
     7c8:	02000025 	andeq	r0, r0, #37	; 0x25
     7cc:	21380704 	teqcs	r8, r4, lsl #14
     7d0:	04030000 	streq	r0, [r3], #-0
     7d4:	746e6905 	strbtvc	r6, [lr], #-2309	; 0xfffff6fb
     7d8:	05080200 	streq	r0, [r8, #-512]	; 0xfffffe00
     7dc:	000050c9 	andeq	r5, r0, r9, asr #1
     7e0:	c1040802 	tstgt	r4, r2, lsl #16
     7e4:	02000003 	andeq	r0, r0, #3
     7e8:	08040601 	stmdaeq	r4, {r0, r9, sl}
     7ec:	bc040000 	stclt	0, cr0, [r4], {-0}
     7f0:	02000012 	andeq	r0, r0, #18
     7f4:	0058182b 	subseq	r1, r8, fp, lsr #16
     7f8:	01020000 	mrseq	r0, (UNDEF: 2)
     7fc:	00324e08 	eorseq	r4, r2, r8, lsl #28
     800:	05020200 	streq	r0, [r2, #-512]	; 0xfffffe00
     804:	00000a81 	andeq	r0, r0, r1, lsl #21
     808:	002bb304 	eoreq	fp, fp, r4, lsl #6
     80c:	19390200 	ldmdbne	r9!, {r9}
     810:	00000072 	andeq	r0, r0, r2, ror r0
     814:	b2070202 	andlt	r0, r7, #536870912	; 0x20000000
     818:	02000068 	andeq	r0, r0, #104	; 0x68
     81c:	6c070504 	cfstr32vs	mvfx0, [r7], {4}
     820:	ac040000 	stcge	0, cr0, [r4], {-0}
     824:	0200003f 	andeq	r0, r0, #63	; 0x3f
     828:	008c194f 	addeq	r1, ip, pc, asr #18
     82c:	04020000 	streq	r0, [r2], #-0
     830:	001a9b07 	andseq	r9, sl, r7, lsl #22
     834:	07080200 	streq	r0, [r8, -r0, lsl #4]
     838:	00007377 	andeq	r7, r0, r7, ror r3
     83c:	00a00405 	adceq	r0, r0, r5, lsl #8
     840:	02060000 	andeq	r0, r6, #0
     844:	080b0801 	stmdaeq	fp, {r0, fp}
     848:	be040000 	cdplt	0, 0, cr0, cr4, cr0, {0}
     84c:	03000012 	movweq	r0, #18
     850:	004c1318 	subeq	r1, ip, r8, lsl r3
     854:	b5040000 	strlt	r0, [r4, #-0]
     858:	0300002b 	movweq	r0, #43	; 0x2b
     85c:	00661424 	rsbeq	r1, r6, r4, lsr #8
     860:	ae040000 	cdpge	0, 0, cr0, cr4, cr0, {0}
     864:	0300003f 	movweq	r0, #63	; 0x3f
     868:	00801430 	addeq	r1, r0, r0, lsr r4
     86c:	c0070000 	andgt	r0, r7, r0
     870:	08000000 	stmdaeq	r0, {}	; <UNPREDICTABLE>
     874:	0950041c 	ldmdbeq	r0, {r2, r3, r4, sl}^
     878:	00000136 	andeq	r0, r0, r6, lsr r1
     87c:	4c524309 	mrrcmi	3, 0, r4, r2, cr9
     880:	14520400 	ldrbne	r0, [r2], #-1024	; 0xfffffc00
     884:	000000cc 	andeq	r0, r0, ip, asr #1
     888:	52430900 	subpl	r0, r3, #0, 18
     88c:	53040048 	movwpl	r0, #16456	; 0x4048
     890:	0000cc14 	andeq	ip, r0, r4, lsl ip
     894:	49090400 	stmdbmi	r9, {sl}
     898:	04005244 	streq	r5, [r0], #-580	; 0xfffffdbc
     89c:	00cc1454 	sbceq	r1, ip, r4, asr r4
     8a0:	09080000 	stmdbeq	r8, {}	; <UNPREDICTABLE>
     8a4:	0052444f 	subseq	r4, r2, pc, asr #8
     8a8:	cc145504 	cfldr32gt	mvfx5, [r4], {4}
     8ac:	0c000000 	stceq	0, cr0, [r0], {-0}
     8b0:	007c330a 	rsbseq	r3, ip, sl, lsl #6
     8b4:	14560400 	ldrbne	r0, [r6], #-1024	; 0xfffffc00
     8b8:	000000cc 	andeq	r0, r0, ip, asr #1
     8bc:	52420910 	subpl	r0, r2, #16, 18	; 0x40000
     8c0:	57040052 	smlsdpl	r4, r2, r0, r0
     8c4:	0000cc14 	andeq	ip, r0, r4, lsl ip
     8c8:	ae0a1400 	cfcpysge	mvf1, mvf10
     8cc:	04000043 	streq	r0, [r0], #-67	; 0xffffffbd
     8d0:	00cc1458 	sbceq	r1, ip, r8, asr r4
     8d4:	00180000 	andseq	r0, r8, r0
     8d8:	000cdf04 	andeq	sp, ip, r4, lsl #30
     8dc:	02590400 	subseq	r0, r9, #0, 8
     8e0:	000000d1 	ldrdeq	r0, [r0], -r1
     8e4:	5f042008 	svcpl	0x00042008
     8e8:	00018d09 	andeq	r8, r1, r9, lsl #26
     8ec:	a1c10a00 	bicge	r0, r1, r0, lsl #20
     8f0:	61040000 	mrsvs	r0, (UNDEF: 4)
     8f4:	0000cc14 	andeq	ip, r0, r4, lsl ip
     8f8:	580a0000 	stmdapl	sl, {}	; <UNPREDICTABLE>
     8fc:	040000a1 	streq	r0, [r0], #-161	; 0xffffff5f
     900:	00cc1462 	sbceq	r1, ip, r2, ror #8
     904:	0a040000 	beq	10090c <_Min_Stack_Size+0x10050c>
     908:	0000a058 	andeq	sl, r0, r8, asr r0
     90c:	9d146304 	ldcls	3, cr6, [r4, #-16]
     910:	08000001 	stmdaeq	r0, {r0}
     914:	00a0da0a 	adceq	sp, r0, sl, lsl #20
     918:	0b640400 	bleq	1901920 <_Min_Stack_Size+0x1901520>
     91c:	000000c0 	andeq	r0, r0, r0, asr #1
     920:	a10c0a18 	tstge	ip, r8, lsl sl
     924:	65040000 	strvs	r0, [r4, #-0]
     928:	0000cc14 	andeq	ip, r0, r4, lsl ip
     92c:	0b001c00 	bleq	7934 <_Min_Stack_Size+0x7534>
     930:	000000cc 	andeq	r0, r0, ip, asr #1
     934:	0000019d 	muleq	r0, sp, r1
     938:	0000290c 	andeq	r2, r0, ip, lsl #18
     93c:	07000300 	streq	r0, [r0, -r0, lsl #6]
     940:	0000018d 	andeq	r0, r0, sp, lsl #3
     944:	00a10504 	adceq	r0, r1, r4, lsl #10
     948:	02670400 	rsbeq	r0, r7, #0, 8
     94c:	00000142 	andeq	r0, r0, r2, asr #2
     950:	6d041808 	stcvs	8, cr1, [r4, #-32]	; 0xffffffe0
     954:	00020509 	andeq	r0, r2, r9, lsl #10
     958:	4d490900 	vstrmi.16	s1, [r9, #-0]	; <UNPREDICTABLE>
     95c:	6f040052 	svcvs	0x00040052
     960:	0000cc14 	andeq	ip, r0, r4, lsl ip
     964:	45090000 	strmi	r0, [r9, #-0]
     968:	0400524d 	streq	r5, [r0], #-589	; 0xfffffdb3
     96c:	00cc1470 	sbceq	r1, ip, r0, ror r4
     970:	0a040000 	beq	100978 <_Min_Stack_Size+0x100578>
     974:	0000a0d5 	ldrdeq	sl, [r0], -r5
     978:	cc147104 	ldfgts	f7, [r4], {4}
     97c:	08000000 	stmdaeq	r0, {}	; <UNPREDICTABLE>
     980:	00a0700a 	adceq	r7, r0, sl
     984:	14720400 	ldrbtne	r0, [r2], #-1024	; 0xfffffc00
     988:	000000cc 	andeq	r0, r0, ip, asr #1
     98c:	a1520a0c 	cmpge	r2, ip, lsl #20
     990:	73040000 	movwvc	r0, #16384	; 0x4000
     994:	0000cc14 	andeq	ip, r0, r4, lsl ip
     998:	50091000 	andpl	r1, r9, r0
     99c:	74040052 	strvc	r0, [r4], #-82	; 0xffffffae
     9a0:	0000cc14 	andeq	ip, r0, r4, lsl ip
     9a4:	04001400 	streq	r1, [r0], #-1024	; 0xfffffc00
     9a8:	0000a1f0 	strdeq	sl, [r0], -r0
     9ac:	ae027504 	cfsh32ge	mvfx7, mvfx2, #4
     9b0:	08000001 	stmdaeq	r0, {r0}
     9b4:	09170504 	ldmdbeq	r7, {r2, r8, sl}
     9b8:	00000242 	andeq	r0, r0, r2, asr #4
     9bc:	000f490a 	andeq	r4, pc, sl, lsl #18
     9c0:	0b180500 	bleq	601dc8 <_Min_Stack_Size+0x6019c8>
     9c4:	000000b4 	strheq	r0, [r0], -r4
     9c8:	1edb0a00 	vfnmsne.f32	s1, s22, s0
     9cc:	1a050000 	bne	1409d4 <_Min_Stack_Size+0x1405d4>
     9d0:	0000a80a 	andeq	sl, r0, sl, lsl #16
     9d4:	690a0200 	stmdbvs	sl, {r9}
     9d8:	0500004f 	streq	r0, [r0, #-79]	; 0xffffffb1
     9dc:	00a80a1c 	adceq	r0, r8, ip, lsl sl
     9e0:	00030000 	andeq	r0, r3, r0
     9e4:	005b3e04 	subseq	r3, fp, r4, lsl #28
     9e8:	021e0500 	andseq	r0, lr, #0, 10
     9ec:	00000211 	andeq	r0, r0, r1, lsl r2
     9f0:	16060c08 	strne	r0, [r6], -r8, lsl #24
     9f4:	00028c09 	andeq	r8, r2, r9, lsl #24
     9f8:	97620a00 	strbls	r0, [r2, -r0, lsl #20]!
     9fc:	17060000 	strne	r0, [r6, -r0]
     a00:	0000a80a 	andeq	sl, r0, sl, lsl #16
     a04:	5b0a0000 	blpl	280a0c <_Min_Stack_Size+0x28060c>
     a08:	0600009b 			; <UNDEFINED> instruction: 0x0600009b
     a0c:	028c0a18 	addeq	r0, ip, #24, 20	; 0x18000
     a10:	0a040000 	beq	100a18 <_Min_Stack_Size+0x100618>
     a14:	00009195 	muleq	r0, r5, r1
     a18:	b40b1906 	strlt	r1, [fp], #-2310	; 0xfffff6fa
     a1c:	08000000 	stmdaeq	r0, {}	; <UNPREDICTABLE>
     a20:	008dcb0a 	addeq	ip, sp, sl, lsl #22
     a24:	0a1a0600 	beq	68222c <_Min_Stack_Size+0x681e2c>
     a28:	000000a8 	andeq	r0, r0, r8, lsr #1
     a2c:	0405000a 	streq	r0, [r5], #-10
     a30:	00000136 	andeq	r0, r0, r6, lsr r1
     a34:	00950604 	addseq	r0, r5, r4, lsl #12
     a38:	021b0600 	andseq	r0, fp, #0, 12
     a3c:	0000024e 	andeq	r0, r0, lr, asr #4
     a40:	1d061408 	cfstrsne	mvf1, [r6, #-32]	; 0xffffffe0
     a44:	0002dc09 	andeq	sp, r2, r9, lsl #24
     a48:	96730a00 	ldrbtls	r0, [r3], -r0, lsl #20
     a4c:	1e060000 	cdpne	0, 0, cr0, cr6, cr0, {0}
     a50:	00029215 	andeq	r9, r2, r5, lsl r2
     a54:	ea0a0000 	b	280a5c <_Min_Stack_Size+0x28065c>
     a58:	0600008d 	streq	r0, [r0], -sp, lsl #1
     a5c:	00a80d20 	adceq	r0, r8, r0, lsr #26
     a60:	0a0c0000 	beq	300a68 <_Min_Stack_Size+0x300668>
     a64:	00009b65 	andeq	r9, r0, r5, ror #22
     a68:	a80d2206 	stmdage	sp, {r1, r2, r9, sp}
     a6c:	0d000000 	stceq	0, cr0, [r0, #-0]
     a70:	0093d10a 	addseq	sp, r3, sl, lsl #2
     a74:	08240600 	stmdaeq	r4!, {r9, sl}
     a78:	0000009a 	muleq	r0, sl, r0
     a7c:	17040010 	smladne	r4, r0, r0, r0
     a80:	0600008f 	streq	r0, [r0], -pc, lsl #1
     a84:	029e0226 	addseq	r0, lr, #1610612738	; 0x60000002
     a88:	9a0b0000 	bls	2c0a90 <_Min_Stack_Size+0x2c0690>
     a8c:	f8000000 			; <UNDEFINED> instruction: 0xf8000000
     a90:	0c000002 	stceq	0, cr0, [r0], {2}
     a94:	00000029 	andeq	r0, r0, r9, lsr #32
     a98:	f50d000e 			; <UNDEFINED> instruction: 0xf50d000e
     a9c:	010000a0 	smlatbeq	r0, r0, r0, r0
     aa0:	02e8080e 	rsceq	r0, r8, #917504	; 0xe0000
     aa4:	03050000 	movweq	r0, #20480	; 0x5000
     aa8:	2000002c 	andcs	r0, r0, ip, lsr #32
     aac:	0000850e 	andeq	r8, r0, lr, lsl #10
     ab0:	066f0500 	strbteq	r0, [pc], -r0, lsl #10
     ab4:	00000321 	andeq	r0, r0, r1, lsr #6
     ab8:	00028c0f 	andeq	r8, r2, pc, lsl #24
     abc:	03210f00 			; <UNDEFINED> instruction: 0x03210f00
     ac0:	05000000 	streq	r0, [r0, #-0]
     ac4:	00024204 	andeq	r4, r2, r4, lsl #4
     ac8:	a1c61000 	bicge	r1, r6, r0
     acc:	20010000 	andcs	r0, r1, r0
     ad0:	09b00601 	ldmibeq	r0!, {r0, r9, sl}
     ad4:	00c40800 	sbceq	r0, r4, r0, lsl #16
     ad8:	9c010000 	stcls	0, cr0, [r1], {-0}
     adc:	00a17a10 	adceq	r7, r1, r0, lsl sl
     ae0:	01170100 	tsteq	r7, r0, lsl #2
     ae4:	00090806 	andeq	r0, r9, r6, lsl #16
     ae8:	0000a808 	andeq	sl, r0, r8, lsl #16
     aec:	109c0100 	addsne	r0, ip, r0, lsl #2
     af0:	0000a0e4 	andeq	sl, r0, r4, ror #1
     af4:	06011101 	streq	r1, [r1], -r1, lsl #2
     af8:	080008e4 	stmdaeq	r0, {r2, r5, r6, r7, fp}
     afc:	00000024 	andeq	r0, r0, r4, lsr #32
     b00:	8d109c01 	ldchi	12, cr9, [r0, #-4]
     b04:	010000a1 	smlatbeq	r0, r1, r0, r0
     b08:	c006010a 	andgt	r0, r6, sl, lsl #2
     b0c:	24080008 	strcs	r0, [r8], #-8
     b10:	01000000 	mrseq	r0, (UNDEF: 0)
     b14:	a15d109c 			; <UNDEFINED> instruction: 0xa15d109c
     b18:	04010000 	streq	r0, [r1], #-0
     b1c:	089c0601 	ldmeq	ip, {r0, r9, sl}
     b20:	00240800 	eoreq	r0, r4, r0, lsl #16
     b24:	9c010000 	stcls	0, cr0, [r1], {-0}
     b28:	00a20411 	adceq	r0, r2, r1, lsl r4
     b2c:	06fe0100 	ldrbteq	r0, [lr], r0, lsl #2
     b30:	08000878 	stmdaeq	r0, {r3, r4, r5, r6, fp}
     b34:	00000024 	andeq	r0, r0, r4, lsr #32
     b38:	b0119c01 	andslt	r9, r1, r1, lsl #24
     b3c:	010000a1 	smlatbeq	r0, r1, r0, r0
     b40:	085406f7 	ldmdaeq	r4, {r0, r1, r2, r4, r5, r6, r7, r9, sl}^
     b44:	00240800 	eoreq	r0, r4, r0, lsl #16
     b48:	9c010000 	stcls	0, cr0, [r1], {-0}
     b4c:	00a14112 	adceq	r4, r1, r2, lsl r1
     b50:	06e90100 	strbteq	r0, [r9], r0, lsl #2
     b54:	00000000 	andeq	r0, r0, r0
     b58:	00000016 	andeq	r0, r0, r6, lsl r0
     b5c:	03d09c01 	bicseq	r9, r0, #256	; 0x100
     b60:	75130000 	ldrvc	r0, [r3, #-0]
     b64:	010000a0 	smlatbeq	r0, r0, r0, r0
     b68:	03d02ae9 	bicseq	r2, r0, #954368	; 0xe9000
     b6c:	91020000 	mrsls	r0, (UNDEF: 2)
     b70:	04050074 	streq	r0, [r5], #-116	; 0xffffff8c
     b74:	000002dc 	ldrdeq	r0, [r0], -ip
     b78:	00a16e12 	adceq	r6, r1, r2, lsl lr
     b7c:	06a90100 	strteq	r0, [r9], r0, lsl #2
     b80:	08000674 	stmdaeq	r0, {r2, r4, r5, r6, r9, sl}
     b84:	000001e0 	andeq	r0, r0, r0, ror #3
     b88:	04299c01 	strteq	r9, [r9], #-3073	; 0xfffff3ff
     b8c:	75130000 	ldrvc	r0, [r3, #-0]
     b90:	010000a0 	smlatbeq	r0, r0, r0, r0
     b94:	03d025a9 	bicseq	r2, r0, #708837376	; 0x2a400000
     b98:	91020000 	mrsls	r0, (UNDEF: 2)
     b9c:	a137146c 	teqge	r7, ip, ror #8
     ba0:	ad010000 	stcge	0, cr0, [r1, #-0]
     ba4:	00024214 	andeq	r4, r2, r4, lsl r2
     ba8:	70910200 	addsvc	r0, r1, r0, lsl #4
     bac:	00a19e14 	adceq	r9, r1, r4, lsl lr
     bb0:	0ab40100 	beq	fed00fb8 <_estack+0xdecfbfb8>
     bb4:	000000a8 	andeq	r0, r0, r8, lsr #1
     bb8:	14779102 	ldrbtne	r9, [r7], #-258	; 0xfffffefe
     bbc:	0000a1db 	ldrdeq	sl, [r0], -fp
     bc0:	a80ab501 	stmdage	sl, {r0, r8, sl, ip, sp, pc}
     bc4:	02000000 	andeq	r0, r0, #0
     bc8:	12007691 	andne	r7, r0, #152043520	; 0x9100000
     bcc:	00009085 	andeq	r9, r0, r5, lsl #1
     bd0:	5c069f01 	stcpl	15, cr9, [r6], {1}
     bd4:	16080006 	strne	r0, [r8], -r6
     bd8:	01000000 	mrseq	r0, (UNDEF: 0)
     bdc:	00044f9c 	muleq	r4, ip, pc	; <UNPREDICTABLE>
     be0:	a0751300 	rsbsge	r1, r5, r0, lsl #6
     be4:	9f010000 	svcls	0x00010000
     be8:	0003d028 	andeq	sp, r3, r8, lsr #32
     bec:	74910200 	ldrvc	r0, [r1], #512	; 0x200
     bf0:	a05f1500 	subsge	r1, pc, r0, lsl #10
     bf4:	85010000 	strhi	r0, [r1, #-0]
     bf8:	00000006 	andeq	r0, r0, r6
     bfc:	00009400 	andeq	r9, r0, r0, lsl #8
     c00:	169c0100 	ldrne	r0, [ip], r0, lsl #2
     c04:	0000a1f7 	strdeq	sl, [r0], -r7
     c08:	90064701 	andls	r4, r6, r1, lsl #14
     c0c:	cc080005 	stcgt	0, cr0, [r8], {5}
     c10:	01000000 	mrseq	r0, (UNDEF: 0)
     c14:	0004869c 	muleq	r4, ip, r6
     c18:	4c491700 	mcrrmi	7, 0, r1, r9, cr0
     c1c:	1c470100 	stfnee	f0, [r7], {-0}
     c20:	000000b4 	strheq	r0, [r0], -r4
     c24:	00769102 	rsbseq	r9, r6, r2, lsl #2
     c28:	00a21518 	adceq	r1, r2, r8, lsl r5
     c2c:	061b0100 	ldreq	r0, [fp], -r0, lsl #2
     c30:	080004c4 	stmdaeq	r0, {r2, r6, r7, sl}
     c34:	000000cc 	andeq	r0, r0, ip, asr #1
     c38:	49179c01 	ldmdbmi	r7, {r0, sl, fp, ip, pc}
     c3c:	1b01004c 	blne	40d74 <_Min_Stack_Size+0x40974>
     c40:	0000b41b 	andeq	fp, r0, fp, lsl r4
     c44:	76910200 	ldrvc	r0, [r1], r0, lsl #4
     c48:	04350000 	ldrteq	r0, [r5], #-0
     c4c:	00040000 	andeq	r0, r4, r0
     c50:	00000444 	andeq	r0, r0, r4, asr #8
     c54:	46e70104 	strbtmi	r0, [r7], r4, lsl #2
     c58:	340c0000 	strcc	r0, [ip], #-0
     c5c:	af0000a2 	svcge	0x000000a2
     c60:	10000001 	andne	r0, r0, r1
     c64:	00000001 	andeq	r0, r0, r1
     c68:	b6000000 	strlt	r0, [r0], -r0
     c6c:	3c000019 	stccc	0, cr0, [r0], {25}
     c70:	02000028 	andeq	r0, r0, #40	; 0x28
     c74:	21380704 	teqcs	r8, r4, lsl #14
     c78:	04030000 	streq	r0, [r3], #-0
     c7c:	746e6905 	strbtvc	r6, [lr], #-2309	; 0xfffff6fb
     c80:	05080200 	streq	r0, [r8, #-512]	; 0xfffffe00
     c84:	000050c9 	andeq	r5, r0, r9, asr #1
     c88:	c1040802 	tstgt	r4, r2, lsl #16
     c8c:	02000003 	andeq	r0, r0, #3
     c90:	08040601 	stmdaeq	r4, {r0, r9, sl}
     c94:	bc040000 	stclt	0, cr0, [r4], {-0}
     c98:	02000012 	andeq	r0, r0, #18
     c9c:	0058182b 	subseq	r1, r8, fp, lsr #16
     ca0:	01020000 	mrseq	r0, (UNDEF: 2)
     ca4:	00324e08 	eorseq	r4, r2, r8, lsl #28
     ca8:	05020200 	streq	r0, [r2, #-512]	; 0xfffffe00
     cac:	00000a81 	andeq	r0, r0, r1, lsl #21
     cb0:	002bb304 	eoreq	fp, fp, r4, lsl #6
     cb4:	19390200 	ldmdbne	r9!, {r9}
     cb8:	00000072 	andeq	r0, r0, r2, ror r0
     cbc:	b2070202 	andlt	r0, r7, #536870912	; 0x20000000
     cc0:	02000068 	andeq	r0, r0, #104	; 0x68
     cc4:	6c070504 	cfstr32vs	mvfx0, [r7], {4}
     cc8:	ac040000 	stcge	0, cr0, [r4], {-0}
     ccc:	0200003f 	andeq	r0, r0, #63	; 0x3f
     cd0:	008c194f 	addeq	r1, ip, pc, asr #18
     cd4:	04020000 	streq	r0, [r2], #-0
     cd8:	001a9b07 	andseq	r9, sl, r7, lsl #22
     cdc:	07080200 	streq	r0, [r8, -r0, lsl #4]
     ce0:	00007377 	andeq	r7, r0, r7, ror r3
     ce4:	0b080102 	bleq	2010f4 <_Min_Stack_Size+0x200cf4>
     ce8:	04000008 	streq	r0, [r0], #-8
     cec:	000012be 			; <UNDEFINED> instruction: 0x000012be
     cf0:	4c131803 	ldcmi	8, cr1, [r3], {3}
     cf4:	04000000 	streq	r0, [r0], #-0
     cf8:	00002bb5 			; <UNDEFINED> instruction: 0x00002bb5
     cfc:	66142403 	ldrvs	r2, [r4], -r3, lsl #8
     d00:	04000000 	streq	r0, [r0], #-0
     d04:	00003fae 	andeq	r3, r0, lr, lsr #31
     d08:	80143003 	andshi	r3, r4, r3
     d0c:	05000000 	streq	r0, [r0, #-0]
     d10:	000000b9 	strheq	r0, [r0], -r9
     d14:	50041c06 	andpl	r1, r4, r6, lsl #24
     d18:	00012f09 	andeq	r2, r1, r9, lsl #30
     d1c:	52430700 	subpl	r0, r3, #0, 14
     d20:	5204004c 	andpl	r0, r4, #76	; 0x4c
     d24:	0000c514 	andeq	ip, r0, r4, lsl r5
     d28:	43070000 	movwmi	r0, #28672	; 0x7000
     d2c:	04004852 	streq	r4, [r0], #-2130	; 0xfffff7ae
     d30:	00c51453 	sbceq	r1, r5, r3, asr r4
     d34:	07040000 	streq	r0, [r4, -r0]
     d38:	00524449 	subseq	r4, r2, r9, asr #8
     d3c:	c5145404 	ldrgt	r5, [r4, #-1028]	; 0xfffffbfc
     d40:	08000000 	stmdaeq	r0, {}	; <UNPREDICTABLE>
     d44:	52444f07 	subpl	r4, r4, #7, 30
     d48:	14550400 	ldrbne	r0, [r5], #-1024	; 0xfffffc00
     d4c:	000000c5 	andeq	r0, r0, r5, asr #1
     d50:	7c33080c 	ldcvc	8, cr0, [r3], #-48	; 0xffffffd0
     d54:	56040000 	strpl	r0, [r4], -r0
     d58:	0000c514 	andeq	ip, r0, r4, lsl r5
     d5c:	42071000 	andmi	r1, r7, #0
     d60:	04005252 	streq	r5, [r0], #-594	; 0xfffffdae
     d64:	00c51457 	sbceq	r1, r5, r7, asr r4
     d68:	08140000 	ldmdaeq	r4, {}	; <UNPREDICTABLE>
     d6c:	000043ae 	andeq	r4, r0, lr, lsr #7
     d70:	c5145804 	ldrgt	r5, [r4, #-2052]	; 0xfffff7fc
     d74:	18000000 	stmdane	r0, {}	; <UNPREDICTABLE>
     d78:	0cdf0400 	cfldrdeq	mvd0, [pc], {0}
     d7c:	59040000 	stmdbpl	r4, {}	; <UNPREDICTABLE>
     d80:	0000ca02 	andeq	ip, r0, r2, lsl #20
     d84:	04280600 	strteq	r0, [r8], #-1536	; 0xfffffa00
     d88:	01c6097b 	biceq	r0, r6, fp, ror r9
     d8c:	43070000 	movwmi	r0, #28672	; 0x7000
     d90:	7d040052 	stcvc	0, cr0, [r4, #-328]	; 0xfffffeb8
     d94:	0000c514 	andeq	ip, r0, r4, lsl r5
     d98:	74080000 	strvc	r0, [r8], #-0
     d9c:	04000094 	streq	r0, [r0], #-148	; 0xffffff6c
     da0:	00c5147e 	sbceq	r1, r5, lr, ror r4
     da4:	07040000 	streq	r0, [r4, -r0]
     da8:	00524943 	subseq	r4, r2, r3, asr #18
     dac:	c5147f04 	ldrgt	r7, [r4, #-3844]	; 0xfffff0fc
     db0:	08000000 	stmdaeq	r0, {}	; <UNPREDICTABLE>
     db4:	00966a08 	addseq	r6, r6, r8, lsl #20
     db8:	14800400 	strne	r0, [r0], #1024	; 0x400
     dbc:	000000c5 	andeq	r0, r0, r5, asr #1
     dc0:	9ac8080c 	bls	ff202df8 <_estack+0xdf1fddf8>
     dc4:	81040000 	mrshi	r0, (UNDEF: 4)
     dc8:	0000c514 	andeq	ip, r0, r4, lsl r5
     dcc:	99081000 	stmdbls	r8, {ip}
     dd0:	0400009d 	streq	r0, [r0], #-157	; 0xffffff63
     dd4:	00c51482 	sbceq	r1, r5, r2, lsl #9
     dd8:	08140000 	ldmdaeq	r4, {}	; <UNPREDICTABLE>
     ddc:	0000907d 	andeq	r9, r0, sp, ror r0
     de0:	c5148304 	ldrgt	r8, [r4, #-772]	; 0xfffffcfc
     de4:	18000000 	stmdane	r0, {}	; <UNPREDICTABLE>
     de8:	009ad108 	addseq	sp, sl, r8, lsl #2
     dec:	14840400 	strne	r0, [r4], #1024	; 0x400
     df0:	000000c5 	andeq	r0, r0, r5, asr #1
     df4:	93dd081c 	bicsls	r0, sp, #28, 16	; 0x1c0000
     df8:	85040000 	strhi	r0, [r4, #-0]
     dfc:	0000c514 	andeq	ip, r0, r4, lsl r5
     e00:	43072000 	movwmi	r2, #28672	; 0x7000
     e04:	04005253 	streq	r5, [r0], #-595	; 0xfffffdad
     e08:	00c51486 	sbceq	r1, r5, r6, lsl #9
     e0c:	00240000 	eoreq	r0, r4, r0
     e10:	0094ba04 	addseq	fp, r4, r4, lsl #20
     e14:	02880400 	addeq	r0, r8, #0, 8
     e18:	0000013b 	andeq	r0, r0, fp, lsr r1
     e1c:	17050406 	strne	r0, [r5, -r6, lsl #8]
     e20:	00020309 	andeq	r0, r2, r9, lsl #6
     e24:	0f490800 	svceq	0x00490800
     e28:	18050000 	stmdane	r5, {}	; <UNPREDICTABLE>
     e2c:	0000ad0b 	andeq	sl, r0, fp, lsl #26
     e30:	db080000 	blle	200e38 <_Min_Stack_Size+0x200a38>
     e34:	0500001e 	streq	r0, [r0, #-30]	; 0xffffffe2
     e38:	00a10a1a 	adceq	r0, r1, sl, lsl sl
     e3c:	08020000 	stmdaeq	r2, {}	; <UNPREDICTABLE>
     e40:	00004f69 	andeq	r4, r0, r9, ror #30
     e44:	a10a1c05 	tstge	sl, r5, lsl #24
     e48:	03000000 	movweq	r0, #0
     e4c:	5b3e0400 	blpl	f81e54 <_Min_Stack_Size+0xf81a54>
     e50:	1e050000 	cdpne	0, 0, cr0, cr5, cr0, {0}
     e54:	0001d202 	andeq	sp, r1, r2, lsl #4
     e58:	a29a0900 	addsge	r0, sl, #0, 18
     e5c:	fa010000 	blx	40e64 <_Min_Stack_Size+0x40a64>
     e60:	0000a109 	andeq	sl, r0, r9, lsl #2
     e64:	00000000 	andeq	r0, r0, r0
     e68:	00004e00 	andeq	r4, r0, r0, lsl #28
     e6c:	589c0100 	ldmpl	ip, {r8}
     e70:	0a000002 	beq	e80 <_Min_Stack_Size+0xa80>
     e74:	0000a277 	andeq	sl, r0, r7, ror r2
     e78:	5823fa01 	stmdapl	r3!, {r0, r9, fp, ip, sp, lr, pc}
     e7c:	02000002 	andeq	r0, r0, #2
     e80:	bd0a6c91 	stclt	12, cr6, [sl, #-580]	; 0xfffffdbc
     e84:	010000a2 	smlatbeq	r0, r2, r0, r0
     e88:	00ad32fa 	strdeq	r3, [sp], sl	; <UNPREDICTABLE>
     e8c:	91020000 	mrsls	r0, (UNDEF: 2)
     e90:	a3010b6a 	movwge	r0, #7018	; 0x1b6a
     e94:	05010000 	streq	r0, [r1, #-0]
     e98:	00c51401 	sbceq	r1, r5, r1, lsl #8
     e9c:	91020000 	mrsls	r0, (UNDEF: 2)
     ea0:	040c0074 	streq	r0, [ip], #-116	; 0xffffff8c
     ea4:	0000012f 	andeq	r0, r0, pc, lsr #2
     ea8:	00a2630d 	adceq	r6, r2, sp, lsl #6
     eac:	06ee0100 	strbteq	r0, [lr], r0, lsl #2
     eb0:	00000000 	andeq	r0, r0, r0
     eb4:	00000022 	andeq	r0, r0, r2, lsr #32
     eb8:	02939c01 	addseq	r9, r3, #256	; 0x100
     ebc:	770a0000 	strvc	r0, [sl, -r0]
     ec0:	010000a2 	smlatbeq	r0, r2, r0, r0
     ec4:	025822ee 	subseq	r2, r8, #-536870898	; 0xe000000e
     ec8:	91020000 	mrsls	r0, (UNDEF: 2)
     ecc:	a2bd0a74 	adcsge	r0, sp, #116, 20	; 0x74000
     ed0:	ee010000 	cdp	0, 0, cr0, cr1, cr0, {0}
     ed4:	0000ad31 	andeq	sl, r0, r1, lsr sp
     ed8:	72910200 	addsvc	r0, r1, #0, 4
     edc:	2ee00d00 	cdpcs	13, 14, cr0, cr0, cr0, {0}
     ee0:	d3010000 	movwle	r0, #4096	; 0x1000
     ee4:	000cf806 	andeq	pc, ip, r6, lsl #16
     ee8:	00002e08 	andeq	r2, r0, r8, lsl #28
     eec:	d79c0100 	ldrle	r0, [ip, r0, lsl #2]
     ef0:	0a000002 	beq	f00 <_Min_Stack_Size+0xb00>
     ef4:	0000a277 	andeq	sl, r0, r7, ror r2
     ef8:	5821d301 	stmdapl	r1!, {r0, r8, r9, ip, lr, pc}
     efc:	02000002 	andeq	r0, r0, #2
     f00:	bd0a7491 	cfstrslt	mvf7, [sl, #-580]	; 0xfffffdbc
     f04:	010000a2 	smlatbeq	r0, r2, r0, r0
     f08:	00ad30d3 	ldrdeq	r3, [sp], r3	; <UNPREDICTABLE>
     f0c:	91020000 	mrsls	r0, (UNDEF: 2)
     f10:	a2e80a72 	rscge	r0, r8, #466944	; 0x72000
     f14:	d3010000 	movwle	r0, #4096	; 0x1000
     f18:	0000a142 	andeq	sl, r0, r2, asr #2
     f1c:	71910200 	orrsvc	r0, r1, r0, lsl #4
     f20:	5cac0d00 	stcpl	13, cr0, [ip]
     f24:	c6010000 	strgt	r0, [r1], -r0
     f28:	000cdc06 	andeq	sp, ip, r6, lsl #24
     f2c:	00001c08 	andeq	r1, r0, r8, lsl #24
     f30:	0c9c0100 	ldfeqs	f0, [ip], {0}
     f34:	0a000003 	beq	f48 <_Min_Stack_Size+0xb48>
     f38:	0000a277 	andeq	sl, r0, r7, ror r2
     f3c:	5822c601 	stmdapl	r2!, {r0, r9, sl, lr, pc}
     f40:	02000002 	andeq	r0, r0, #2
     f44:	e80a7491 	stmda	sl, {r0, r4, r7, sl, ip, sp, lr}
     f48:	010000a2 	smlatbeq	r0, r2, r0, r0
     f4c:	00a130c6 	adceq	r3, r1, r6, asr #1
     f50:	91020000 	mrsls	r0, (UNDEF: 2)
     f54:	ee090073 	mcr	0, 0, r0, cr9, cr3, {3}
     f58:	010000a2 	smlatbeq	r0, r2, r0, r0
     f5c:	00ad0ab6 	strhteq	r0, [sp], r6
     f60:	00000000 	andeq	r0, r0, r0
     f64:	001a0000 	andseq	r0, sl, r0
     f68:	9c010000 	stcls	0, cr0, [r1], {-0}
     f6c:	00000345 	andeq	r0, r0, r5, asr #6
     f70:	00a2770a 	adceq	r7, r2, sl, lsl #14
     f74:	25b60100 	ldrcs	r0, [r6, #256]!	; 0x100
     f78:	00000258 	andeq	r0, r0, r8, asr r2
     f7c:	0e6c9102 	lgneqe	f1, f2
     f80:	0000a2e3 	andeq	sl, r0, r3, ror #5
     f84:	ad0bb701 	stcge	7, cr11, [fp, #-4]
     f88:	02000000 	andeq	r0, r0, #0
     f8c:	09007691 	stmdbeq	r0, {r0, r4, r7, r9, sl, ip, sp, lr}
     f90:	0000a288 	andeq	sl, r0, r8, lsl #5
     f94:	a109a401 	tstge	r9, r1, lsl #8
     f98:	00000000 	andeq	r0, r0, r0
     f9c:	2e000000 	cdpcs	0, 0, cr0, cr0, cr0, {0}
     fa0:	01000000 	mrseq	r0, (UNDEF: 0)
     fa4:	00038d9c 	muleq	r3, ip, sp
     fa8:	a2770a00 	rsbsge	r0, r7, #0, 20
     fac:	a4010000 	strge	r0, [r1], #-0
     fb0:	00025823 	andeq	r5, r2, r3, lsr #16
     fb4:	6c910200 	lfmvs	f0, 4, [r1], {0}
     fb8:	00a2bd0a 	adceq	fp, r2, sl, lsl #26
     fbc:	32a40100 	adccc	r0, r4, #0, 2
     fc0:	000000ad 	andeq	r0, r0, sp, lsr #1
     fc4:	0e6a9102 	lgneqe	f1, f2
     fc8:	0000a2d8 	ldrdeq	sl, [r0], -r8
     fcc:	a10aa501 	tstge	sl, r1, lsl #10
     fd0:	02000000 	andeq	r0, r0, #0
     fd4:	0d007791 	stceq	7, cr7, [r0, #-580]	; 0xfffffdbc
     fd8:	0000a2c7 	andeq	sl, r0, r7, asr #5
     fdc:	00067d01 	andeq	r7, r6, r1, lsl #26
     fe0:	d4000000 	strle	r0, [r0], #-0
     fe4:	01000000 	mrseq	r0, (UNDEF: 0)
     fe8:	0003b39c 	muleq	r3, ip, r3
     fec:	a2770a00 	rsbsge	r0, r7, #0, 20
     ff0:	7d010000 	stcvc	0, cr0, [r1, #-0]
     ff4:	0002581f 	andeq	r5, r2, pc, lsl r8
     ff8:	74910200 	ldrvc	r0, [r1], #512	; 0x200
     ffc:	00850f00 	addeq	r0, r5, r0, lsl #30
    1000:	48010000 	stmdami	r1, {}	; <UNPREDICTABLE>
    1004:	000be406 	andeq	lr, fp, r6, lsl #8
    1008:	0000f808 	andeq	pc, r0, r8, lsl #16
    100c:	069c0100 	ldreq	r0, [ip], r0, lsl #2
    1010:	0a000004 	beq	1028 <_Min_Stack_Size+0xc28>
    1014:	0000a277 	andeq	sl, r0, r7, ror r2
    1018:	581d4801 	ldmdapl	sp, {r0, fp, lr}
    101c:	02000002 	andeq	r0, r0, #2
    1020:	590a6c91 	stmdbpl	sl, {r0, r4, r7, sl, fp, sp, lr}
    1024:	010000a2 	smlatbeq	r0, r2, r0, r0
    1028:	04063648 	streq	r3, [r6], #-1608	; 0xfffff9b8
    102c:	91020000 	mrsls	r0, (UNDEF: 2)
    1030:	a2210e68 	eorge	r0, r1, #104, 28	; 0x680
    1034:	4b010000 	blmi	4103c <_Min_Stack_Size+0x40c3c>
    1038:	00040c15 	andeq	r0, r4, r5, lsl ip
    103c:	74910200 	ldrvc	r0, [r1], #512	; 0x200
    1040:	00a27d0e 	adceq	r7, r2, lr, lsl #26
    1044:	0b4c0100 	bleq	130144c <_Min_Stack_Size+0x130104c>
    1048:	000000b9 	strheq	r0, [r0], -r9
    104c:	00709102 	rsbseq	r9, r0, r2, lsl #2
    1050:	0203040c 	andeq	r0, r3, #12, 8	; 0xc000000
    1054:	040c0000 	streq	r0, [ip], #-0
    1058:	000000c5 	andeq	r0, r0, r5, asr #1
    105c:	00a2ac10 	adceq	sl, r2, r0, lsl ip
    1060:	090a0100 	stmdbeq	sl, {r8}
    1064:	000000a1 	andeq	r0, r0, r1, lsr #1
    1068:	08000a74 	stmdaeq	r0, {r2, r4, r5, r6, r9, fp}
    106c:	0000016e 	andeq	r0, r0, lr, ror #2
    1070:	bd0a9c01 	stclt	12, cr9, [sl, #-4]
    1074:	010000a2 	smlatbeq	r0, r2, r0, r0
    1078:	00ad230a 	adceq	r2, sp, sl, lsl #6
    107c:	91020000 	mrsls	r0, (UNDEF: 2)
    1080:	Address 0x0000000000001080 is out of bounds.


Disassembly of section .debug_abbrev:

00000000 <.debug_abbrev>:
   0:	25011101 	strcs	r1, [r1, #-257]	; 0xfffffeff
   4:	030b130e 	movweq	r1, #45838	; 0xb30e
   8:	550e1b0e 	strpl	r1, [lr, #-2830]	; 0xfffff4f2
   c:	10011117 	andne	r1, r1, r7, lsl r1
  10:	17429917 	smlaldne	r9, r2, r7, r9
  14:	24020000 	strcs	r0, [r2], #-0
  18:	3e0b0b00 	vmlacc.f64	d0, d11, d0
  1c:	000e030b 	andeq	r0, lr, fp, lsl #6
  20:	00240300 	eoreq	r0, r4, r0, lsl #6
  24:	0b3e0b0b 	bleq	f82c58 <_Min_Stack_Size+0xf82858>
  28:	00000803 	andeq	r0, r0, r3, lsl #16
  2c:	03001604 	movweq	r1, #1540	; 0x604
  30:	3b0b3a0e 	blcc	2ce870 <_Min_Stack_Size+0x2ce470>
  34:	490b390b 	stmdbmi	fp, {r0, r1, r3, r8, fp, ip, sp}
  38:	05000013 	streq	r0, [r0, #-19]	; 0xffffffed
  3c:	0b0b000f 	bleq	2c0080 <_Min_Stack_Size+0x2bfc80>
  40:	00001349 	andeq	r1, r0, r9, asr #6
  44:	49002606 	stmdbmi	r0, {r1, r2, r9, sl, sp}
  48:	07000013 	smladeq	r0, r3, r0, r0
  4c:	13490035 	movtne	r0, #36917	; 0x9035
  50:	13080000 	movwne	r0, #32768	; 0x8000
  54:	3a0b0b01 	bcc	2c2c60 <_Min_Stack_Size+0x2c2860>
  58:	390b3b0b 	stmdbcc	fp, {r0, r1, r3, r8, r9, fp, ip, sp}
  5c:	0013010b 	andseq	r0, r3, fp, lsl #2
  60:	000d0900 	andeq	r0, sp, r0, lsl #18
  64:	0b3a0803 	bleq	e82078 <_Min_Stack_Size+0xe81c78>
  68:	0b390b3b 	bleq	e42d5c <_Min_Stack_Size+0xe4295c>
  6c:	0b381349 	bleq	e04d98 <_Min_Stack_Size+0xe04998>
  70:	0d0a0000 	stceq	0, cr0, [sl, #-0]
  74:	3a0e0300 	bcc	380c7c <_Min_Stack_Size+0x38087c>
  78:	390b3b0b 	stmdbcc	fp, {r0, r1, r3, r8, r9, fp, ip, sp}
  7c:	3813490b 	ldmdacc	r3, {r0, r1, r3, r8, fp, lr}
  80:	0b00000b 	bleq	b4 <_Min_Heap_Size-0x14c>
  84:	0e030034 	mcreq	0, 0, r0, cr3, cr4, {1}
  88:	0b3b0b3a 	bleq	ec2d78 <_Min_Stack_Size+0xec2978>
  8c:	13490b39 	movtne	r0, #39737	; 0x9b39
  90:	1802193f 	stmdane	r2, {r0, r1, r2, r3, r4, r5, r8, fp, ip}
  94:	2e0c0000 	cdpcs	0, 0, cr0, cr12, cr0, {0}
  98:	03193f01 	tsteq	r9, #1, 30
  9c:	3b0b3a0e 	blcc	2ce8dc <_Min_Stack_Size+0x2ce4dc>
  a0:	270b390b 	strcs	r3, [fp, -fp, lsl #18]
  a4:	3c134919 			; <UNDEFINED> instruction: 0x3c134919
  a8:	00130119 	andseq	r0, r3, r9, lsl r1
  ac:	00050d00 	andeq	r0, r5, r0, lsl #26
  b0:	00001349 	andeq	r1, r0, r9, asr #6
  b4:	0000180e 	andeq	r1, r0, lr, lsl #16
  b8:	012e0f00 			; <UNDEFINED> instruction: 0x012e0f00
  bc:	0e03193f 			; <UNDEFINED> instruction: 0x0e03193f
  c0:	0b3b0b3a 	bleq	ec2db0 <_Min_Stack_Size+0xec29b0>
  c4:	19270b39 	stmdbne	r7!, {r0, r3, r4, r5, r8, r9, fp}
  c8:	1301193c 	movwne	r1, #6460	; 0x193c
  cc:	2e100000 	cdpcs	0, 1, cr0, cr0, cr0, {0}
  d0:	03193f01 	tsteq	r9, #1, 30
  d4:	3b0b3a0e 	blcc	2ce914 <_Min_Stack_Size+0x2ce514>
  d8:	270b390b 	strcs	r3, [fp, -fp, lsl #18]
  dc:	12011119 	andne	r1, r1, #1073741830	; 0x40000006
  e0:	96184006 	ldrls	r4, [r8], -r6
  e4:	13011942 	movwne	r1, #6466	; 0x1942
  e8:	05110000 	ldreq	r0, [r1, #-0]
  ec:	3a0e0300 	bcc	380cf4 <_Min_Stack_Size+0x3808f4>
  f0:	390b3b0b 	stmdbcc	fp, {r0, r1, r3, r8, r9, fp, ip, sp}
  f4:	0213490b 	andseq	r4, r3, #180224	; 0x2c000
  f8:	12000018 	andne	r0, r0, #24
  fc:	08030034 	stmdaeq	r3, {r2, r4, r5}
 100:	0b3b0b3a 	bleq	ec2df0 <_Min_Stack_Size+0xec29f0>
 104:	13490b39 	movtne	r0, #39737	; 0x9b39
 108:	00001802 	andeq	r1, r0, r2, lsl #16
 10c:	03003413 	movweq	r3, #1043	; 0x413
 110:	3b0b3a0e 	blcc	2ce950 <_Min_Stack_Size+0x2ce550>
 114:	490b390b 	stmdbmi	fp, {r0, r1, r3, r8, fp, ip, sp}
 118:	00180213 	andseq	r0, r8, r3, lsl r2
 11c:	01011400 	tsteq	r1, r0, lsl #8
 120:	13011349 	movwne	r1, #4937	; 0x1349
 124:	21150000 	tstcs	r5, r0
 128:	2f134900 	svccs	0x00134900
 12c:	1600000b 	strne	r0, [r0], -fp
 130:	193f002e 	ldmdbne	pc!, {r1, r2, r3, r5}	; <UNPREDICTABLE>
 134:	0b3a0e03 	bleq	e83948 <_Min_Stack_Size+0xe83548>
 138:	0b390b3b 	bleq	e42e2c <_Min_Stack_Size+0xe42a2c>
 13c:	01111927 	tsteq	r1, r7, lsr #18
 140:	18400612 	stmdane	r0, {r1, r4, r9, sl}^
 144:	00194296 	mulseq	r9, r6, r2
 148:	00051700 	andeq	r1, r5, r0, lsl #14
 14c:	0b3a0803 	bleq	e82160 <_Min_Stack_Size+0xe81d60>
 150:	0b390b3b 	bleq	e42e44 <_Min_Stack_Size+0xe42a44>
 154:	18021349 	stmdane	r2, {r0, r3, r6, r8, r9, ip}
 158:	2e180000 	cdpcs	0, 1, cr0, cr8, cr0, {0}
 15c:	03193f00 	tsteq	r9, #0, 30
 160:	3b0b3a0e 	blcc	2ce9a0 <_Min_Stack_Size+0x2ce5a0>
 164:	110b390b 	tstne	fp, fp, lsl #18
 168:	40061201 	andmi	r1, r6, r1, lsl #4
 16c:	19429618 	stmdbne	r2, {r3, r4, r9, sl, ip, pc}^
 170:	2e190000 	cdpcs	0, 1, cr0, cr9, cr0, {0}
 174:	3a0e0301 	bcc	380d80 <_Min_Stack_Size+0x380980>
 178:	390b3b0b 	stmdbcc	fp, {r0, r1, r3, r8, r9, fp, ip, sp}
 17c:	1119270b 	tstne	r9, fp, lsl #14
 180:	40061201 	andmi	r1, r6, r1, lsl #4
 184:	19429718 	stmdbne	r2, {r3, r4, r8, r9, sl, ip, pc}^
 188:	01000000 	mrseq	r0, (UNDEF: 0)
 18c:	0e250111 	mcreq	1, 1, r0, cr5, cr1, {0}
 190:	0e030b13 	vmoveq.32	d3[0], r0
 194:	17550e1b 	smmlane	r5, fp, lr, r0
 198:	17100111 			; <UNDEFINED> instruction: 0x17100111
 19c:	00174299 	mulseq	r7, r9, r2
 1a0:	00240200 	eoreq	r0, r4, r0, lsl #4
 1a4:	0b3e0b0b 	bleq	f82dd8 <_Min_Stack_Size+0xf829d8>
 1a8:	00000e03 	andeq	r0, r0, r3, lsl #28
 1ac:	0b002403 	bleq	91c0 <_Min_Stack_Size+0x8dc0>
 1b0:	030b3e0b 	movweq	r3, #48651	; 0xbe0b
 1b4:	04000008 	streq	r0, [r0], #-8
 1b8:	0e030016 	mcreq	0, 0, r0, cr3, cr6, {0}
 1bc:	0b3b0b3a 	bleq	ec2eac <_Min_Stack_Size+0xec2aac>
 1c0:	13490b39 	movtne	r0, #39737	; 0x9b39
 1c4:	0f050000 	svceq	0x00050000
 1c8:	490b0b00 	stmdbmi	fp, {r8, r9, fp}
 1cc:	06000013 			; <UNDEFINED> instruction: 0x06000013
 1d0:	19270015 	stmdbne	r7!, {r0, r2, r4}
 1d4:	35070000 	strcc	r0, [r7, #-0]
 1d8:	00134900 	andseq	r4, r3, r0, lsl #18
 1dc:	01130800 	tsteq	r3, r0, lsl #16
 1e0:	0b3a0b0b 	bleq	e82e14 <_Min_Stack_Size+0xe82a14>
 1e4:	0b390b3b 	bleq	e42ed8 <_Min_Stack_Size+0xe42ad8>
 1e8:	00001301 	andeq	r1, r0, r1, lsl #6
 1ec:	03000d09 	movweq	r0, #3337	; 0xd09
 1f0:	3b0b3a08 	blcc	2cea18 <_Min_Stack_Size+0x2ce618>
 1f4:	490b390b 	stmdbmi	fp, {r0, r1, r3, r8, fp, ip, sp}
 1f8:	000b3813 	andeq	r3, fp, r3, lsl r8
 1fc:	000d0a00 	andeq	r0, sp, r0, lsl #20
 200:	0b3a0e03 	bleq	e83a14 <_Min_Stack_Size+0xe83614>
 204:	0b390b3b 	bleq	e42ef8 <_Min_Stack_Size+0xe42af8>
 208:	0b381349 	bleq	e04f34 <_Min_Stack_Size+0xe04b34>
 20c:	340b0000 	strcc	r0, [fp], #-0
 210:	3a0e0300 	bcc	380e18 <_Min_Stack_Size+0x380a18>
 214:	390b3b0b 	stmdbcc	fp, {r0, r1, r3, r8, r9, fp, ip, sp}
 218:	3f13490b 	svccc	0x0013490b
 21c:	00180219 	andseq	r0, r8, r9, lsl r2
 220:	002e0c00 	eoreq	r0, lr, r0, lsl #24
 224:	0e03193f 			; <UNDEFINED> instruction: 0x0e03193f
 228:	0b3b0b3a 	bleq	ec2f18 <_Min_Stack_Size+0xec2b18>
 22c:	19270b39 	stmdbne	r7!, {r0, r3, r4, r5, r8, r9, fp}
 230:	0000193c 	andeq	r1, r0, ip, lsr r9
 234:	3f012e0d 	svccc	0x00012e0d
 238:	3a0e0319 	bcc	380ea4 <_Min_Stack_Size+0x380aa4>
 23c:	390b3b0b 	stmdbcc	fp, {r0, r1, r3, r8, r9, fp, ip, sp}
 240:	3c19270b 	ldccc	7, cr2, [r9], {11}
 244:	00130119 	andseq	r0, r3, r9, lsl r1
 248:	00050e00 	andeq	r0, r5, r0, lsl #28
 24c:	00001349 	andeq	r1, r0, r9, asr #6
 250:	3f012e0f 	svccc	0x00012e0f
 254:	3a0e0319 	bcc	380ec0 <_Min_Stack_Size+0x380ac0>
 258:	390b3b0b 	stmdbcc	fp, {r0, r1, r3, r8, r9, fp, ip, sp}
 25c:	4919270b 	ldmdbmi	r9, {r0, r1, r3, r8, r9, sl, sp}
 260:	12011113 	andne	r1, r1, #-1073741820	; 0xc0000004
 264:	96184006 	ldrls	r4, [r8], -r6
 268:	13011942 	movwne	r1, #6466	; 0x1942
 26c:	34100000 	ldrcc	r0, [r0], #-0
 270:	3a0e0300 	bcc	380e78 <_Min_Stack_Size+0x380a78>
 274:	390b3b0b 	stmdbcc	fp, {r0, r1, r3, r8, r9, fp, ip, sp}
 278:	0213490b 	andseq	r4, r3, #180224	; 0x2c000
 27c:	11000018 	tstne	r0, r8, lsl r0
 280:	193f002e 	ldmdbne	pc!, {r1, r2, r3, r5}	; <UNPREDICTABLE>
 284:	0b3a0e03 	bleq	e83a98 <_Min_Stack_Size+0xe83698>
 288:	0b390b3b 	bleq	e42f7c <_Min_Stack_Size+0xe42b7c>
 28c:	01111927 	tsteq	r1, r7, lsr #18
 290:	18400612 	stmdane	r0, {r1, r4, r9, sl}^
 294:	00194297 	mulseq	r9, r7, r2
 298:	11010000 	mrsne	r0, (UNDEF: 1)
 29c:	55061000 	strpl	r1, [r6, #-0]
 2a0:	1b0e0306 	blne	380ec0 <_Min_Stack_Size+0x380ac0>
 2a4:	130e250e 	movwne	r2, #58638	; 0xe50e
 2a8:	00000005 	andeq	r0, r0, r5
 2ac:	25011101 	strcs	r1, [r1, #-257]	; 0xfffffeff
 2b0:	030b130e 	movweq	r1, #45838	; 0xb30e
 2b4:	550e1b0e 	strpl	r1, [lr, #-2830]	; 0xfffff4f2
 2b8:	10011117 	andne	r1, r1, r7, lsl r1
 2bc:	17429917 	smlaldne	r9, r2, r7, r9
 2c0:	24020000 	strcs	r0, [r2], #-0
 2c4:	3e0b0b00 	vmlacc.f64	d0, d11, d0
 2c8:	000e030b 	andeq	r0, lr, fp, lsl #6
 2cc:	00240300 	eoreq	r0, r4, r0, lsl #6
 2d0:	0b3e0b0b 	bleq	f82f04 <_Min_Stack_Size+0xf82b04>
 2d4:	00000803 	andeq	r0, r0, r3, lsl #16
 2d8:	03001604 	movweq	r1, #1540	; 0x604
 2dc:	3b0b3a0e 	blcc	2ceb1c <_Min_Stack_Size+0x2ce71c>
 2e0:	490b390b 	stmdbmi	fp, {r0, r1, r3, r8, fp, ip, sp}
 2e4:	05000013 	streq	r0, [r0, #-19]	; 0xffffffed
 2e8:	0b0b000f 	bleq	2c032c <_Min_Stack_Size+0x2bff2c>
 2ec:	00001349 	andeq	r1, r0, r9, asr #6
 2f0:	27001506 	strcs	r1, [r0, -r6, lsl #10]
 2f4:	07000019 	smladeq	r0, r9, r0, r0
 2f8:	13490035 	movtne	r0, #36917	; 0x9035
 2fc:	13080000 	movwne	r0, #32768	; 0x8000
 300:	3a0b0b01 	bcc	2c2f0c <_Min_Stack_Size+0x2c2b0c>
 304:	390b3b0b 	stmdbcc	fp, {r0, r1, r3, r8, r9, fp, ip, sp}
 308:	0013010b 	andseq	r0, r3, fp, lsl #2
 30c:	000d0900 	andeq	r0, sp, r0, lsl #18
 310:	0b3a0803 	bleq	e82324 <_Min_Stack_Size+0xe81f24>
 314:	0b390b3b 	bleq	e43008 <_Min_Stack_Size+0xe42c08>
 318:	0b381349 	bleq	e05044 <_Min_Stack_Size+0xe04c44>
 31c:	0d0a0000 	stceq	0, cr0, [sl, #-0]
 320:	3a0e0300 	bcc	380f28 <_Min_Stack_Size+0x380b28>
 324:	390b3b0b 	stmdbcc	fp, {r0, r1, r3, r8, r9, fp, ip, sp}
 328:	3813490b 	ldmdacc	r3, {r0, r1, r3, r8, fp, lr}
 32c:	0b00000b 	bleq	360 <_Min_Heap_Size+0x160>
 330:	13490101 	movtne	r0, #37121	; 0x9101
 334:	00001301 	andeq	r1, r0, r1, lsl #6
 338:	4900210c 	stmdbmi	r0, {r2, r3, r8, sp}
 33c:	000b2f13 	andeq	r2, fp, r3, lsl pc
 340:	00340d00 	eorseq	r0, r4, r0, lsl #26
 344:	0b3a0e03 	bleq	e83b58 <_Min_Stack_Size+0xe83758>
 348:	0b390b3b 	bleq	e4303c <_Min_Stack_Size+0xe42c3c>
 34c:	193f1349 	ldmdbne	pc!, {r0, r3, r6, r8, r9, ip}	; <UNPREDICTABLE>
 350:	00001802 	andeq	r1, r0, r2, lsl #16
 354:	3f012e0e 	svccc	0x00012e0e
 358:	3a0e0319 	bcc	380fc4 <_Min_Stack_Size+0x380bc4>
 35c:	390b3b0b 	stmdbcc	fp, {r0, r1, r3, r8, r9, fp, ip, sp}
 360:	3c19270b 	ldccc	7, cr2, [r9], {11}
 364:	00130119 	andseq	r0, r3, r9, lsl r1
 368:	00050f00 	andeq	r0, r5, r0, lsl #30
 36c:	00001349 	andeq	r1, r0, r9, asr #6
 370:	3f002e10 	svccc	0x00002e10
 374:	3a0e0319 	bcc	380fe0 <_Min_Stack_Size+0x380be0>
 378:	39053b0b 	stmdbcc	r5, {r0, r1, r3, r8, r9, fp, ip, sp}
 37c:	1119270b 	tstne	r9, fp, lsl #14
 380:	40061201 	andmi	r1, r6, r1, lsl #4
 384:	19429618 	stmdbne	r2, {r3, r4, r9, sl, ip, pc}^
 388:	2e110000 	cdpcs	0, 1, cr0, cr1, cr0, {0}
 38c:	03193f00 	tsteq	r9, #0, 30
 390:	3b0b3a0e 	blcc	2cebd0 <_Min_Stack_Size+0x2ce7d0>
 394:	270b390b 	strcs	r3, [fp, -fp, lsl #18]
 398:	12011119 	andne	r1, r1, #1073741830	; 0x40000006
 39c:	96184006 	ldrls	r4, [r8], -r6
 3a0:	00001942 	andeq	r1, r0, r2, asr #18
 3a4:	3f012e12 	svccc	0x00012e12
 3a8:	3a0e0319 	bcc	381014 <_Min_Stack_Size+0x380c14>
 3ac:	390b3b0b 	stmdbcc	fp, {r0, r1, r3, r8, r9, fp, ip, sp}
 3b0:	1119270b 	tstne	r9, fp, lsl #14
 3b4:	40061201 	andmi	r1, r6, r1, lsl #4
 3b8:	19429618 	stmdbne	r2, {r3, r4, r9, sl, ip, pc}^
 3bc:	00001301 	andeq	r1, r0, r1, lsl #6
 3c0:	03000513 	movweq	r0, #1299	; 0x513
 3c4:	3b0b3a0e 	blcc	2cec04 <_Min_Stack_Size+0x2ce804>
 3c8:	490b390b 	stmdbmi	fp, {r0, r1, r3, r8, fp, ip, sp}
 3cc:	00180213 	andseq	r0, r8, r3, lsl r2
 3d0:	00341400 	eorseq	r1, r4, r0, lsl #8
 3d4:	0b3a0e03 	bleq	e83be8 <_Min_Stack_Size+0xe837e8>
 3d8:	0b390b3b 	bleq	e430cc <_Min_Stack_Size+0xe42ccc>
 3dc:	18021349 	stmdane	r2, {r0, r3, r6, r8, r9, ip}
 3e0:	2e150000 	cdpcs	0, 1, cr0, cr5, cr0, {0}
 3e4:	03193f00 	tsteq	r9, #0, 30
 3e8:	3b0b3a0e 	blcc	2cec28 <_Min_Stack_Size+0x2ce828>
 3ec:	270b390b 	strcs	r3, [fp, -fp, lsl #18]
 3f0:	12011119 	andne	r1, r1, #1073741830	; 0x40000006
 3f4:	97184006 	ldrls	r4, [r8, -r6]
 3f8:	00001942 	andeq	r1, r0, r2, asr #18
 3fc:	3f012e16 	svccc	0x00012e16
 400:	3a0e0319 	bcc	38106c <_Min_Stack_Size+0x380c6c>
 404:	390b3b0b 	stmdbcc	fp, {r0, r1, r3, r8, r9, fp, ip, sp}
 408:	1119270b 	tstne	r9, fp, lsl #14
 40c:	40061201 	andmi	r1, r6, r1, lsl #4
 410:	19429718 	stmdbne	r2, {r3, r4, r8, r9, sl, ip, pc}^
 414:	00001301 	andeq	r1, r0, r1, lsl #6
 418:	03000517 	movweq	r0, #1303	; 0x517
 41c:	3b0b3a08 	blcc	2cec44 <_Min_Stack_Size+0x2ce844>
 420:	490b390b 	stmdbmi	fp, {r0, r1, r3, r8, fp, ip, sp}
 424:	00180213 	andseq	r0, r8, r3, lsl r2
 428:	012e1800 			; <UNDEFINED> instruction: 0x012e1800
 42c:	0e03193f 			; <UNDEFINED> instruction: 0x0e03193f
 430:	0b3b0b3a 	bleq	ec3120 <_Min_Stack_Size+0xec2d20>
 434:	19270b39 	stmdbne	r7!, {r0, r3, r4, r5, r8, r9, fp}
 438:	06120111 			; <UNDEFINED> instruction: 0x06120111
 43c:	42971840 	addsmi	r1, r7, #64, 16	; 0x400000
 440:	00000019 	andeq	r0, r0, r9, lsl r0
 444:	25011101 	strcs	r1, [r1, #-257]	; 0xfffffeff
 448:	030b130e 	movweq	r1, #45838	; 0xb30e
 44c:	550e1b0e 	strpl	r1, [lr, #-2830]	; 0xfffff4f2
 450:	10011117 	andne	r1, r1, r7, lsl r1
 454:	17429917 	smlaldne	r9, r2, r7, r9
 458:	24020000 	strcs	r0, [r2], #-0
 45c:	3e0b0b00 	vmlacc.f64	d0, d11, d0
 460:	000e030b 	andeq	r0, lr, fp, lsl #6
 464:	00240300 	eoreq	r0, r4, r0, lsl #6
 468:	0b3e0b0b 	bleq	f8309c <_Min_Stack_Size+0xf82c9c>
 46c:	00000803 	andeq	r0, r0, r3, lsl #16
 470:	03001604 	movweq	r1, #1540	; 0x604
 474:	3b0b3a0e 	blcc	2cecb4 <_Min_Stack_Size+0x2ce8b4>
 478:	490b390b 	stmdbmi	fp, {r0, r1, r3, r8, fp, ip, sp}
 47c:	05000013 	streq	r0, [r0, #-19]	; 0xffffffed
 480:	13490035 	movtne	r0, #36917	; 0x9035
 484:	13060000 	movwne	r0, #24576	; 0x6000
 488:	3a0b0b01 	bcc	2c3094 <_Min_Stack_Size+0x2c2c94>
 48c:	390b3b0b 	stmdbcc	fp, {r0, r1, r3, r8, r9, fp, ip, sp}
 490:	0013010b 	andseq	r0, r3, fp, lsl #2
 494:	000d0700 	andeq	r0, sp, r0, lsl #14
 498:	0b3a0803 	bleq	e824ac <_Min_Stack_Size+0xe820ac>
 49c:	0b390b3b 	bleq	e43190 <_Min_Stack_Size+0xe42d90>
 4a0:	0b381349 	bleq	e051cc <_Min_Stack_Size+0xe04dcc>
 4a4:	0d080000 	stceq	0, cr0, [r8, #-0]
 4a8:	3a0e0300 	bcc	3810b0 <_Min_Stack_Size+0x380cb0>
 4ac:	390b3b0b 	stmdbcc	fp, {r0, r1, r3, r8, r9, fp, ip, sp}
 4b0:	3813490b 	ldmdacc	r3, {r0, r1, r3, r8, fp, lr}
 4b4:	0900000b 	stmdbeq	r0, {r0, r1, r3}
 4b8:	193f012e 	ldmdbne	pc!, {r1, r2, r3, r5, r8}	; <UNPREDICTABLE>
 4bc:	0b3a0e03 	bleq	e83cd0 <_Min_Stack_Size+0xe838d0>
 4c0:	0b390b3b 	bleq	e431b4 <_Min_Stack_Size+0xe42db4>
 4c4:	13491927 	movtne	r1, #39207	; 0x9927
 4c8:	06120111 			; <UNDEFINED> instruction: 0x06120111
 4cc:	42971840 	addsmi	r1, r7, #64, 16	; 0x400000
 4d0:	00130119 	andseq	r0, r3, r9, lsl r1
 4d4:	00050a00 	andeq	r0, r5, r0, lsl #20
 4d8:	0b3a0e03 	bleq	e83cec <_Min_Stack_Size+0xe838ec>
 4dc:	0b390b3b 	bleq	e431d0 <_Min_Stack_Size+0xe42dd0>
 4e0:	18021349 	stmdane	r2, {r0, r3, r6, r8, r9, ip}
 4e4:	340b0000 	strcc	r0, [fp], #-0
 4e8:	3a0e0300 	bcc	3810f0 <_Min_Stack_Size+0x380cf0>
 4ec:	39053b0b 	stmdbcc	r5, {r0, r1, r3, r8, r9, fp, ip, sp}
 4f0:	0213490b 	andseq	r4, r3, #180224	; 0x2c000
 4f4:	0c000018 	stceq	0, cr0, [r0], {24}
 4f8:	0b0b000f 	bleq	2c053c <_Min_Stack_Size+0x2c013c>
 4fc:	00001349 	andeq	r1, r0, r9, asr #6
 500:	3f012e0d 	svccc	0x00012e0d
 504:	3a0e0319 	bcc	381170 <_Min_Stack_Size+0x380d70>
 508:	390b3b0b 	stmdbcc	fp, {r0, r1, r3, r8, r9, fp, ip, sp}
 50c:	1119270b 	tstne	r9, fp, lsl #14
 510:	40061201 	andmi	r1, r6, r1, lsl #4
 514:	19429718 	stmdbne	r2, {r3, r4, r8, r9, sl, ip, pc}^
 518:	00001301 	andeq	r1, r0, r1, lsl #6
 51c:	0300340e 	movweq	r3, #1038	; 0x40e
 520:	3b0b3a0e 	blcc	2ced60 <_Min_Stack_Size+0x2ce960>
 524:	490b390b 	stmdbmi	fp, {r0, r1, r3, r8, fp, ip, sp}
 528:	00180213 	andseq	r0, r8, r3, lsl r2
 52c:	012e0f00 			; <UNDEFINED> instruction: 0x012e0f00
 530:	0e03193f 			; <UNDEFINED> instruction: 0x0e03193f
 534:	0b3b0b3a 	bleq	ec3224 <_Min_Stack_Size+0xec2e24>
 538:	19270b39 	stmdbne	r7!, {r0, r3, r4, r5, r8, r9, fp}
 53c:	06120111 			; <UNDEFINED> instruction: 0x06120111
 540:	42961840 	addsmi	r1, r6, #64, 16	; 0x400000
 544:	00130119 	andseq	r0, r3, r9, lsl r1
 548:	012e1000 			; <UNDEFINED> instruction: 0x012e1000
 54c:	0e03193f 			; <UNDEFINED> instruction: 0x0e03193f
 550:	0b3b0b3a 	bleq	ec3240 <_Min_Stack_Size+0xec2e40>
 554:	19270b39 	stmdbne	r7!, {r0, r3, r4, r5, r8, r9, fp}
 558:	01111349 	tsteq	r1, r9, asr #6
 55c:	18400612 	stmdane	r0, {r1, r4, r9, sl}^
 560:	00194297 	mulseq	r9, r7, r2
	...

Disassembly of section .debug_aranges:

00000000 <.debug_aranges>:
   0:	00000074 	andeq	r0, r0, r4, ror r0
   4:	00000002 	andeq	r0, r0, r2
   8:	00040000 	andeq	r0, r4, r0
   c:	00000000 	andeq	r0, r0, r0
  10:	08000170 	stmdaeq	r0, {r4, r5, r6, r8}
  14:	0000003a 	andeq	r0, r0, sl, lsr r0
  18:	080001ac 	stmdaeq	r0, {r2, r3, r5, r7, r8}
  1c:	00000158 	andeq	r0, r0, r8, asr r1
  20:	00000000 	andeq	r0, r0, r0
  24:	000000d8 	ldrdeq	r0, [r0], -r8
  28:	08000304 	stmdaeq	r0, {r2, r8, r9}
  2c:	0000002c 	andeq	r0, r0, ip, lsr #32
  30:	08000330 	stmdaeq	r0, {r4, r5, r8, r9}
  34:	00000044 	andeq	r0, r0, r4, asr #32
  38:	08000374 	stmdaeq	r0, {r2, r4, r5, r6, r8, r9}
  3c:	00000034 	andeq	r0, r0, r4, lsr r0
  40:	00000000 	andeq	r0, r0, r0
  44:	00000044 	andeq	r0, r0, r4, asr #32
  48:	00000000 	andeq	r0, r0, r0
  4c:	0000005a 	andeq	r0, r0, sl, asr r0
  50:	00000000 	andeq	r0, r0, r0
  54:	0000004a 	andeq	r0, r0, sl, asr #32
  58:	080003a8 	stmdaeq	r0, {r3, r5, r7, r8, r9}
  5c:	0000000e 	andeq	r0, r0, lr
  60:	00000000 	andeq	r0, r0, r0
  64:	0000002c 	andeq	r0, r0, ip, lsr #32
  68:	00000000 	andeq	r0, r0, r0
  6c:	0000008c 	andeq	r0, r0, ip, lsl #1
	...
  78:	00000024 	andeq	r0, r0, r4, lsr #32
  7c:	043c0002 	ldrteq	r0, [ip], #-2
  80:	00040000 	andeq	r0, r4, r0
  84:	00000000 	andeq	r0, r0, r0
  88:	080003b8 	stmdaeq	r0, {r3, r4, r5, r7, r8, r9}
  8c:	00000030 	andeq	r0, r0, r0, lsr r0
  90:	080003e8 	stmdaeq	r0, {r3, r5, r6, r7, r8, r9}
  94:	00000088 	andeq	r0, r0, r8, lsl #1
	...
  a0:	00000024 	andeq	r0, r0, r4, lsr #32
  a4:	07800002 	streq	r0, [r0, r2]
  a8:	00040000 	andeq	r0, r4, r0
  ac:	00000000 	andeq	r0, r0, r0
  b0:	08000470 	stmdaeq	r0, {r4, r5, r6, sl}
  b4:	00000050 	andeq	r0, r0, r0, asr r0
  b8:	080004c0 	stmdaeq	r0, {r6, r7, sl}
  bc:	00000002 	andeq	r0, r0, r2
	...
  c8:	0000007c 	andeq	r0, r0, ip, ror r0
  cc:	07a20002 	streq	r0, [r2, r2]!
  d0:	00040000 	andeq	r0, r4, r0
  d4:	00000000 	andeq	r0, r0, r0
  d8:	080004c4 	stmdaeq	r0, {r2, r6, r7, sl}
  dc:	000000cc 	andeq	r0, r0, ip, asr #1
  e0:	08000590 	stmdaeq	r0, {r4, r7, r8, sl}
  e4:	000000cc 	andeq	r0, r0, ip, asr #1
  e8:	00000000 	andeq	r0, r0, r0
  ec:	00000094 	muleq	r0, r4, r0
  f0:	0800065c 	stmdaeq	r0, {r2, r3, r4, r6, r9, sl}
  f4:	00000016 	andeq	r0, r0, r6, lsl r0
  f8:	08000674 	stmdaeq	r0, {r2, r4, r5, r6, r9, sl}
  fc:	000001e0 	andeq	r0, r0, r0, ror #3
 100:	00000000 	andeq	r0, r0, r0
 104:	00000016 	andeq	r0, r0, r6, lsl r0
 108:	08000854 	stmdaeq	r0, {r2, r4, r6, fp}
 10c:	00000024 	andeq	r0, r0, r4, lsr #32
 110:	08000878 	stmdaeq	r0, {r3, r4, r5, r6, fp}
 114:	00000024 	andeq	r0, r0, r4, lsr #32
 118:	0800089c 	stmdaeq	r0, {r2, r3, r4, r7, fp}
 11c:	00000024 	andeq	r0, r0, r4, lsr #32
 120:	080008c0 	stmdaeq	r0, {r6, r7, fp}
 124:	00000024 	andeq	r0, r0, r4, lsr #32
 128:	080008e4 	stmdaeq	r0, {r2, r5, r6, r7, fp}
 12c:	00000024 	andeq	r0, r0, r4, lsr #32
 130:	08000908 	stmdaeq	r0, {r3, r8, fp}
 134:	000000a8 	andeq	r0, r0, r8, lsr #1
 138:	080009b0 	stmdaeq	r0, {r4, r5, r7, r8, fp}
 13c:	000000c4 	andeq	r0, r0, r4, asr #1
	...
 148:	0000005c 	andeq	r0, r0, ip, asr r0
 14c:	0c4a0002 	mcrreq	0, 0, r0, sl, cr2
 150:	00040000 	andeq	r0, r4, r0
 154:	00000000 	andeq	r0, r0, r0
 158:	08000a74 	stmdaeq	r0, {r2, r4, r5, r6, r9, fp}
 15c:	0000016e 	andeq	r0, r0, lr, ror #2
 160:	08000be4 	stmdaeq	r0, {r2, r5, r6, r7, r8, r9, fp}
 164:	000000f8 	strdeq	r0, [r0], -r8
 168:	00000000 	andeq	r0, r0, r0
 16c:	000000d4 	ldrdeq	r0, [r0], -r4
 170:	00000000 	andeq	r0, r0, r0
 174:	0000002e 	andeq	r0, r0, lr, lsr #32
 178:	00000000 	andeq	r0, r0, r0
 17c:	0000001a 	andeq	r0, r0, sl, lsl r0
 180:	08000cdc 	stmdaeq	r0, {r2, r3, r4, r6, r7, sl, fp}
 184:	0000001c 	andeq	r0, r0, ip, lsl r0
 188:	08000cf8 	stmdaeq	r0, {r3, r4, r5, r6, r7, sl, fp}
 18c:	0000002e 	andeq	r0, r0, lr, lsr #32
 190:	00000000 	andeq	r0, r0, r0
 194:	00000022 	andeq	r0, r0, r2, lsr #32
 198:	00000000 	andeq	r0, r0, r0
 19c:	0000004e 	andeq	r0, r0, lr, asr #32
	...

Disassembly of section .debug_ranges:

00000000 <.debug_ranges>:
   0:	08000170 	stmdaeq	r0, {r4, r5, r6, r8}
   4:	080001aa 	stmdaeq	r0, {r1, r3, r5, r7, r8}
   8:	080001ac 	stmdaeq	r0, {r2, r3, r5, r7, r8}
   c:	08000304 	stmdaeq	r0, {r2, r8, r9}
  10:	00000001 	andeq	r0, r0, r1
  14:	00000001 	andeq	r0, r0, r1
  18:	08000304 	stmdaeq	r0, {r2, r8, r9}
  1c:	08000330 	stmdaeq	r0, {r4, r5, r8, r9}
  20:	08000330 	stmdaeq	r0, {r4, r5, r8, r9}
  24:	08000374 	stmdaeq	r0, {r2, r4, r5, r6, r8, r9}
  28:	08000374 	stmdaeq	r0, {r2, r4, r5, r6, r8, r9}
  2c:	080003a8 	stmdaeq	r0, {r3, r5, r7, r8, r9}
  30:	00000001 	andeq	r0, r0, r1
  34:	00000001 	andeq	r0, r0, r1
  38:	00000001 	andeq	r0, r0, r1
  3c:	00000001 	andeq	r0, r0, r1
  40:	00000001 	andeq	r0, r0, r1
  44:	00000001 	andeq	r0, r0, r1
  48:	080003a8 	stmdaeq	r0, {r3, r5, r7, r8, r9}
  4c:	080003b6 	stmdaeq	r0, {r1, r2, r4, r5, r7, r8, r9}
  50:	00000001 	andeq	r0, r0, r1
  54:	00000001 	andeq	r0, r0, r1
  58:	00000001 	andeq	r0, r0, r1
  5c:	00000001 	andeq	r0, r0, r1
	...
  68:	080003b8 	stmdaeq	r0, {r3, r4, r5, r7, r8, r9}
  6c:	080003e8 	stmdaeq	r0, {r3, r5, r6, r7, r8, r9}
  70:	080003e8 	stmdaeq	r0, {r3, r5, r6, r7, r8, r9}
  74:	08000470 	stmdaeq	r0, {r4, r5, r6, sl}
	...
  80:	ffffffff 			; <UNDEFINED> instruction: 0xffffffff
  84:	00000000 	andeq	r0, r0, r0
  88:	08000470 	stmdaeq	r0, {r4, r5, r6, sl}
  8c:	080004c0 	stmdaeq	r0, {r6, r7, sl}
  90:	080004c0 	stmdaeq	r0, {r6, r7, sl}
  94:	080004c2 	stmdaeq	r0, {r1, r6, r7, sl}
	...
  a0:	080004c4 	stmdaeq	r0, {r2, r6, r7, sl}
  a4:	08000590 	stmdaeq	r0, {r4, r7, r8, sl}
  a8:	08000590 	stmdaeq	r0, {r4, r7, r8, sl}
  ac:	0800065c 	stmdaeq	r0, {r2, r3, r4, r6, r9, sl}
  b0:	00000001 	andeq	r0, r0, r1
  b4:	00000001 	andeq	r0, r0, r1
  b8:	0800065c 	stmdaeq	r0, {r2, r3, r4, r6, r9, sl}
  bc:	08000672 	stmdaeq	r0, {r1, r4, r5, r6, r9, sl}
  c0:	08000674 	stmdaeq	r0, {r2, r4, r5, r6, r9, sl}
  c4:	08000854 	stmdaeq	r0, {r2, r4, r6, fp}
  c8:	00000001 	andeq	r0, r0, r1
  cc:	00000001 	andeq	r0, r0, r1
  d0:	08000854 	stmdaeq	r0, {r2, r4, r6, fp}
  d4:	08000878 	stmdaeq	r0, {r3, r4, r5, r6, fp}
  d8:	08000878 	stmdaeq	r0, {r3, r4, r5, r6, fp}
  dc:	0800089c 	stmdaeq	r0, {r2, r3, r4, r7, fp}
  e0:	0800089c 	stmdaeq	r0, {r2, r3, r4, r7, fp}
  e4:	080008c0 	stmdaeq	r0, {r6, r7, fp}
  e8:	080008c0 	stmdaeq	r0, {r6, r7, fp}
  ec:	080008e4 	stmdaeq	r0, {r2, r5, r6, r7, fp}
  f0:	080008e4 	stmdaeq	r0, {r2, r5, r6, r7, fp}
  f4:	08000908 	stmdaeq	r0, {r3, r8, fp}
  f8:	08000908 	stmdaeq	r0, {r3, r8, fp}
  fc:	080009b0 	stmdaeq	r0, {r4, r5, r7, r8, fp}
 100:	080009b0 	stmdaeq	r0, {r4, r5, r7, r8, fp}
 104:	08000a74 	stmdaeq	r0, {r2, r4, r5, r6, r9, fp}
	...
 110:	08000a74 	stmdaeq	r0, {r2, r4, r5, r6, r9, fp}
 114:	08000be2 	stmdaeq	r0, {r1, r5, r6, r7, r8, r9, fp}
 118:	08000be4 	stmdaeq	r0, {r2, r5, r6, r7, r8, r9, fp}
 11c:	08000cdc 	stmdaeq	r0, {r2, r3, r4, r6, r7, sl, fp}
 120:	00000001 	andeq	r0, r0, r1
 124:	00000001 	andeq	r0, r0, r1
 128:	00000001 	andeq	r0, r0, r1
 12c:	00000001 	andeq	r0, r0, r1
 130:	00000001 	andeq	r0, r0, r1
 134:	00000001 	andeq	r0, r0, r1
 138:	08000cdc 	stmdaeq	r0, {r2, r3, r4, r6, r7, sl, fp}
 13c:	08000cf8 	stmdaeq	r0, {r3, r4, r5, r6, r7, sl, fp}
 140:	08000cf8 	stmdaeq	r0, {r3, r4, r5, r6, r7, sl, fp}
 144:	08000d26 	stmdaeq	r0, {r1, r2, r5, r8, sl, fp}
 148:	00000001 	andeq	r0, r0, r1
 14c:	00000001 	andeq	r0, r0, r1
 150:	00000001 	andeq	r0, r0, r1
 154:	00000001 	andeq	r0, r0, r1
	...

Disassembly of section .debug_macro:

00000000 <.debug_macro>:
       0:	00020004 	andeq	r0, r2, r4
       4:	07000000 	streq	r0, [r0, -r0]
       8:	0000024f 	andeq	r0, r0, pc, asr #4
       c:	03010003 	movweq	r0, #4099	; 0x1003
      10:	c107070a 	tstgt	r7, sl, lsl #14
      14:	0300000c 	movweq	r0, #12
      18:	0a05040d 	beq	141054 <_Min_Stack_Size+0x140c54>
      1c:	000030ca 	andeq	r3, r0, sl, asr #1
      20:	05081203 	streq	r1, [r8, #-515]	; 0xfffffdfd
      24:	0070bf08 	rsbseq	fp, r0, r8, lsl #30
      28:	090a0300 	stmdbeq	sl, {r8, r9}
      2c:	000cd107 	andeq	sp, ip, r7, lsl #2
      30:	0b030400 	bleq	c1038 <_Min_Stack_Size+0xc0c38>
      34:	0608050a 	streq	r0, [r8], -sl, lsl #10
      38:	03000054 	movweq	r0, #84	; 0x54
      3c:	08050b0a 	stmdaeq	r5, {r1, r3, r8, r9, fp}
      40:	000012d4 	ldrdeq	r1, [r0], -r4
      44:	070c0e03 	streq	r0, [ip, -r3, lsl #28]
      48:	00000ce9 	andeq	r0, r0, r9, ror #25
      4c:	0d0b0704 	stceq	7, cr0, [fp, #-16]
      50:	03040000 	movweq	r0, #16384	; 0x4000
      54:	02050d0b 	andeq	r0, r5, #704	; 0x2c0
      58:	00007b41 	andeq	r7, r0, r1, asr #22
      5c:	04090403 	streq	r0, [r9], #-1027	; 0xfffffbfd
      60:	070e0503 	streq	r0, [lr, -r3, lsl #10]
      64:	00000d57 	andeq	r0, r0, r7, asr sp
      68:	0deb0704 	stcleq	7, cr0, [fp, #16]!
      6c:	07040000 	streq	r0, [r4, -r0]
      70:	00000e27 	andeq	r0, r0, r7, lsr #28
      74:	0e5b0704 	cdpeq	7, 5, cr0, cr11, cr4, {0}
      78:	10030000 	andne	r0, r3, r0
      7c:	0e71070f 	cdpeq	7, 7, cr0, cr1, cr15, {0}
      80:	03040000 	movweq	r0, #16384	; 0x4000
      84:	0b051012 	bleq	1440d4 <_Min_Stack_Size+0x143cd4>
      88:	000057c3 	andeq	r5, r0, r3, asr #15
      8c:	040a0d03 	streq	r0, [sl], #-3331	; 0xfffff2fd
      90:	070f0e03 	streq	r0, [pc, -r3, lsl #28]
      94:	00000f7f 	andeq	r0, r0, pc, ror pc
      98:	110f0304 	tstne	pc, r4, lsl #6
      9c:	00100c07 	andseq	r0, r0, r7, lsl #24
      a0:	0f180300 	svceq	0x00180300
      a4:	00102207 	andseq	r2, r0, r7, lsl #4
      a8:	1b030400 	blne	c10b0 <_Min_Stack_Size+0xc0cb0>
      ac:	af060512 	svcge	0x00060512
      b0:	0300005b 	movweq	r0, #91	; 0x5b
      b4:	65070207 	strvs	r0, [r7, #-519]	; 0xfffffdf9
      b8:	04000010 	streq	r0, [r0], #-16
      bc:	10bc0704 	adcsne	r0, ip, r4, lsl #14
      c0:	07040000 	streq	r0, [r4, -r0]
      c4:	000010f0 	strdeq	r1, [r0], -r0
      c8:	07132203 	ldreq	r2, [r3, -r3, lsl #4]
      cc:	00001100 	andeq	r1, r0, r0, lsl #2
      d0:	11580704 	cmpne	r8, r4, lsl #14
      d4:	f7030000 			; <UNDEFINED> instruction: 0xf7030000
      d8:	c9071403 	stmdbgt	r7, {r0, r1, sl, ip}
      dc:	04000011 	streq	r0, [r0], #-17	; 0xffffffef
      e0:	0011e507 	andseq	lr, r1, r7, lsl #10
      e4:	13030400 	movwne	r0, #13312	; 0x3400
      e8:	562b0515 			; <UNDEFINED> instruction: 0x562b0515
      ec:	0300007f 	movweq	r0, #127	; 0x7f
      f0:	07040f2f 	streq	r0, [r4, -pc, lsr #30]
      f4:	0000130f 	andeq	r1, r0, pc, lsl #6
      f8:	16140304 	ldrne	r0, [r4], -r4, lsl #6
      fc:	27bf0205 	ldrcs	r0, [pc, r5, lsl #4]!
     100:	03040000 	movweq	r0, #16384	; 0x4000
     104:	50071716 	andpl	r1, r7, r6, lsl r7
     108:	04000016 	streq	r0, [r0], #-22	; 0xffffffea
     10c:	00166607 	andseq	r6, r6, r7, lsl #12
     110:	13030400 	movwne	r0, #13312	; 0x3400
     114:	168f0718 	pkhbtne	r0, pc, r8, lsl #14	; <UNPREDICTABLE>
     118:	11030000 	mrsne	r0, (UNDEF: 3)
     11c:	16a5070f 	strtne	r0, [r5], pc, lsl #14
     120:	03040000 	movweq	r0, #16384	; 0x4000
     124:	04051914 	streq	r1, [r5], #-2324	; 0xfffff6ec
     128:	000019ad 	andeq	r1, r0, sp, lsr #19
     12c:	1a180304 	bne	600d44 <_Min_Stack_Size+0x600944>
     130:	1df41e05 	ldclne	14, cr1, [r4, #20]!
     134:	07040000 	streq	r0, [r4, -r0]
     138:	000016da 	ldrdeq	r1, [r0], -sl
     13c:	1b01bd03 	blne	6f550 <_Min_Stack_Size+0x6f150>
     140:	14030404 	strne	r0, [r3], #-1028	; 0xfffffbfc
     144:	1d09031c 	stcne	3, cr0, [r9, #-112]	; 0xffffff90
     148:	07d60a05 	ldrbeq	r0, [r6, r5, lsl #20]
     14c:	0d030000 	stceq	0, cr0, [r3, #-0]
     150:	16fa071e 	usatne	r0, #26, lr, lsl #14
     154:	03040000 	movweq	r0, #16384	; 0x4000
     158:	fd07030e 	stc2	3, cr0, [r7, #-56]	; 0xffffffc8
     15c:	04000017 	streq	r0, [r0], #-23	; 0xffffffe9
     160:	00186707 	andseq	r6, r8, r7, lsl #14
     164:	0d050400 	cfstrseq	mvf0, [r5, #-0]
     168:	000007cd 	andeq	r0, r0, sp, asr #15
     16c:	1a460704 	bne	1181d84 <_Min_Stack_Size+0x1181984>
     170:	03040000 	movweq	r0, #16384	; 0x4000
     174:	0a05050e 	beq	1415b4 <_Min_Stack_Size+0x1411b4>
     178:	00004504 	andeq	r4, r0, r4, lsl #10
     17c:	04041003 	streq	r1, [r4], #-3
     180:	001bf607 	andseq	pc, fp, r7, lsl #12
     184:	10030400 	andne	r0, r3, r0, lsl #8
     188:	1cc60706 	stclne	7, cr0, [r6], {6}
     18c:	24030000 	strcs	r0, [r3], #-0
     190:	16a5070f 	strtne	r0, [r5], pc, lsl #14
     194:	05040000 	streq	r0, [r4, #-0]
     198:	00202a27 	eoreq	r2, r0, r7, lsr #20
     19c:	1f280300 	svcne	0x00280300
     1a0:	001ce207 	andseq	lr, ip, r7, lsl #4
     1a4:	2f050400 	svccs	0x00050400
     1a8:	00003454 	andeq	r3, r0, r4, asr r4
     1ac:	07203d03 	streq	r3, [r0, -r3, lsl #26]!
     1b0:	00001cf2 	strdeq	r1, [r0], -r2
     1b4:	05213103 	streq	r3, [r1, #-259]!	; 0xfffffefd
     1b8:	00744b02 	rsbseq	r4, r4, r2, lsl #22
     1bc:	22060300 	andcs	r0, r6, #0, 6
     1c0:	001d0207 	andseq	r0, sp, r7, lsl #4
     1c4:	1e070400 	cfcpysne	mvf0, mvf7
     1c8:	0400001d 	streq	r0, [r0], #-29	; 0xffffffe3
     1cc:	05233203 	streq	r3, [r3, #-515]!	; 0xfffffdfd
     1d0:	005a2e02 	subseq	r2, sl, r2, lsl #28
     1d4:	240e0300 	strcs	r0, [lr], #-768	; 0xfffffd00
     1d8:	73132705 	tstvc	r3, #1310720	; 0x140000
     1dc:	03040000 	movweq	r0, #16384	; 0x4000
     1e0:	7007250f 	andvc	r2, r7, pc, lsl #10
     1e4:	0400001d 	streq	r0, [r0], #-29	; 0xffffffe3
     1e8:	05261003 	streq	r1, [r6, #-3]!
     1ec:	005f9c23 	subseq	r9, pc, r3, lsr #24
     1f0:	27260300 	strcs	r0, [r6, -r0, lsl #6]!
     1f4:	1a662505 	bne	1989610 <_Min_Stack_Size+0x1989210>
     1f8:	07040000 	streq	r0, [r4, -r0]
     1fc:	00001d92 	muleq	r0, r2, sp
     200:	1da20704 	stcne	7, cr0, [r2, #16]!
     204:	07040000 	streq	r0, [r4, -r0]
     208:	00001df4 	strdeq	r1, [r0], -r4
     20c:	2801df03 	stmdacs	r1, {r0, r1, r8, r9, sl, fp, ip, lr, pc}
     210:	889c1305 	ldmhi	ip, {r0, r2, r8, r9, ip}
     214:	17030000 	strne	r0, [r3, -r0]
     218:	1ec90729 	cdpne	7, 12, cr0, cr9, cr9, {1}
     21c:	07040000 	streq	r0, [r4, -r0]
     220:	00001ee5 	andeq	r1, r0, r5, ror #29
     224:	01e00304 	mvneq	r0, r4, lsl #6
     228:	e406042a 	str	r0, [r6], #-1066	; 0xfffffbd6
     22c:	00875b01 	addeq	r5, r7, r1, lsl #22
     230:	43050400 	movwmi	r0, #21504	; 0x5400
     234:	000025f1 	strdeq	r2, [r0], -r1
     238:	072b4f03 	streq	r4, [fp, -r3, lsl #30]!
     23c:	00001f22 	andeq	r1, r0, r2, lsr #30
     240:	1f380704 	svcne	0x00380704
     244:	07040000 	streq	r0, [r4, -r0]
     248:	0000207d 	andeq	r2, r0, sp, ror r0
     24c:	04000404 	streq	r0, [r0], #-1028	; 0xfffffbfc
     250:	00050000 	andeq	r0, r5, r0
     254:	00007ddb 	ldrdeq	r7, [r0], -fp
     258:	3b3d0005 	blcc	f40274 <_Min_Stack_Size+0xf3fe74>
     25c:	00050000 	andeq	r0, r5, r0
     260:	00005856 	andeq	r5, r0, r6, asr r8
     264:	21560005 	cmpcs	r6, r5
     268:	00050000 	andeq	r0, r5, r0
     26c:	00000c33 	andeq	r0, r0, r3, lsr ip
     270:	46a30005 	strtmi	r0, [r3], r5
     274:	00050000 	andeq	r0, r5, r0
     278:	00006f2f 	andeq	r6, r0, pc, lsr #30
     27c:	1f240005 	svcne	0x00240005
     280:	00050000 	andeq	r0, r5, r0
     284:	00008d19 	andeq	r8, r0, r9, lsl sp
     288:	772e0005 	strvc	r0, [lr, -r5]!
     28c:	00050000 	andeq	r0, r5, r0
     290:	0000225b 	andeq	r2, r0, fp, asr r2
     294:	3c2f0005 	stccc	0, cr0, [pc], #-20	; 288 <_Min_Heap_Size+0x88>
     298:	00050000 	andeq	r0, r5, r0
     29c:	000043d0 	ldrdeq	r4, [r0], -r0
     2a0:	8a170005 	bhi	5c02bc <_Min_Stack_Size+0x5bfebc>
     2a4:	00050000 	andeq	r0, r5, r0
     2a8:	00003dbd 			; <UNDEFINED> instruction: 0x00003dbd
     2ac:	69580005 	ldmdbvs	r8, {r0, r2}^
     2b0:	00050000 	andeq	r0, r5, r0
     2b4:	000080f2 	strdeq	r8, [r0], -r2
     2b8:	1b590005 	blne	16402d4 <_Min_Stack_Size+0x163fed4>
     2bc:	00050000 	andeq	r0, r5, r0
     2c0:	00000645 	andeq	r0, r0, r5, asr #12
     2c4:	26010005 	strcs	r0, [r1], -r5
     2c8:	00050000 	andeq	r0, r5, r0
     2cc:	00002168 	andeq	r2, r0, r8, ror #2
     2d0:	1c770005 	ldclne	0, cr0, [r7], #-20	; 0xffffffec
     2d4:	00050000 	andeq	r0, r5, r0
     2d8:	000027f7 	strdeq	r2, [r0], -r7
     2dc:	73530005 	cmpvc	r3, #5
     2e0:	00050000 	andeq	r0, r5, r0
     2e4:	000050ea 	andeq	r5, r0, sl, ror #1
     2e8:	5fc90005 	svcpl	0x00c90005
     2ec:	00050000 	andeq	r0, r5, r0
     2f0:	00006592 	muleq	r0, r2, r5
     2f4:	10850005 	addne	r0, r5, r5
     2f8:	00050000 	andeq	r0, r5, r0
     2fc:	00000798 	muleq	r0, r8, r7
     300:	536c0005 	cmnpl	ip, #5
     304:	00050000 	andeq	r0, r5, r0
     308:	00005a3d 	andeq	r5, r0, sp, lsr sl
     30c:	18d40005 	ldmne	r4, {r0, r2}^
     310:	00050000 	andeq	r0, r5, r0
     314:	000007b2 			; <UNDEFINED> instruction: 0x000007b2
     318:	31d00005 	bicscc	r0, r0, r5
     31c:	00050000 	andeq	r0, r5, r0
     320:	00002843 	andeq	r2, r0, r3, asr #16
     324:	59240005 	stmdbpl	r4!, {r0, r2}
     328:	00050000 	andeq	r0, r5, r0
     32c:	00006fb8 			; <UNDEFINED> instruction: 0x00006fb8
     330:	19bd0005 	ldmibne	sp!, {r0, r2}
     334:	00050000 	andeq	r0, r5, r0
     338:	000068a2 	andeq	r6, r0, r2, lsr #17
     33c:	1a8b0005 	bne	fe2c0358 <_estack+0xde2bb358>
     340:	00050000 	andeq	r0, r5, r0
     344:	0000542b 	andeq	r5, r0, fp, lsr #8
     348:	07f60005 	ldrbeq	r0, [r6, r5]!
     34c:	00050000 	andeq	r0, r5, r0
     350:	00000a72 	andeq	r0, r0, r2, ror sl
     354:	6bf80005 	blvs	ffe00370 <_estack+0xdfdfb370>
     358:	00050000 	andeq	r0, r5, r0
     35c:	000050ba 	strheq	r5, [r0], -sl
     360:	323f0005 	eorscc	r0, pc, #5
     364:	00050000 	andeq	r0, r5, r0
     368:	00003f67 	andeq	r3, r0, r7, ror #30
     36c:	7fe40005 	svcvc	0x00e40005
     370:	00050000 	andeq	r0, r5, r0
     374:	00007367 	andeq	r7, r0, r7, ror #6
     378:	18e90005 	stmiane	r9!, {r0, r2}^
     37c:	00050000 	andeq	r0, r5, r0
     380:	00008430 	andeq	r8, r0, r0, lsr r4
     384:	64a00005 	strtvs	r0, [r0], #5
     388:	00050000 	andeq	r0, r5, r0
     38c:	00008cbd 			; <UNDEFINED> instruction: 0x00008cbd
     390:	5ad20005 	bpl	ff4803ac <_estack+0xdf47b3ac>
     394:	00050000 	andeq	r0, r5, r0
     398:	0000682f 	andeq	r6, r0, pc, lsr #16
     39c:	6f5b0005 	svcvs	0x005b0005
     3a0:	00050000 	andeq	r0, r5, r0
     3a4:	00004297 	muleq	r0, r7, r2
     3a8:	18290005 	stmdane	r9!, {r0, r2}
     3ac:	00050000 	andeq	r0, r5, r0
     3b0:	000067be 			; <UNDEFINED> instruction: 0x000067be
     3b4:	559d0005 	ldrpl	r0, [sp, #5]
     3b8:	00050000 	andeq	r0, r5, r0
     3bc:	00000c8d 	andeq	r0, r0, sp, lsl #25
     3c0:	407f0005 	rsbsmi	r0, pc, r5
     3c4:	00050000 	andeq	r0, r5, r0
     3c8:	0000820d 	andeq	r8, r0, sp, lsl #4
     3cc:	21230005 			; <UNDEFINED> instruction: 0x21230005
     3d0:	00050000 	andeq	r0, r5, r0
     3d4:	00002976 	andeq	r2, r0, r6, ror r9
     3d8:	14510005 	ldrbne	r0, [r1], #-5
     3dc:	00050000 	andeq	r0, r5, r0
     3e0:	0000722e 	andeq	r7, r0, lr, lsr #4
     3e4:	2ec90005 	cdpcs	0, 12, cr0, cr9, cr5, {0}
     3e8:	00050000 	andeq	r0, r5, r0
     3ec:	00005801 	andeq	r5, r0, r1, lsl #16
     3f0:	24fe0005 	ldrbtcs	r0, [lr], #5
     3f4:	00050000 	andeq	r0, r5, r0
     3f8:	000049d7 	ldrdeq	r4, [r0], -r7
     3fc:	873a0005 	ldrhi	r0, [sl, -r5]!
     400:	00050000 	andeq	r0, r5, r0
     404:	0000613a 	andeq	r6, r0, sl, lsr r1
     408:	05570005 	ldrbeq	r0, [r7, #-5]
     40c:	00050000 	andeq	r0, r5, r0
     410:	00004931 	andeq	r4, r0, r1, lsr r9
     414:	83b00005 	movshi	r0, #5
     418:	00050000 	andeq	r0, r5, r0
     41c:	0000836a 	andeq	r8, r0, sl, ror #6
     420:	038c0005 	orreq	r0, ip, #5
     424:	00050000 	andeq	r0, r5, r0
     428:	00008648 	andeq	r8, r0, r8, asr #12
     42c:	40350005 	eorsmi	r0, r5, r5
     430:	00050000 	andeq	r0, r5, r0
     434:	00005b0f 	andeq	r5, r0, pc, lsl #22
     438:	65360005 	ldrvs	r0, [r6, #-5]!
     43c:	00050000 	andeq	r0, r5, r0
     440:	00004847 	andeq	r4, r0, r7, asr #16
     444:	4e2b0005 	cdpmi	0, 2, cr0, cr11, cr5, {0}
     448:	00050000 	andeq	r0, r5, r0
     44c:	00008869 	andeq	r8, r0, r9, ror #16
     450:	80820005 	addhi	r0, r2, r5
     454:	00050000 	andeq	r0, r5, r0
     458:	000011dc 	ldrdeq	r1, [r0], -ip
     45c:	82fe0005 	rscshi	r0, lr, #5
     460:	00050000 	andeq	r0, r5, r0
     464:	00000404 	andeq	r0, r0, r4, lsl #8
     468:	03da0005 	bicseq	r0, sl, #5
     46c:	00050000 	andeq	r0, r5, r0
     470:	00008c18 	andeq	r8, r0, r8, lsl ip
     474:	18bc0005 	ldmne	ip!, {r0, r2}
     478:	00050000 	andeq	r0, r5, r0
     47c:	00000714 	andeq	r0, r0, r4, lsl r7
     480:	77b80005 	ldrvc	r0, [r8, r5]!
     484:	00050000 	andeq	r0, r5, r0
     488:	000036c8 	andeq	r3, r0, r8, asr #13
     48c:	7c570005 	mrrcvc	0, 0, r0, r7, cr5
     490:	00050000 	andeq	r0, r5, r0
     494:	00003e70 	andeq	r3, r0, r0, ror lr
     498:	7b2c0005 	blvc	b004b4 <_Min_Stack_Size+0xb000b4>
     49c:	00050000 	andeq	r0, r5, r0
     4a0:	000040f7 	strdeq	r4, [r0], -r7
     4a4:	57a00005 	strpl	r0, [r0, r5]!
     4a8:	00050000 	andeq	r0, r5, r0
     4ac:	00002cb7 			; <UNDEFINED> instruction: 0x00002cb7
     4b0:	24500005 	ldrbcs	r0, [r0], #-5
     4b4:	00050000 	andeq	r0, r5, r0
     4b8:	00003add 	ldrdeq	r3, [r0], -sp
     4bc:	3ab80005 	bcc	fee004d8 <_estack+0xdedfb4d8>
     4c0:	00050000 	andeq	r0, r5, r0
     4c4:	00003bcd 	andeq	r3, r0, sp, asr #23
     4c8:	624d0005 	subvs	r0, sp, #5
     4cc:	00050000 	andeq	r0, r5, r0
     4d0:	000083c9 	andeq	r8, r0, r9, asr #7
     4d4:	2ef30005 	cdpcs	0, 15, cr0, cr3, cr5, {0}
     4d8:	00050000 	andeq	r0, r5, r0
     4dc:	000088b3 			; <UNDEFINED> instruction: 0x000088b3
     4e0:	38a20005 	stmiacc	r2!, {r0, r2}
     4e4:	00050000 	andeq	r0, r5, r0
     4e8:	00001e12 	andeq	r1, r0, r2, lsl lr
     4ec:	2b9f0005 	blcs	fe7c0508 <_estack+0xde7bb508>
     4f0:	00050000 	andeq	r0, r5, r0
     4f4:	00001c8b 	andeq	r1, r0, fp, lsl #25
     4f8:	414b0005 	cmpmi	fp, r5
     4fc:	00050000 	andeq	r0, r5, r0
     500:	0000738e 	andeq	r7, r0, lr, lsl #7
     504:	3dd00005 	ldclcc	0, cr0, [r0, #20]
     508:	00050000 	andeq	r0, r5, r0
     50c:	00006c10 	andeq	r6, r0, r0, lsl ip
     510:	0a630005 	beq	18c052c <_Min_Stack_Size+0x18c012c>
     514:	00050000 	andeq	r0, r5, r0
     518:	00000c17 	andeq	r0, r0, r7, lsl ip
     51c:	758e0005 	strvc	r0, [lr, #5]
     520:	00050000 	andeq	r0, r5, r0
     524:	00003d36 	andeq	r3, r0, r6, lsr sp
     528:	30980005 	addscc	r0, r8, r5
     52c:	00050000 	andeq	r0, r5, r0
     530:	000064ec 	andeq	r6, r0, ip, ror #9
     534:	42800005 	addmi	r0, r0, #5
     538:	00050000 	andeq	r0, r5, r0
     53c:	00007e44 	andeq	r7, r0, r4, asr #28
     540:	583f0005 	ldmdapl	pc!, {r0, r2}	; <UNPREDICTABLE>
     544:	00050000 	andeq	r0, r5, r0
     548:	0000696f 	andeq	r6, r0, pc, ror #18
     54c:	12e30005 	rscne	r0, r3, #5
     550:	00050000 	andeq	r0, r5, r0
     554:	0000223d 	andeq	r2, r0, sp, lsr r2
     558:	20d20005 	sbcscs	r0, r2, r5
     55c:	00050000 	andeq	r0, r5, r0
     560:	0000171a 	andeq	r1, r0, sl, lsl r7
     564:	0fa30005 	svceq	0x00a30005
     568:	00050000 	andeq	r0, r5, r0
     56c:	0000126c 	andeq	r1, r0, ip, ror #4
     570:	14060005 	strne	r0, [r6], #-5
     574:	00050000 	andeq	r0, r5, r0
     578:	00001b25 	andeq	r1, r0, r5, lsr #22
     57c:	4e790005 	cdpmi	0, 7, cr0, cr9, cr5, {0}
     580:	00050000 	andeq	r0, r5, r0
     584:	0000138f 	andeq	r1, r0, pc, lsl #7
     588:	4f270005 	svcmi	0x00270005
     58c:	00050000 	andeq	r0, r5, r0
     590:	00000e10 	andeq	r0, r0, r0, lsl lr
     594:	59560005 	ldmdbpl	r6, {r0, r2}^
     598:	00050000 	andeq	r0, r5, r0
     59c:	00003f0c 	andeq	r3, r0, ip, lsl #30
     5a0:	57d20005 	ldrbpl	r0, [r2, r5]
     5a4:	00050000 	andeq	r0, r5, r0
     5a8:	00004014 	andeq	r4, r0, r4, lsl r0
     5ac:	38bb0005 	ldmcc	fp!, {r0, r2}
     5b0:	00050000 	andeq	r0, r5, r0
     5b4:	00004a3c 	andeq	r4, r0, ip, lsr sl
     5b8:	440f0005 	strmi	r0, [pc], #-5	; 5c0 <_Min_Stack_Size+0x1c0>
     5bc:	00050000 	andeq	r0, r5, r0
     5c0:	000020b2 	strheq	r2, [r0], -r2	; <UNPREDICTABLE>
     5c4:	56070005 	strpl	r0, [r7], -r5
     5c8:	00050000 	andeq	r0, r5, r0
     5cc:	00006647 	andeq	r6, r0, r7, asr #12
     5d0:	1b450005 	blne	11405ec <_Min_Stack_Size+0x11401ec>
     5d4:	00050000 	andeq	r0, r5, r0
     5d8:	000021cd 	andeq	r2, r0, sp, asr #3
     5dc:	1dde0005 	ldclne	0, cr0, [lr, #20]
     5e0:	00050000 	andeq	r0, r5, r0
     5e4:	00002a51 	andeq	r2, r0, r1, asr sl
     5e8:	65d70005 	ldrbvs	r0, [r7, #5]
     5ec:	00050000 	andeq	r0, r5, r0
     5f0:	000029f1 	strdeq	r2, [r0], -r1
     5f4:	313d0005 	teqcc	sp, r5
     5f8:	00050000 	andeq	r0, r5, r0
     5fc:	00002f0e 	andeq	r2, r0, lr, lsl #30
     600:	07e10005 	strbeq	r0, [r1, r5]!
     604:	00050000 	andeq	r0, r5, r0
     608:	00003de9 	andeq	r3, r0, r9, ror #27
     60c:	5c370005 	ldcpl	0, cr0, [r7], #-20	; 0xffffffec
     610:	00050000 	andeq	r0, r5, r0
     614:	00008c3e 	andeq	r8, r0, lr, lsr ip
     618:	72bb0005 	adcsvc	r0, fp, #5
     61c:	00050000 	andeq	r0, r5, r0
     620:	00006295 	muleq	r0, r5, r2
     624:	105b0005 	subsne	r0, fp, r5
     628:	00050000 	andeq	r0, r5, r0
     62c:	000043b3 			; <UNDEFINED> instruction: 0x000043b3
     630:	067c0005 	ldrbteq	r0, [ip], -r5
     634:	00050000 	andeq	r0, r5, r0
     638:	000079b6 			; <UNDEFINED> instruction: 0x000079b6
     63c:	845d0005 	ldrbhi	r0, [sp], #-5
     640:	00050000 	andeq	r0, r5, r0
     644:	000054ab 	andeq	r5, r0, fp, lsr #9
     648:	175c0005 	ldrbne	r0, [ip, -r5]
     64c:	00050000 	andeq	r0, r5, r0
     650:	00003d58 	andeq	r3, r0, r8, asr sp
     654:	55670005 	strbpl	r0, [r7, #-5]!
     658:	00050000 	andeq	r0, r5, r0
     65c:	00002db1 			; <UNDEFINED> instruction: 0x00002db1
     660:	77a10005 	strvc	r0, [r1, r5]!
     664:	00050000 	andeq	r0, r5, r0
     668:	000070cb 	andeq	r7, r0, fp, asr #1
     66c:	09d70005 	ldmibeq	r7, {r0, r2}^
     670:	00050000 	andeq	r0, r5, r0
     674:	000082c4 	andeq	r8, r0, r4, asr #5
     678:	08640005 	stmdaeq	r4!, {r0, r2}^
     67c:	00050000 	andeq	r0, r5, r0
     680:	00005bee 	andeq	r5, r0, lr, ror #23
     684:	25120005 	ldrcs	r0, [r2, #-5]
     688:	00050000 	andeq	r0, r5, r0
     68c:	000054fb 	strdeq	r5, [r0], -fp
     690:	00470005 	subeq	r0, r7, r5
     694:	00050000 	andeq	r0, r5, r0
     698:	00007de6 	andeq	r7, r0, r6, ror #27
     69c:	2f390005 	svccs	0x00390005
     6a0:	00050000 	andeq	r0, r5, r0
     6a4:	00005f2e 	andeq	r5, r0, lr, lsr #30
     6a8:	74610005 	strbtvc	r0, [r1], #-5
     6ac:	00050000 	andeq	r0, r5, r0
     6b0:	000042d7 	ldrdeq	r4, [r0], -r7
     6b4:	459a0005 	ldrmi	r0, [sl, #5]
     6b8:	00050000 	andeq	r0, r5, r0
     6bc:	000063c7 	andeq	r6, r0, r7, asr #7
     6c0:	34f20005 	ldrbtcc	r0, [r2], #5
     6c4:	00050000 	andeq	r0, r5, r0
     6c8:	00001598 	muleq	r0, r8, r5
     6cc:	41d60005 	bicsmi	r0, r6, r5
     6d0:	00050000 	andeq	r0, r5, r0
     6d4:	00000e2c 	andeq	r0, r0, ip, lsr #28
     6d8:	0e4b0005 	cdpeq	0, 4, cr0, cr11, cr5, {0}
     6dc:	00050000 	andeq	r0, r5, r0
     6e0:	00005e63 	andeq	r5, r0, r3, ror #28
     6e4:	19800005 	stmibne	r0, {r0, r2}
     6e8:	00050000 	andeq	r0, r5, r0
     6ec:	00000d10 	andeq	r0, r0, r0, lsl sp
     6f0:	083d0005 	ldmdaeq	sp!, {r0, r2}
     6f4:	00050000 	andeq	r0, r5, r0
     6f8:	00007293 	muleq	r0, r3, r2
     6fc:	8b6f0005 	blhi	1bc0718 <_Min_Stack_Size+0x1bc0318>
     700:	00050000 	andeq	r0, r5, r0
     704:	00006db6 			; <UNDEFINED> instruction: 0x00006db6
     708:	53930005 	orrspl	r0, r3, #5
     70c:	00050000 	andeq	r0, r5, r0
     710:	000041ec 	andeq	r4, r0, ip, ror #3
     714:	7e610005 	cdpvc	0, 6, cr0, cr1, cr5, {0}
     718:	00050000 	andeq	r0, r5, r0
     71c:	000084a6 	andeq	r8, r0, r6, lsr #9
     720:	34960005 	ldrcc	r0, [r6], #5
     724:	00050000 	andeq	r0, r5, r0
     728:	000077d6 	ldrdeq	r7, [r0], -r6
     72c:	837a0005 	cmnhi	sl, #5
     730:	00050000 	andeq	r0, r5, r0
     734:	00005138 	andeq	r5, r0, r8, lsr r1
     738:	0f590005 	svceq	0x00590005
     73c:	00050000 	andeq	r0, r5, r0
     740:	00004fe9 	andeq	r4, r0, r9, ror #31
     744:	18850005 	stmne	r5, {r0, r2}
     748:	00050000 	andeq	r0, r5, r0
     74c:	00000451 	andeq	r0, r0, r1, asr r4
     750:	0ab80005 	beq	fee0076c <_estack+0xdedfb76c>
     754:	00050000 	andeq	r0, r5, r0
     758:	000044d6 	ldrdeq	r4, [r0], -r6
     75c:	502c0005 	eorpl	r0, ip, r5
     760:	00050000 	andeq	r0, r5, r0
     764:	00007c6f 	andeq	r7, r0, pc, ror #24
     768:	00b00005 	adcseq	r0, r0, r5
     76c:	00050000 	andeq	r0, r5, r0
     770:	00005720 	andeq	r5, r0, r0, lsr #14
     774:	02160005 	andseq	r0, r6, #5
     778:	00050000 	andeq	r0, r5, r0
     77c:	0000561e 	andeq	r5, r0, lr, lsl r6
     780:	883a0005 	ldmdahi	sl!, {r0, r2}
     784:	00050000 	andeq	r0, r5, r0
     788:	000068e3 	andeq	r6, r0, r3, ror #17
     78c:	6f400005 	svcvs	0x00400005
     790:	00050000 	andeq	r0, r5, r0
     794:	00006edd 	ldrdeq	r6, [r0], -sp
     798:	3ce20005 	stclcc	0, cr0, [r2], #20
     79c:	00050000 	andeq	r0, r5, r0
     7a0:	00003f36 	andeq	r3, r0, r6, lsr pc
     7a4:	17420005 	strbne	r0, [r2, -r5]
     7a8:	00050000 	andeq	r0, r5, r0
     7ac:	00006d5c 	andeq	r6, r0, ip, asr sp
     7b0:	5df20005 	ldclpl	0, cr0, [r2, #20]!
     7b4:	00050000 	andeq	r0, r5, r0
     7b8:	00004f7b 	andeq	r4, r0, fp, ror pc
     7bc:	5c090005 	stcpl	0, cr0, [r9], {5}
     7c0:	00050000 	andeq	r0, r5, r0
     7c4:	0000217b 	andeq	r2, r0, fp, ror r1
     7c8:	43f70005 	mvnsmi	r0, #5
     7cc:	00050000 	andeq	r0, r5, r0
     7d0:	000015c5 	andeq	r1, r0, r5, asr #11
     7d4:	178b0005 	strne	r0, [fp, r5]
     7d8:	00050000 	andeq	r0, r5, r0
     7dc:	00000702 	andeq	r0, r0, r2, lsl #14
     7e0:	53180005 	tstpl	r8, #5
     7e4:	00050000 	andeq	r0, r5, r0
     7e8:	00003eb2 			; <UNDEFINED> instruction: 0x00003eb2
     7ec:	294f0005 	stmdbcs	pc, {r0, r2}^	; <UNPREDICTABLE>
     7f0:	00050000 	andeq	r0, r5, r0
     7f4:	00006279 	andeq	r6, r0, r9, ror r2
     7f8:	42c40005 	sbcmi	r0, r4, #5
     7fc:	00050000 	andeq	r0, r5, r0
     800:	00002b8c 	andeq	r2, r0, ip, lsl #23
     804:	2bea0005 	blcs	ffa80820 <_estack+0xdfa7b820>
     808:	00050000 	andeq	r0, r5, r0
     80c:	00000dc8 	andeq	r0, r0, r8, asr #27
     810:	39450005 	stmdbcc	r5, {r0, r2}^
     814:	00050000 	andeq	r0, r5, r0
     818:	00001ee5 	andeq	r1, r0, r5, ror #29
     81c:	65170005 	ldrvs	r0, [r7, #-5]
     820:	00050000 	andeq	r0, r5, r0
     824:	000006b3 			; <UNDEFINED> instruction: 0x000006b3
     828:	22090005 	andcs	r0, r9, #5
     82c:	00050000 	andeq	r0, r5, r0
     830:	00005e35 	andeq	r5, r0, r5, lsr lr
     834:	54880005 	strpl	r0, [r8], #5
     838:	00050000 	andeq	r0, r5, r0
     83c:	0000621a 	andeq	r6, r0, sl, lsl r2
     840:	2a3c0005 	bcs	f0085c <_Min_Stack_Size+0xf0045c>
     844:	00050000 	andeq	r0, r5, r0
     848:	000051d6 	ldrdeq	r5, [r0], -r6
     84c:	17d40005 	ldrbne	r0, [r4, r5]
     850:	00050000 	andeq	r0, r5, r0
     854:	000050d7 	ldrdeq	r5, [r0], -r7
     858:	625b0005 	subsvs	r0, fp, #5
     85c:	00050000 	andeq	r0, r5, r0
     860:	00003d9f 	muleq	r0, pc, sp	; <UNPREDICTABLE>
     864:	59bb0005 	ldmibpl	fp!, {r0, r2}
     868:	00050000 	andeq	r0, r5, r0
     86c:	00005c81 	andeq	r5, r0, r1, lsl #25
     870:	0f080005 	svceq	0x00080005
     874:	00050000 	andeq	r0, r5, r0
     878:	00008c52 	andeq	r8, r0, r2, asr ip
     87c:	6b9d0005 	blvs	fe740898 <_estack+0xde73b898>
     880:	00050000 	andeq	r0, r5, r0
     884:	0000680d 	andeq	r6, r0, sp, lsl #16
     888:	72ca0005 	sbcvc	r0, sl, #5
     88c:	00050000 	andeq	r0, r5, r0
     890:	00008492 	muleq	r0, r2, r4
     894:	81110005 	tsthi	r1, r5
     898:	00050000 	andeq	r0, r5, r0
     89c:	0000136e 	andeq	r1, r0, lr, ror #6
     8a0:	71470005 	cmpvc	r7, r5
     8a4:	00050000 	andeq	r0, r5, r0
     8a8:	000087fb 	strdeq	r8, [r0], -fp
     8ac:	0c450005 	mcrreq	0, 0, r0, r5, cr5
     8b0:	00050000 	andeq	r0, r5, r0
     8b4:	00004629 	andeq	r4, r0, r9, lsr #12
     8b8:	80940005 	addshi	r0, r4, r5
     8bc:	00050000 	andeq	r0, r5, r0
     8c0:	000019e5 	andeq	r1, r0, r5, ror #19
     8c4:	7d630005 	stclvc	0, cr0, [r3, #-20]!	; 0xffffffec
     8c8:	00050000 	andeq	r0, r5, r0
     8cc:	000063fd 	strdeq	r6, [r0], -sp
     8d0:	67180005 	ldrvs	r0, [r8, -r5]
     8d4:	00050000 	andeq	r0, r5, r0
     8d8:	000067eb 	andeq	r6, r0, fp, ror #15
     8dc:	71e50005 	mvnvc	r0, r5
     8e0:	00050000 	andeq	r0, r5, r0
     8e4:	00008191 	muleq	r0, r1, r1
     8e8:	32ff0005 	rscscc	r0, pc, #5
     8ec:	00050000 	andeq	r0, r5, r0
     8f0:	000056ab 	andeq	r5, r0, fp, lsr #13
     8f4:	08260005 	stmdaeq	r6!, {r0, r2}
     8f8:	00050000 	andeq	r0, r5, r0
     8fc:	000006e5 	andeq	r0, r0, r5, ror #13
     900:	189e0005 	ldmne	lr, {r0, r2}
     904:	00050000 	andeq	r0, r5, r0
     908:	00001694 	muleq	r0, r4, r6
     90c:	74990005 	ldrvc	r0, [r9], #5
     910:	00050000 	andeq	r0, r5, r0
     914:	00006443 	andeq	r6, r0, r3, asr #8
     918:	3e520005 	cdpcc	0, 5, cr0, cr2, cr5, {0}
     91c:	00050000 	andeq	r0, r5, r0
     920:	0000828a 	andeq	r8, r0, sl, lsl #5
     924:	48720005 	ldmdami	r2!, {r0, r2}^
     928:	00050000 	andeq	r0, r5, r0
     92c:	000016d9 	ldrdeq	r1, [r0], -r9
     930:	30de0005 	sbcscc	r0, lr, r5
     934:	00050000 	andeq	r0, r5, r0
     938:	0000449d 	muleq	r0, sp, r4
     93c:	574c0005 	strbpl	r0, [ip, -r5]
     940:	00050000 	andeq	r0, r5, r0
     944:	00003441 	andeq	r3, r0, r1, asr #8
     948:	12a90005 	adcne	r0, r9, #5
     94c:	00050000 	andeq	r0, r5, r0
     950:	00007e20 	andeq	r7, r0, r0, lsr #28
     954:	687a0005 	ldmdavs	sl!, {r0, r2}^
     958:	00050000 	andeq	r0, r5, r0
     95c:	00004a8c 	andeq	r4, r0, ip, lsl #21
     960:	05430005 	strbeq	r0, [r3, #-5]
     964:	00050000 	andeq	r0, r5, r0
     968:	0000667e 	andeq	r6, r0, lr, ror r6
     96c:	499a0005 	ldmibmi	sl, {r0, r2}
     970:	00050000 	andeq	r0, r5, r0
     974:	00006aa3 	andeq	r6, r0, r3, lsr #21
     978:	82a50005 	adchi	r0, r5, #5
     97c:	00050000 	andeq	r0, r5, r0
     980:	00006ead 	andeq	r6, r0, sp, lsr #29
     984:	40a00005 	adcmi	r0, r0, r5
     988:	00050000 	andeq	r0, r5, r0
     98c:	000002ee 	andeq	r0, r0, lr, ror #5
     990:	3a5d0005 	bcc	17409ac <_Min_Stack_Size+0x17405ac>
     994:	00050000 	andeq	r0, r5, r0
     998:	00001f05 	andeq	r1, r0, r5, lsl #30
     99c:	26140005 	ldrcs	r0, [r4], -r5
     9a0:	00050000 	andeq	r0, r5, r0
     9a4:	00005737 	andeq	r5, r0, r7, lsr r7
     9a8:	7f060005 	svcvc	0x00060005
     9ac:	00050000 	andeq	r0, r5, r0
     9b0:	0000567f 	andeq	r5, r0, pc, ror r6
     9b4:	66b60005 	ldrtvs	r0, [r6], r5
     9b8:	00050000 	andeq	r0, r5, r0
     9bc:	0000844f 	andeq	r8, r0, pc, asr #8
     9c0:	6e150005 	cdpvs	0, 1, cr0, cr5, cr5, {0}
     9c4:	00050000 	andeq	r0, r5, r0
     9c8:	00008608 	andeq	r8, r0, r8, lsl #12
     9cc:	8a3a0005 	bhi	e809e8 <_Min_Stack_Size+0xe805e8>
     9d0:	00050000 	andeq	r0, r5, r0
     9d4:	000010b5 	strheq	r1, [r0], -r5
     9d8:	078a0005 	streq	r0, [sl, r5]
     9dc:	00050000 	andeq	r0, r5, r0
     9e0:	000066e8 	andeq	r6, r0, r8, ror #13
     9e4:	6bcc0005 	blvs	ff300a00 <_estack+0xdf2fba00>
     9e8:	00050000 	andeq	r0, r5, r0
     9ec:	000024ee 	andeq	r2, r0, lr, ror #9
     9f0:	04380005 	ldrteq	r0, [r8], #-5
     9f4:	00050000 	andeq	r0, r5, r0
     9f8:	00005915 	andeq	r5, r0, r5, lsl r9
     9fc:	49570005 	ldmdbmi	r7, {r0, r2}^
     a00:	00050000 	andeq	r0, r5, r0
     a04:	00001153 	andeq	r1, r0, r3, asr r1
     a08:	67370005 	ldrvs	r0, [r7, -r5]!
     a0c:	00050000 	andeq	r0, r5, r0
     a10:	00001075 	andeq	r1, r0, r5, ror r0
     a14:	6f200005 	svcvs	0x00200005
     a18:	00050000 	andeq	r0, r5, r0
     a1c:	0000549b 	muleq	r0, fp, r4
     a20:	443b0005 	ldrtmi	r0, [fp], #-5
     a24:	00050000 	andeq	r0, r5, r0
     a28:	00006905 	andeq	r6, r0, r5, lsl #18
     a2c:	6d2d0005 	stcvs	0, cr0, [sp, #-20]!	; 0xffffffec
     a30:	00050000 	andeq	r0, r5, r0
     a34:	00002a24 	andeq	r2, r0, r4, lsr #20
     a38:	12c60005 	sbcne	r0, r6, #5
     a3c:	00050000 	andeq	r0, r5, r0
     a40:	00006d3c 	andeq	r6, r0, ip, lsr sp
     a44:	3ed00005 	cdpcc	0, 13, cr0, cr0, cr5, {0}
     a48:	00050000 	andeq	r0, r5, r0
     a4c:	00002eba 			; <UNDEFINED> instruction: 0x00002eba
     a50:	88de0005 	ldmhi	lr, {r0, r2}^
     a54:	00050000 	andeq	r0, r5, r0
     a58:	0000355c 	andeq	r3, r0, ip, asr r5
     a5c:	602c0005 	eorvs	r0, ip, r5
     a60:	00050000 	andeq	r0, r5, r0
     a64:	0000005a 	andeq	r0, r0, sl, asr r0
     a68:	39220005 	stmdbcc	r2!, {r0, r2}
     a6c:	00050000 	andeq	r0, r5, r0
     a70:	00005b8b 	andeq	r5, r0, fp, lsl #23
     a74:	288b0005 	stmcs	fp, {r0, r2}
     a78:	00050000 	andeq	r0, r5, r0
     a7c:	00001869 	andeq	r1, r0, r9, ror #16
     a80:	762a0005 	strtvc	r0, [sl], -r5
     a84:	00050000 	andeq	r0, r5, r0
     a88:	00001d95 	muleq	r0, r5, sp
     a8c:	7cdc0005 	ldclvc	0, cr0, [ip], {5}
     a90:	00050000 	andeq	r0, r5, r0
     a94:	0000727e 	andeq	r7, r0, lr, ror r2
     a98:	3aa10005 	bcc	fe840ab4 <_estack+0xde83bab4>
     a9c:	00050000 	andeq	r0, r5, r0
     aa0:	00008264 	andeq	r8, r0, r4, ror #4
     aa4:	76a70005 	strtvc	r0, [r7], r5
     aa8:	00050000 	andeq	r0, r5, r0
     aac:	00000140 	andeq	r0, r0, r0, asr #2
     ab0:	0bb80005 	bleq	fee00acc <_estack+0xdedfbacc>
     ab4:	00050000 	andeq	r0, r5, r0
     ab8:	000028a7 	andeq	r2, r0, r7, lsr #17
     abc:	640f0005 	strvs	r0, [pc], #-5	; ac4 <_Min_Stack_Size+0x6c4>
     ac0:	00050000 	andeq	r0, r5, r0
     ac4:	00004ab2 			; <UNDEFINED> instruction: 0x00004ab2
     ac8:	7b530005 	blvc	14c0ae4 <_Min_Stack_Size+0x14c06e4>
     acc:	00050000 	andeq	r0, r5, r0
     ad0:	00004347 	andeq	r4, r0, r7, asr #6
     ad4:	1f3a0005 	svcne	0x003a0005
     ad8:	00050000 	andeq	r0, r5, r0
     adc:	0000011f 	andeq	r0, r0, pc, lsl r1
     ae0:	32870005 	addcc	r0, r7, #5
     ae4:	00050000 	andeq	r0, r5, r0
     ae8:	00007018 	andeq	r7, r0, r8, lsl r0
     aec:	497c0005 	ldmdbmi	ip!, {r0, r2}^
     af0:	00050000 	andeq	r0, r5, r0
     af4:	00004f3b 	andeq	r4, r0, fp, lsr pc
     af8:	33510005 	cmpcc	r1, #5
     afc:	00050000 	andeq	r0, r5, r0
     b00:	00003be5 	andeq	r3, r0, r5, ror #23
     b04:	63dd0005 	bicsvs	r0, sp, #5
     b08:	00050000 	andeq	r0, r5, r0
     b0c:	00003e82 	andeq	r3, r0, r2, lsl #29
     b10:	28270005 	stmdacs	r7!, {r0, r2}
     b14:	00050000 	andeq	r0, r5, r0
     b18:	000050f9 	strdeq	r5, [r0], -r9
     b1c:	7dad0005 	stcvc	0, cr0, [sp, #20]!
     b20:	00050000 	andeq	r0, r5, r0
     b24:	000059db 	ldrdeq	r5, [r0], -fp
     b28:	4f150006 	svcmi	0x00150006
     b2c:	00050000 	andeq	r0, r5, r0
     b30:	00003c06 	andeq	r3, r0, r6, lsl #24
     b34:	79cd0005 	stmibvc	sp, {r0, r2}^
     b38:	00060000 	andeq	r0, r6, r0
     b3c:	00006483 	andeq	r6, r0, r3, lsl #9
     b40:	7dc10005 	stclvc	0, cr0, [r1, #20]
     b44:	00060000 	andeq	r0, r6, r0
     b48:	000060f4 	strdeq	r6, [r0], -r4
     b4c:	7cec0006 	stclvc	0, cr0, [ip], #24
     b50:	00060000 	andeq	r0, r6, r0
     b54:	00008021 	andeq	r8, r0, r1, lsr #32
     b58:	3c420006 	mcrrcc	0, 0, r0, r2, cr6
     b5c:	00050000 	andeq	r0, r5, r0
     b60:	0000622c 	andeq	r6, r0, ip, lsr #4
     b64:	3f240006 	svccc	0x00240006
     b68:	00060000 	andeq	r0, r6, r0
     b6c:	00004a79 	andeq	r4, r0, r9, ror sl
     b70:	58800006 	stmpl	r0, {r1, r2}
     b74:	00050000 	andeq	r0, r5, r0
     b78:	000087bb 			; <UNDEFINED> instruction: 0x000087bb
     b7c:	3c1b0005 	ldccc	0, cr0, [fp], {5}
     b80:	00060000 	andeq	r0, r6, r0
     b84:	00006f83 	andeq	r6, r0, r3, lsl #31
     b88:	88250006 	stmdahi	r5!, {r1, r2}
     b8c:	00050000 	andeq	r0, r5, r0
     b90:	00005dc4 	andeq	r5, r0, r4, asr #27
     b94:	3ccb0005 	stclcc	0, cr0, [fp], {5}
     b98:	00060000 	andeq	r0, r6, r0
     b9c:	000050a7 	andeq	r5, r0, r7, lsr #1
     ba0:	08100005 	ldmdaeq	r0, {r0, r2}
     ba4:	00050000 	andeq	r0, r5, r0
     ba8:	00005e22 	andeq	r5, r0, r2, lsr #28
     bac:	86ba0006 	ldrthi	r0, [sl], r6
     bb0:	00050000 	andeq	r0, r5, r0
     bb4:	000049ee 	andeq	r4, r0, lr, ror #19
     bb8:	41740005 	cmnmi	r4, r5
     bbc:	00050000 	andeq	r0, r5, r0
     bc0:	000081ad 	andeq	r8, r0, sp, lsr #3
     bc4:	84ec0005 	strbthi	r0, [ip], #5
     bc8:	00050000 	andeq	r0, r5, r0
     bcc:	00008037 	andeq	r8, r0, r7, lsr r0
     bd0:	6e070005 	cdpvs	0, 0, cr0, cr7, cr5, {0}
     bd4:	00060000 	andeq	r0, r6, r0
     bd8:	000031e5 	andeq	r3, r0, r5, ror #3
     bdc:	611a0005 	tstvs	sl, r5
     be0:	00050000 	andeq	r0, r5, r0
     be4:	00008542 	andeq	r8, r0, r2, asr #10
     be8:	3fb70005 	svccc	0x00b70005
     bec:	00050000 	andeq	r0, r5, r0
     bf0:	00003232 	andeq	r3, r0, r2, lsr r2
     bf4:	4ea30006 	cdpmi	0, 10, cr0, cr3, cr6, {0}
     bf8:	00060000 	andeq	r0, r6, r0
     bfc:	00003f50 	andeq	r3, r0, r0, asr pc
     c00:	5ef60006 	cdppl	0, 15, cr0, cr6, cr6, {0}
     c04:	00060000 	andeq	r0, r6, r0
     c08:	00005946 	andeq	r5, r0, r6, asr #18
     c0c:	759e0006 	ldrvc	r0, [lr, #6]
     c10:	00060000 	andeq	r0, r6, r0
     c14:	00001aad 	andeq	r1, r0, sp, lsr #21
     c18:	38d10006 	ldmcc	r1, {r1, r2}^
     c1c:	00060000 	andeq	r0, r6, r0
     c20:	00006868 	andeq	r6, r0, r8, ror #16
     c24:	19550006 	ldmdbne	r5, {r1, r2}^
     c28:	00060000 	andeq	r0, r6, r0
     c2c:	00002c5f 	andeq	r2, r0, pc, asr ip
     c30:	53be0006 			; <UNDEFINED> instruction: 0x53be0006
     c34:	00050000 	andeq	r0, r5, r0
     c38:	0000109f 	muleq	r0, pc, r0	; <UNPREDICTABLE>
     c3c:	180c0005 	stmdane	ip, {r0, r2}
     c40:	00050000 	andeq	r0, r5, r0
     c44:	00003659 	andeq	r3, r0, r9, asr r6
     c48:	8cae0005 	stchi	0, cr0, [lr], #20
     c4c:	00060000 	andeq	r0, r6, r0
     c50:	00002a32 	andeq	r2, r0, r2, lsr sl
     c54:	36410005 	strbcc	r0, [r1], -r5
     c58:	00050000 	andeq	r0, r5, r0
     c5c:	00005a19 	andeq	r5, r0, r9, lsl sl
     c60:	7fb80005 	svcvc	0x00b80005
     c64:	00060000 	andeq	r0, r6, r0
     c68:	00007769 	andeq	r7, r0, r9, ror #14
     c6c:	0caf0005 	stceq	0, cr0, [pc], #20	; c88 <_Min_Stack_Size+0x888>
     c70:	00060000 	andeq	r0, r6, r0
     c74:	00007487 	andeq	r7, r0, r7, lsl #9
     c78:	8d000006 	stchi	0, cr0, [r0, #-24]	; 0xffffffe8
     c7c:	00060000 	andeq	r0, r6, r0
     c80:	000034b0 			; <UNDEFINED> instruction: 0x000034b0
     c84:	07650006 	strbeq	r0, [r5, -r6]!
     c88:	00060000 	andeq	r0, r6, r0
     c8c:	00004182 	andeq	r4, r0, r2, lsl #3
     c90:	6bda0006 	blvs	ff680cb0 <_estack+0xdf67bcb0>
     c94:	00050000 	andeq	r0, r5, r0
     c98:	0000412a 	andeq	r4, r0, sl, lsr #2
     c9c:	6dde0005 	ldclvs	0, cr0, [lr, #20]
     ca0:	00050000 	andeq	r0, r5, r0
     ca4:	00007979 	andeq	r7, r0, r9, ror r9
     ca8:	16370005 	ldrtne	r0, [r7], -r5
     cac:	00050000 	andeq	r0, r5, r0
     cb0:	00006057 	andeq	r6, r0, r7, asr r0
     cb4:	27ed0005 	strbcs	r0, [sp, r5]!
     cb8:	00050000 	andeq	r0, r5, r0
     cbc:	00002528 	andeq	r2, r0, r8, lsr #10
     cc0:	00000400 	andeq	r0, r0, r0, lsl #8
     cc4:	8c650905 			; <UNDEFINED> instruction: 0x8c650905
     cc8:	0b050000 	bleq	140cd0 <_Min_Stack_Size+0x1408d0>
     ccc:	00008a2a 	andeq	r8, r0, sl, lsr #20
     cd0:	00000400 	andeq	r0, r0, r0, lsl #8
     cd4:	5bc24d05 	blpl	ff0940f0 <_estack+0xdf08f0f0>
     cd8:	f0050000 			; <UNDEFINED> instruction: 0xf0050000
     cdc:	005af503 	subseq	pc, sl, r3, lsl #10
     ce0:	03f30500 	mvnseq	r0, #0, 10
     ce4:	000034ca 	andeq	r3, r0, sl, asr #9
     ce8:	00000400 	andeq	r0, r0, r0, lsl #8
     cec:	49660405 	stmdbmi	r6!, {r0, r2, sl}^
     cf0:	06050000 	streq	r0, [r5], -r0
     cf4:	00008851 	andeq	r8, r0, r1, asr r8
     cf8:	1d6c0705 	stclne	7, cr0, [ip, #-20]!	; 0xffffffec
     cfc:	08050000 	stmdaeq	r5, {}	; <UNPREDICTABLE>
     d00:	000055d9 	ldrdeq	r5, [r0], -r9
     d04:	65470905 	strbvs	r0, [r7, #-2309]	; 0xfffff6fb
     d08:	04000000 	streq	r0, [r0], #-0
     d0c:	22050000 	andcs	r0, r5, #0
     d10:	0000523c 	andeq	r5, r0, ip, lsr r2
     d14:	81c82505 	bichi	r2, r8, r5, lsl #10
     d18:	2b050000 	blcs	140d20 <_Min_Stack_Size+0x140920>
     d1c:	00002e49 	andeq	r2, r0, r9, asr #28
     d20:	73a33505 			; <UNDEFINED> instruction: 0x73a33505
     d24:	39050000 	stmdbcc	r5, {}	; <UNPREDICTABLE>
     d28:	000049b1 			; <UNDEFINED> instruction: 0x000049b1
     d2c:	1eb93c05 	cdpne	12, 11, cr3, cr9, cr5, {0}
     d30:	3f050000 	svccc	0x00050000
     d34:	0000506a 	andeq	r5, r0, sl, rrx
     d38:	0c6b4205 	sfmeq	f4, 2, [fp], #-20	; 0xffffffec
     d3c:	51050000 	mrspl	r0, (UNDEF: 5)
     d40:	00007721 	andeq	r7, r0, r1, lsr #14
     d44:	3e005405 	cdpcc	4, 0, cr5, cr0, cr5, {0}
     d48:	5c050000 	stcpl	0, cr0, [r5], {-0}
     d4c:	00008b36 	andeq	r8, r0, r6, lsr fp
     d50:	78615f05 	stmdavc	r1!, {r0, r2, r8, r9, sl, fp, ip, lr}^
     d54:	04000000 	streq	r0, [r0], #-0
     d58:	16050000 	strne	r0, [r5], -r0
     d5c:	0000272f 	andeq	r2, r0, pc, lsr #14
     d60:	153a2105 	ldrne	r2, [sl, #-261]!	; 0xfffffefb
     d64:	28050000 	stmdacs	r5, {}	; <UNPREDICTABLE>
     d68:	00007caf 	andeq	r7, r0, pc, lsr #25
     d6c:	44018306 	strmi	r8, [r1], #-774	; 0xfffffcfa
     d70:	05000080 	streq	r0, [r0, #-128]	; 0xffffff80
     d74:	41c40184 	bicmi	r0, r4, r4, lsl #3
     d78:	88060000 	stmdahi	r6, {}	; <UNPREDICTABLE>
     d7c:	003f8a01 	eorseq	r8, pc, r1, lsl #20
     d80:	01890500 	orreq	r0, r9, r0, lsl #10
     d84:	000081de 	ldrdeq	r8, [r0], -lr
     d88:	08018a06 	stmdaeq	r1, {r1, r2, r9, fp, pc}
     d8c:	0500008c 	streq	r0, [r0, #-140]	; 0xffffff74
     d90:	1aea018b 	bne	ffa813c4 <_estack+0xdfa7c3c4>
     d94:	9e060000 	cdpls	0, 0, cr0, cr6, cr0, {0}
     d98:	003b1101 	eorseq	r1, fp, r1, lsl #2
     d9c:	019f0500 	orrseq	r0, pc, r0, lsl #10
     da0:	0000532a 	andeq	r5, r0, sl, lsr #6
     da4:	4f01f705 	svcmi	0x0001f705
     da8:	0500005c 	streq	r0, [r0, #-92]	; 0xffffffa4
     dac:	512801fd 	strdpl	r0, [r8, -sp]!
     db0:	85050000 	strhi	r0, [r5, #-0]
     db4:	0066f702 	rsbeq	pc, r6, r2, lsl #14
     db8:	028a0500 	addeq	r0, sl, #0, 10
     dbc:	00005eb5 			; <UNDEFINED> instruction: 0x00005eb5
     dc0:	3e029505 	cfsh32cc	mvfx9, mvfx2, #5
     dc4:	0500001d 	streq	r0, [r0, #-29]	; 0xffffffe3
     dc8:	635b0299 	cmpvs	fp, #-1879048183	; 0x90000009
     dcc:	9f050000 	svcls	0x00050000
     dd0:	0006ce02 	andeq	ip, r6, r2, lsl #28
     dd4:	02af0500 	adceq	r0, pc, #0, 10
     dd8:	00000069 	andeq	r0, r0, r9, rrx
     ddc:	0502bf05 	streq	fp, [r2, #-3845]	; 0xfffff0fb
     de0:	0500007c 	streq	r0, [r0, #-124]	; 0xffffff84
     de4:	7bd302ca 	blvc	ff4c1914 <_estack+0xdf4bc914>
     de8:	04000000 	streq	r0, [r0], #-0
     dec:	e0050000 	and	r0, r5, r0
     df0:	005de001 	subseq	lr, sp, r1
     df4:	01e60600 	mvneq	r0, r0, lsl #12
     df8:	00003fa1 	andeq	r3, r0, r1, lsr #31
     dfc:	a901ea05 	stmdbge	r1, {r0, r2, r9, fp, sp, lr, pc}
     e00:	05000013 	streq	r0, [r0, #-19]	; 0xffffffed
     e04:	45c701fa 	strbmi	r0, [r7, #506]	; 0x1fa
     e08:	fe050000 	cdp2	0, 0, cr0, cr5, cr0, {0}
     e0c:	005b6c01 	subseq	r6, fp, r1, lsl #24
     e10:	02850500 	addeq	r0, r5, #0, 10
     e14:	0000226e 	andeq	r2, r0, lr, ror #4
     e18:	21028b05 	tstcs	r2, r5, lsl #22
     e1c:	0500005b 	streq	r0, [r0, #-91]	; 0xffffffa5
     e20:	7ed50298 	mrcvc	2, 6, r0, cr5, cr8, {4}
     e24:	04000000 	streq	r0, [r0], #-0
     e28:	1f050000 	svcne	0x00050000
     e2c:	00005c9e 	muleq	r0, lr, ip
     e30:	30272005 	eorcc	r2, r7, r5
     e34:	21050000 	mrscs	r0, (UNDEF: 5)
     e38:	000053cc 	andeq	r5, r0, ip, asr #7
     e3c:	03b42505 			; <UNDEFINED> instruction: 0x03b42505
     e40:	2b050000 	blcs	140e48 <_Min_Stack_Size+0x140a48>
     e44:	00007741 	andeq	r7, r0, r1, asr #14
     e48:	10e34505 	rscne	r4, r3, r5, lsl #10
     e4c:	49050000 	stmdbmi	r5, {}	; <UNPREDICTABLE>
     e50:	00001840 	andeq	r1, r0, r0, asr #16
     e54:	71254a05 			; <UNDEFINED> instruction: 0x71254a05
     e58:	04000000 	streq	r0, [r0], #-0
     e5c:	0d050000 	stceq	0, cr0, [r5, #-0]
     e60:	00002a15 	andeq	r2, r0, r5, lsl sl
     e64:	28e60e05 	stmiacs	r6!, {r0, r2, r9, sl, fp}^
     e68:	0f050000 	svceq	0x00050000
     e6c:	000041b7 			; <UNDEFINED> instruction: 0x000041b7
     e70:	00000400 	andeq	r0, r0, r0, lsl #8
     e74:	7901b505 	stmdbvc	r1, {r0, r2, r8, sl, ip, sp, pc}
     e78:	05000018 	streq	r0, [r0, #-24]	; 0xffffffe8
     e7c:	0ce601b6 	stfeqe	f0, [r6], #728	; 0x2d8
     e80:	b7050000 	strlt	r0, [r5, -r0]
     e84:	00806101 	addeq	r6, r0, r1, lsl #2
     e88:	01b80500 			; <UNDEFINED> instruction: 0x01b80500
     e8c:	00001608 	andeq	r1, r0, r8, lsl #12
     e90:	0a01b905 	beq	6f2ac <_Min_Stack_Size+0x6eeac>
     e94:	05000040 	streq	r0, [r0, #-64]	; 0xffffffc0
     e98:	105201ba 	ldrhne	r0, [r2], #-26	; 0xffffffe6
     e9c:	bb050000 	bllt	140ea4 <_Min_Stack_Size+0x140aa4>
     ea0:	0062ad01 	rsbeq	sl, r2, r1, lsl #26
     ea4:	01bc0500 			; <UNDEFINED> instruction: 0x01bc0500
     ea8:	00006c4b 	andeq	r6, r0, fp, asr #24
     eac:	4701bd05 	strmi	fp, [r1, -r5, lsl #26]
     eb0:	0500006c 	streq	r0, [r0, #-108]	; 0xffffff94
     eb4:	211101be 			; <UNDEFINED> instruction: 0x211101be
     eb8:	bf050000 	svclt	0x00050000
     ebc:	0066d701 	rsbeq	sp, r6, r1, lsl #14
     ec0:	01c00500 	biceq	r0, r0, r0, lsl #10
     ec4:	0000210d 	andeq	r2, r0, sp, lsl #2
     ec8:	7901c105 	stmdbvc	r1, {r0, r2, r8, lr, pc}
     ecc:	0500001a 	streq	r0, [r0, #-26]	; 0xffffffe6
     ed0:	214501c2 	smlalbtcs	r0, r5, r2, r1
     ed4:	c3050000 	movwgt	r0, #20480	; 0x5000
     ed8:	00805d01 	addeq	r5, r0, r1, lsl #26
     edc:	01c40500 	biceq	r0, r4, r0, lsl #10
     ee0:	00007096 	muleq	r0, r6, r0
     ee4:	7501cb05 	strvc	ip, [r1, #-2821]	; 0xfffff4fb
     ee8:	0600000f 	streq	r0, [r0], -pc
     eec:	49c901e7 	stmibmi	r9, {r0, r1, r2, r5, r6, r7, r8}^
     ef0:	84050000 	strhi	r0, [r5], #-0
     ef4:	004ad002 	subeq	sp, sl, r2
     ef8:	02850500 	addeq	r0, r5, #0, 10
     efc:	000059f2 	strdeq	r5, [r0], -r2
     f00:	8b028605 	blhi	a271c <_Min_Stack_Size+0xa231c>
     f04:	0500005a 	streq	r0, [r0, #-90]	; 0xffffffa6
     f08:	48590287 	ldmdami	r9, {r0, r1, r2, r7, r9}^
     f0c:	88050000 	stmdahi	r5, {}	; <UNPREDICTABLE>
     f10:	00158e02 	andseq	r8, r5, r2, lsl #28
     f14:	02890500 	addeq	r0, r9, #0, 10
     f18:	00005000 	andeq	r5, r0, r0
     f1c:	bb028a05 	bllt	a3738 <_Min_Stack_Size+0xa3338>
     f20:	05000037 	streq	r0, [r0, #-55]	; 0xffffffc9
     f24:	37b7028b 	ldrcc	r0, [r7, fp, lsl #5]!
     f28:	8c050000 	stchi	0, cr0, [r5], {-0}
     f2c:	008a6d02 	addeq	r6, sl, r2, lsl #26
     f30:	028d0500 	addeq	r0, sp, #0, 10
     f34:	00006a77 	andeq	r6, r0, r7, ror sl
     f38:	50028e05 	andpl	r8, r2, r5, lsl #28
     f3c:	0500006d 	streq	r0, [r0, #-109]	; 0xffffff93
     f40:	0fde028f 	svceq	0x00de028f
     f44:	90050000 	andls	r0, r5, r0
     f48:	006d4b02 	rsbeq	r4, sp, r2, lsl #22
     f4c:	02910500 	addseq	r0, r1, #0, 10
     f50:	00005a87 	andeq	r5, r0, r7, lsl #21
     f54:	69029205 	stmdbvs	r2, {r0, r2, r9, ip, pc}
     f58:	06000057 			; <UNDEFINED> instruction: 0x06000057
     f5c:	8103029f 			; <UNDEFINED> instruction: 0x8103029f
     f60:	d4060000 	strle	r0, [r6], #-0
     f64:	000e3c02 	andeq	r3, lr, r2, lsl #24
     f68:	03860600 	orreq	r0, r6, #0, 12
     f6c:	00003a8e 	andeq	r3, r0, lr, lsl #21
     f70:	63038b05 	movwvs	r8, #15109	; 0x3b05
     f74:	06000039 			; <UNDEFINED> instruction: 0x06000039
     f78:	3a870391 	bcc	fe1c1dc4 <_estack+0xde1bcdc4>
     f7c:	04000000 	streq	r0, [r0], #-0
     f80:	27050000 	strcs	r0, [r5, -r0]
     f84:	00004676 	andeq	r4, r0, r6, ror r6
     f88:	626d2805 	rsbvs	r2, sp, #327680	; 0x50000
     f8c:	2a050000 	bcs	140f94 <_Min_Stack_Size+0x140b94>
     f90:	00004671 	andeq	r4, r0, r1, ror r6
     f94:	02018305 	andeq	r8, r1, #335544320	; 0x14000000
     f98:	05000060 	streq	r0, [r0, #-96]	; 0xffffffa0
     f9c:	45800184 	strmi	r0, [r0, #388]	; 0x184
     fa0:	85050000 	strhi	r0, [r5, #-0]
     fa4:	00590901 	subseq	r0, r9, r1, lsl #18
     fa8:	01860500 	orreq	r0, r6, r0, lsl #10
     fac:	0000672a 	andeq	r6, r0, sl, lsr #14
     fb0:	cf018705 	svcgt	0x00018705
     fb4:	0500000e 	streq	r0, [r0, #-14]
     fb8:	0ecb0188 	poleq<illegal precision>	f0, f3, #0.0
     fbc:	89050000 	stmdbhi	r5, {}	; <UNPREDICTABLE>
     fc0:	001a5201 	andseq	r5, sl, r1, lsl #4
     fc4:	018a0500 	orreq	r0, sl, r0, lsl #10
     fc8:	00005ffe 	strdeq	r5, [r0], -lr
     fcc:	76018b05 	strvc	r8, [r1], -r5, lsl #22
     fd0:	0600005b 			; <UNDEFINED> instruction: 0x0600005b
     fd4:	79a5019b 	stmibvc	r5!, {r0, r1, r3, r4, r7, r8}
     fd8:	e7060000 	str	r0, [r6, -r0]
     fdc:	0049c901 	subeq	ip, r9, r1, lsl #18
     fe0:	02d40600 	sbcseq	r0, r4, #0, 12
     fe4:	00000e3c 	andeq	r0, r0, ip, lsr lr
     fe8:	8e038606 	cfmadd32hi	mvax0, mvfx8, mvfx3, mvfx6
     fec:	0500003a 	streq	r0, [r0, #-58]	; 0xffffffc6
     ff0:	3963038b 	stmdbcc	r3!, {r0, r1, r3, r7, r8, r9}^
     ff4:	91060000 	mrsls	r0, (UNDEF: 6)
     ff8:	003a8703 	eorseq	r8, sl, r3, lsl #14
     ffc:	03960500 	orrseq	r0, r6, #0, 10
    1000:	00004248 	andeq	r4, r0, r8, asr #4
    1004:	78039b05 	stmdavc	r3, {r0, r2, r8, r9, fp, ip, pc}
    1008:	00000070 	andeq	r0, r0, r0, ror r0
    100c:	05000004 	streq	r0, [r0, #-4]
    1010:	007f1f14 	rsbseq	r1, pc, r4, lsl pc	; <UNPREDICTABLE>
    1014:	15160500 	ldrne	r0, [r6, #-1280]	; 0xfffffb00
    1018:	0500002a 	streq	r0, [r0, #-42]	; 0xffffffd6
    101c:	00827b17 	addeq	r7, r2, r7, lsl fp
    1020:	00040000 	andeq	r0, r4, r0
    1024:	019b0600 	orrseq	r0, fp, r0, lsl #12
    1028:	000079a5 	andeq	r7, r0, r5, lsr #19
    102c:	c901e706 	stmdbgt	r1, {r1, r2, r8, r9, sl, sp, lr, pc}
    1030:	06000049 	streq	r0, [r0], -r9, asr #32
    1034:	0e3c02d4 	mrceq	2, 1, r0, cr12, cr4, {6}
    1038:	d9050000 	stmdble	r5, {}	; <UNPREDICTABLE>
    103c:	0029b302 	eoreq	fp, r9, r2, lsl #6
    1040:	02e00600 	rsceq	r0, r0, #0, 12
    1044:	00002339 	andeq	r2, r0, r9, lsr r3
    1048:	8e038606 	cfmadd32hi	mvax0, mvfx8, mvfx3, mvfx6
    104c:	0500003a 	streq	r0, [r0, #-58]	; 0xffffffc6
    1050:	3963038b 	stmdbcc	r3!, {r0, r1, r3, r7, r8, r9}^
    1054:	91060000 	mrsls	r0, (UNDEF: 6)
    1058:	003a8703 	eorseq	r8, sl, r3, lsl #14
    105c:	03960500 	orrseq	r0, r6, #0, 10
    1060:	00004248 	andeq	r4, r0, r8, asr #4
    1064:	00000400 	andeq	r0, r0, r0, lsl #8
    1068:	5fae0605 	svcpl	0x00ae0605
    106c:	0f050000 	svceq	0x00050000
    1070:	00005357 	andeq	r5, r0, r7, asr r3
    1074:	698d1a05 	stmibvs	sp, {r0, r2, r9, fp, ip}
    1078:	21050000 	mrscs	r0, (UNDEF: 5)
    107c:	000079e1 	andeq	r7, r0, r1, ror #19
    1080:	3e9e2f05 	cdpcc	15, 9, cr2, cr14, cr5, {0}
    1084:	3d050000 	stccc	0, cr0, [r5, #-0]
    1088:	00006d87 	andeq	r6, r0, r7, lsl #27
    108c:	50555305 	subspl	r5, r5, r5, lsl #6
    1090:	6d050000 	stcvs	0, cr0, [r5, #-0]
    1094:	000063b2 			; <UNDEFINED> instruction: 0x000063b2
    1098:	ff018c05 			; <UNDEFINED> instruction: 0xff018c05
    109c:	05000059 	streq	r0, [r0, #-89]	; 0xffffffa7
    10a0:	17f101a6 	ldrbne	r0, [r1, r6, lsr #3]!
    10a4:	bc050000 	stclt	0, cr0, [r5], {-0}
    10a8:	003a4201 	eorseq	r4, sl, r1, lsl #4
    10ac:	01ce0500 	biceq	r0, lr, r0, lsl #10
    10b0:	0000520f 	andeq	r5, r0, pc, lsl #4
    10b4:	6c01f406 	cfstrsvs	mvf15, [r1], {6}
    10b8:	00000063 	andeq	r0, r0, r3, rrx
    10bc:	06000004 	streq	r0, [r0], -r4
    10c0:	0065af7f 	rsbeq	sl, r5, pc, ror pc
    10c4:	01920500 	orrseq	r0, r2, r0, lsl #10
    10c8:	00003cab 	andeq	r3, r0, fp, lsr #25
    10cc:	ab019406 	blge	660ec <_Min_Stack_Size+0x65cec>
    10d0:	05000074 	streq	r0, [r0, #-116]	; 0xffffff8c
    10d4:	1ca401b3 	stfnes	f0, [r4], #716	; 0x2cc
    10d8:	bb050000 	bllt	1410e0 <_Min_Stack_Size+0x140ce0>
    10dc:	001cbc01 	andseq	fp, ip, r1, lsl #24
    10e0:	01c00500 	biceq	r0, r0, r0, lsl #10
    10e4:	00006d07 	andeq	r6, r0, r7, lsl #26
    10e8:	8401c505 	strhi	ip, [r1], #-1285	; 0xfffffafb
    10ec:	0000007d 	andeq	r0, r0, sp, ror r0
    10f0:	05000004 	streq	r0, [r0, #-4]
    10f4:	007a5411 	rsbseq	r5, sl, r1, lsl r4
    10f8:	8a150500 	bhi	542500 <_Min_Stack_Size+0x542100>
    10fc:	00000070 	andeq	r0, r0, r0, ror r0
    1100:	05000004 	streq	r0, [r0, #-4]
    1104:	008c7102 	addeq	r7, ip, r2, lsl #2
    1108:	62230500 	eorvs	r0, r3, #0, 10
    110c:	0500001e 	streq	r0, [r0, #-30]	; 0xffffffe2
    1110:	00032825 	andeq	r2, r3, r5, lsr #16
    1114:	73270500 			; <UNDEFINED> instruction: 0x73270500
    1118:	0500006e 	streq	r0, [r0, #-110]	; 0xffffff92
    111c:	0016ec2a 	andseq	lr, r6, sl, lsr #24
    1120:	d52c0500 	strle	r0, [ip, #-1280]!	; 0xfffffb00
    1124:	05000089 	streq	r0, [r0, #-137]	; 0xffffff77
    1128:	0085d92e 	addeq	sp, r5, lr, lsr #18
    112c:	b4300500 	ldrtlt	r0, [r0], #-1280	; 0xfffffb00
    1130:	05000040 	streq	r0, [r0, #-64]	; 0xffffffc0
    1134:	00655f32 	rsbeq	r5, r5, r2, lsr pc
    1138:	ca340500 	bgt	d02540 <_Min_Stack_Size+0xd02140>
    113c:	0500002c 	streq	r0, [r0, #-44]	; 0xffffffd4
    1140:	006a0a36 	rsbeq	r0, sl, r6, lsr sl
    1144:	c6380500 	ldrtgt	r0, [r8], -r0, lsl #10
    1148:	0500002d 	streq	r0, [r0, #-45]	; 0xffffffd3
    114c:	0016a63b 	andseq	sl, r6, fp, lsr r6
    1150:	6b3d0500 	blvs	f42558 <_Min_Stack_Size+0xf42158>
    1154:	00000020 	andeq	r0, r0, r0, lsr #32
    1158:	05000004 	streq	r0, [r0, #-4]
    115c:	006c374d 	rsbeq	r3, ip, sp, asr #14
    1160:	2e600500 	cdpcs	5, 6, cr0, cr0, cr0, {0}
    1164:	0500007f 	streq	r0, [r0, #-127]	; 0xffffff81
    1168:	007c9b6d 	rsbseq	r9, ip, sp, ror #22
    116c:	01af0500 			; <UNDEFINED> instruction: 0x01af0500
    1170:	00008ad0 	ldrdeq	r8, [r0], -r0
    1174:	4302bd05 	movwmi	fp, #11525	; 0x2d05
    1178:	05000070 	streq	r0, [r0, #-112]	; 0xffffff90
    117c:	442302be 	strtmi	r0, [r3], #-702	; 0xfffffd42
    1180:	bf050000 	svclt	0x00050000
    1184:	00201202 	eoreq	r1, r0, r2, lsl #4
    1188:	02c00500 	sbceq	r0, r0, #0, 10
    118c:	00007f65 	andeq	r7, r0, r5, ror #30
    1190:	a002c105 	andge	ip, r2, r5, lsl #2
    1194:	0500006f 	streq	r0, [r0, #-111]	; 0xffffff91
    1198:	586802c2 	stmdapl	r8!, {r1, r6, r7, r9}^
    119c:	c3050000 	movwgt	r0, #20480	; 0x5000
    11a0:	00879702 	addeq	r9, r7, r2, lsl #14
    11a4:	02cf0500 	sbceq	r0, pc, #0, 10
    11a8:	000011a7 	andeq	r1, r0, r7, lsr #3
    11ac:	9c02d005 	stcls	0, cr13, [r2], {5}
    11b0:	0500008b 	streq	r0, [r0, #-139]	; 0xffffff75
    11b4:	049e02d1 	ldreq	r0, [lr], #721	; 0x2d1
    11b8:	d3050000 	movwle	r0, #20480	; 0x5000
    11bc:	005cce03 	subseq	ip, ip, r3, lsl #28
    11c0:	03ed0500 	mvneq	r0, #0, 10
    11c4:	00007a84 	andeq	r7, r0, r4, lsl #21
    11c8:	00000400 	andeq	r0, r0, r0, lsl #8
    11cc:	6e6c0b06 	vmulvs.f64	d16, d12, d6
    11d0:	10050000 	andne	r0, r5, r0
    11d4:	000045d1 	ldrdeq	r4, [r0], -r1
    11d8:	51bf1a05 			; <UNDEFINED> instruction: 0x51bf1a05
    11dc:	2d050000 	stccs	0, cr0, [r5, #-0]
    11e0:	00006e56 	andeq	r6, r0, r6, asr lr
    11e4:	00000400 	andeq	r0, r0, r0, lsl #8
    11e8:	8903f805 	stmdbhi	r3, {r0, r2, fp, ip, sp, lr, pc}
    11ec:	05000060 	streq	r0, [r0, #-96]	; 0xffffffa0
    11f0:	14850482 	strne	r0, [r5], #1154	; 0x482
    11f4:	8b050000 	blhi	1411fc <_Min_Stack_Size+0x140dfc>
    11f8:	000d4c04 	andeq	r4, sp, r4, lsl #24
    11fc:	048f0500 	streq	r0, [pc], #1280	; 1204 <_Min_Stack_Size+0xe04>
    1200:	000036f5 	strdeq	r3, [r0], -r5
    1204:	7d049405 	cfstrsvc	mvf9, [r4, #-20]	; 0xffffffec
    1208:	05000008 	streq	r0, [r0, #-8]
    120c:	77ec049f 			; <UNDEFINED> instruction: 0x77ec049f
    1210:	a2050000 	andge	r0, r5, #0
    1214:	00357704 	eorseq	r7, r5, r4, lsl #14
    1218:	04a80500 	strteq	r0, [r8], #1280	; 0x500
    121c:	00005259 	andeq	r5, r0, r9, asr r2
    1220:	ba04ab05 	blt	12be3c <_Min_Stack_Size+0x12ba3c>
    1224:	0500004e 	streq	r0, [r0, #-78]	; 0xffffffb2
    1228:	4add04ae 	bmi	ff7424e8 <_estack+0xdf73d4e8>
    122c:	c4050000 	strgt	r0, [r5], #-0
    1230:	00589404 	subseq	r9, r8, r4, lsl #8
    1234:	04c70500 	strbeq	r0, [r7], #1280	; 0x500
    1238:	000004e9 	andeq	r0, r0, r9, ror #9
    123c:	5f04ca05 	svcpl	0x0004ca05
    1240:	05000028 	streq	r0, [r0, #-40]	; 0xffffffd8
    1244:	6b5104cb 	blvs	1442578 <_Min_Stack_Size+0x1442178>
    1248:	cc050000 	stcgt	0, cr0, [r5], {-0}
    124c:	001d1104 	andseq	r1, sp, r4, lsl #2
    1250:	04cd0500 	strbeq	r0, [sp], #1280	; 0x500
    1254:	00004fbc 			; <UNDEFINED> instruction: 0x00004fbc
    1258:	b904ce05 	stmdblt	r4, {r0, r2, r9, sl, fp, lr, pc}
    125c:	05000002 	streq	r0, [r0, #-2]
    1260:	832a04cf 			; <UNDEFINED> instruction: 0x832a04cf
    1264:	d0050000 	andle	r0, r5, r0
    1268:	001c1b04 	andseq	r1, ip, r4, lsl #22
    126c:	04d10500 	ldrbeq	r0, [r1], #1280	; 0x500
    1270:	0000380d 	andeq	r3, r0, sp, lsl #16
    1274:	b304d205 	movwlt	sp, #16901	; 0x4205
    1278:	0500006c 	streq	r0, [r0, #-108]	; 0xffffff94
    127c:	455204d3 	ldrbmi	r0, [r2, #-1235]	; 0xfffffb2d
    1280:	d4050000 	strle	r0, [r5], #-0
    1284:	003fc404 	eorseq	ip, pc, r4, lsl #8
    1288:	04d50500 	ldrbeq	r0, [r5], #1280	; 0x500
    128c:	00002c6a 	andeq	r2, r0, sl, ror #24
    1290:	0904d605 	stmdbeq	r4, {r0, r2, r9, sl, ip, lr, pc}
    1294:	05000019 	streq	r0, [r0, #-25]	; 0xffffffe7
    1298:	822f04d7 	eorhi	r0, pc, #-687865856	; 0xd7000000
    129c:	d8050000 	stmdale	r5, {}	; <UNPREDICTABLE>
    12a0:	0030f304 	eorseq	pc, r0, r4, lsl #6
    12a4:	04d90500 	ldrbeq	r0, [r9], #1280	; 0x500
    12a8:	00005e7e 	andeq	r5, r0, lr, ror lr
    12ac:	3004da05 	andcc	sp, r4, r5, lsl #20
    12b0:	05000055 	streq	r0, [r0, #-85]	; 0xffffffab
    12b4:	132704db 			; <UNDEFINED> instruction: 0x132704db
    12b8:	dc050000 	stcle	0, cr0, [r5], {-0}
    12bc:	00072804 	andeq	r2, r7, r4, lsl #16
    12c0:	04dd0500 	ldrbeq	r0, [sp], #1280	; 0x500
    12c4:	000047db 	ldrdeq	r4, [r0], -fp
    12c8:	4404de05 	strmi	sp, [r4], #-3589	; 0xfffff1fb
    12cc:	0500000b 	streq	r0, [r0, #-11]
    12d0:	732404df 			; <UNDEFINED> instruction: 0x732404df
    12d4:	e0050000 	and	r0, r5, r0
    12d8:	00660d04 	rsbeq	r0, r6, r4, lsl #26
    12dc:	04e10500 	strbteq	r0, [r1], #1280	; 0x500
    12e0:	00002bbe 			; <UNDEFINED> instruction: 0x00002bbe
    12e4:	a506a005 	strge	sl, [r6, #-5]
    12e8:	05000061 	streq	r0, [r0, #-97]	; 0xffffff9f
    12ec:	04cc06a8 	strbeq	r0, [ip], #1704	; 0x6a8
    12f0:	b0050000 	andlt	r0, r5, r0
    12f4:	00778706 	rsbseq	r8, r7, r6, lsl #14
    12f8:	06c00500 	strbeq	r0, [r0], r0, lsl #10
    12fc:	00002d2f 	andeq	r2, r0, pc, lsr #26
    1300:	0006c305 	andeq	ip, r6, r5, lsl #6
    1304:	05000072 	streq	r0, [r0, #-114]	; 0xffffff8e
    1308:	444a06c7 	strbmi	r0, [sl], #-1735	; 0xfffff939
    130c:	04000000 	streq	r0, [r0], #-0
    1310:	31050000 	mrscc	r0, (UNDEF: 5)
    1314:	000021e3 	andeq	r2, r0, r3, ror #3
    1318:	66003205 	strvs	r3, [r0], -r5, lsl #4
    131c:	33050000 	movwcc	r0, #20480	; 0x5000
    1320:	00005250 	andeq	r5, r0, r0, asr r2
    1324:	1da53605 	stcne	6, cr3, [r5, #20]!
    1328:	39050000 	stmdbcc	r5, {}	; <UNPREDICTABLE>
    132c:	00007fd5 	ldrdeq	r7, [r0], -r5
    1330:	84143a05 	ldrhi	r3, [r4], #-2565	; 0xfffff5fb
    1334:	3c050000 	stccc	0, cr0, [r5], {-0}
    1338:	0000491b 	andeq	r4, r0, fp, lsl r9
    133c:	317d3d05 	cmncc	sp, r5, lsl #26
    1340:	3e050000 	cdpcc	0, 0, cr0, cr5, cr0, {0}
    1344:	000020ea 	andeq	r2, r0, sl, ror #1
    1348:	7a5c3f05 	bvc	1710f64 <_Min_Stack_Size+0x1710b64>
    134c:	42050000 	andmi	r0, r5, #0
    1350:	00000f7f 	andeq	r0, r0, pc, ror pc
    1354:	0b9f4305 	bleq	fe7d1f70 <_estack+0xde7ccf70>
    1358:	44050000 	strmi	r0, [r5], #-0
    135c:	00007119 	andeq	r7, r0, r9, lsl r1
    1360:	128b4e05 	addne	r4, fp, #5, 28	; 0x50
    1364:	51050000 	mrspl	r0, (UNDEF: 5)
    1368:	00002d42 	andeq	r2, r0, r2, asr #26
    136c:	64345e05 	ldrtvs	r5, [r4], #-3589	; 0xfffff1fb
    1370:	5f050000 	svcpl	0x00050000
    1374:	000073fb 	strdeq	r7, [r0], -fp
    1378:	7e0f6b05 	vmlavc.f64	d6, d15, d5
    137c:	6c050000 	stcvs	0, cr0, [r5], {-0}
    1380:	00004511 	andeq	r4, r0, r1, lsl r5
    1384:	05ea7005 	strbeq	r7, [sl, #5]!
    1388:	71050000 	mrsvc	r0, (UNDEF: 5)
    138c:	00007576 	andeq	r7, r0, r6, ror r5
    1390:	00187205 	andseq	r7, r8, r5, lsl #4
    1394:	75050000 	strvc	r0, [r5, #-0]
    1398:	00002c94 	muleq	r0, r4, ip
    139c:	14657805 	strbtne	r7, [r5], #-2053	; 0xfffff7fb
    13a0:	7f050000 	svcvc	0x00050000
    13a4:	00003215 	andeq	r3, r0, r5, lsl r2
    13a8:	e9018005 	stmdb	r1, {r0, r2, pc}
    13ac:	0500007b 	streq	r0, [r0, #-123]	; 0xffffff85
    13b0:	7f7d0181 	svcvc	0x007d0181
    13b4:	85050000 	strhi	r0, [r5, #-0]
    13b8:	00646401 	rsbeq	r6, r4, r1, lsl #8
    13bc:	018c0500 	orreq	r0, ip, r0, lsl #10
    13c0:	000085a0 	andeq	r8, r0, r0, lsr #11
    13c4:	0e019005 	cdpeq	0, 0, cr9, cr1, cr5, {0}
    13c8:	05000060 	streq	r0, [r0, #-96]	; 0xffffffa0
    13cc:	21ad0191 			; <UNDEFINED> instruction: 0x21ad0191
    13d0:	94050000 	strls	r0, [r5], #-0
    13d4:	0054df01 	subseq	sp, r4, r1, lsl #30
    13d8:	01970500 	orrseq	r0, r7, r0, lsl #10
    13dc:	000000e0 	andeq	r0, r0, r0, ror #1
    13e0:	30019805 	andcc	r9, r1, r5, lsl #16
    13e4:	0500002e 	streq	r0, [r0, #-46]	; 0xffffffd2
    13e8:	760f0199 			; <UNDEFINED> instruction: 0x760f0199
    13ec:	9b050000 	blls	1413f4 <_Min_Stack_Size+0x140ff4>
    13f0:	0044bd01 	subeq	fp, r4, r1, lsl #26
    13f4:	019c0500 	orrseq	r0, ip, r0, lsl #10
    13f8:	0000806a 	andeq	r8, r0, sl, rrx
    13fc:	24019e05 	strcs	r9, [r1], #-3589	; 0xfffff1fb
    1400:	05000081 	streq	r0, [r0, #-129]	; 0xffffff7f
    1404:	1b0201a0 	blne	81a8c <_Min_Stack_Size+0x8168c>
    1408:	b1050000 	mrslt	r0, (UNDEF: 5)
    140c:	001b6b01 	andseq	r6, fp, r1, lsl #22
    1410:	01b20500 			; <UNDEFINED> instruction: 0x01b20500
    1414:	0000103c 	andeq	r1, r0, ip, lsr r0
    1418:	a001b305 	andge	fp, r1, r5, lsl #6
    141c:	05000005 	streq	r0, [r0, #-5]
    1420:	619001b4 			; <UNDEFINED> instruction: 0x619001b4
    1424:	b5050000 	strlt	r0, [r5, #-0]
    1428:	00316401 	eorseq	r6, r1, r1, lsl #8
    142c:	01b70500 			; <UNDEFINED> instruction: 0x01b70500
    1430:	00007171 	andeq	r7, r0, r1, ror r1
    1434:	f501b805 			; <UNDEFINED> instruction: 0xf501b805
    1438:	05000068 	streq	r0, [r0, #-104]	; 0xffffff98
    143c:	5b9b01b9 	blpl	fe6c1b28 <_estack+0xde6bcb28>
    1440:	e6050000 	str	r0, [r5], -r0
    1444:	0001ee01 	andeq	lr, r1, r1, lsl #28
    1448:	01f30500 	mvnseq	r0, r0, lsl #10
    144c:	000078d2 	ldrdeq	r7, [r0], -r2
    1450:	2401f405 	strcs	pc, [r1], #-1029	; 0xfffffbfb
    1454:	05000043 	streq	r0, [r0, #-67]	; 0xffffffbd
    1458:	515201f5 	ldrshpl	r0, [r2, #-21]	; 0xffffffeb
    145c:	f6050000 			; <UNDEFINED> instruction: 0xf6050000
    1460:	002c0101 	eoreq	r0, ip, r1, lsl #2
    1464:	01f70500 	mvnseq	r0, r0, lsl #10
    1468:	00008a48 	andeq	r8, r0, r8, asr #20
    146c:	8b01f805 	blhi	7f488 <_Min_Stack_Size+0x7f088>
    1470:	0500000a 	streq	r0, [r0, #-10]
    1474:	421b01f9 	andsmi	r0, fp, #1073741886	; 0x4000003e
    1478:	fc050000 	stc2	0, cr0, [r5], {-0}
    147c:	00481401 	subeq	r1, r8, r1, lsl #8
    1480:	01fd0500 	mvnseq	r0, r0, lsl #10
    1484:	00002417 	andeq	r2, r0, r7, lsl r4
    1488:	dd028305 	stcle	3, cr8, [r2, #-20]	; 0xffffffec
    148c:	0500001f 	streq	r0, [r0, #-31]	; 0xffffffe1
    1490:	2c2202dc 	sfmcs	f0, 4, [r2], #-880	; 0xfffffc90
    1494:	ee050000 	cdp	0, 0, cr0, cr5, cr0, {0}
    1498:	00411102 	subeq	r1, r1, r2, lsl #2
    149c:	02f40500 	rscseq	r0, r4, #0, 10
    14a0:	00003b56 	andeq	r3, r0, r6, asr fp
    14a4:	7302f505 	movwvc	pc, #9477	; 0x2505	; <UNPREDICTABLE>
    14a8:	05000036 	streq	r0, [r0, #-54]	; 0xffffffca
    14ac:	867c02fc 			; <UNDEFINED> instruction: 0x867c02fc
    14b0:	82050000 	andhi	r0, r5, #0
    14b4:	00279503 	eoreq	r9, r7, r3, lsl #10
    14b8:	03880500 	orreq	r0, r8, #0, 10
    14bc:	0000876b 	andeq	r8, r0, fp, ror #14
    14c0:	94038905 	strls	r8, [r3], #-2309	; 0xfffff6fb
    14c4:	05000051 	streq	r0, [r0, #-81]	; 0xffffffaf
    14c8:	76b70390 	ssatvc	r0, #24, r0, lsl #7
    14cc:	91050000 	mrsls	r0, (UNDEF: 5)
    14d0:	000e6403 	andeq	r6, lr, r3, lsl #8
    14d4:	03980500 	orrseq	r0, r8, #0, 10
    14d8:	00002f85 	andeq	r2, r0, r5, lsl #31
    14dc:	f7039e05 			; <UNDEFINED> instruction: 0xf7039e05
    14e0:	05000000 	streq	r0, [r0, #-0]
    14e4:	393103b2 	ldmdbcc	r1!, {r1, r4, r5, r7, r8, r9}
    14e8:	d3050000 	movwle	r0, #20480	; 0x5000
    14ec:	00203c03 	eoreq	r3, r0, r3, lsl #24
    14f0:	03d40500 	bicseq	r0, r4, #0, 10
    14f4:	000056f0 	strdeq	r5, [r0], -r0
    14f8:	a603db05 	strge	sp, [r3], -r5, lsl #22
    14fc:	05000017 	streq	r0, [r0, #-23]	; 0xffffffe9
    1500:	2d6103dc 	stclcs	3, cr0, [r1, #-880]!	; 0xfffffc90
    1504:	df050000 	svcle	0x00050000
    1508:	0028f603 	eoreq	pc, r8, r3, lsl #12
    150c:	03e90500 	mvneq	r0, #0, 10
    1510:	00003edf 	ldrdeq	r3, [r0], -pc	; <UNPREDICTABLE>
    1514:	8603ea05 	strhi	lr, [r3], -r5, lsl #20
    1518:	05000078 	streq	r0, [r0, #-120]	; 0xffffff88
    151c:	2a9c03f4 	bcs	fe7024f4 <_estack+0xde6fd4f4>
    1520:	8a050000 	bhi	141528 <_Min_Stack_Size+0x141128>
    1524:	00764804 	rsbseq	r4, r6, r4, lsl #16
    1528:	048c0500 	streq	r0, [ip], #1280	; 0x500
    152c:	00007e78 	andeq	r7, r0, r8, ror lr
    1530:	62048e05 	andvs	r8, r4, #5, 28	; 0x50
    1534:	05000085 	streq	r0, [r0, #-133]	; 0xffffff7b
    1538:	1baf048f 	blne	febc277c <_estack+0xdebbd77c>
    153c:	91050000 	mrsls	r0, (UNDEF: 5)
    1540:	0088ed04 	addeq	lr, r8, r4, lsl #26
    1544:	049b0500 	ldreq	r0, [fp], #1280	; 0x500
    1548:	000062c8 	andeq	r6, r0, r8, asr #5
    154c:	0004a005 	andeq	sl, r4, r5
    1550:	0500007d 	streq	r0, [r0, #-125]	; 0xffffff83
    1554:	11f104a5 	mvnsne	r0, r5, lsr #9
    1558:	a8050000 	stmdage	r5, {}	; <UNPREDICTABLE>
    155c:	00488504 	subeq	r8, r8, r4, lsl #10
    1560:	04ac0500 	strteq	r0, [ip], #1280	; 0x500
    1564:	000075c3 	andeq	r7, r0, r3, asr #11
    1568:	7204ae05 	andvc	sl, r4, #5, 28	; 0x50
    156c:	05000023 	streq	r0, [r0, #-35]	; 0xffffffdd
    1570:	5f1404d1 	svcpl	0x001404d1
    1574:	d5050000 	strle	r0, [r5, #-0]
    1578:	0072e904 	rsbseq	lr, r2, r4, lsl #18
    157c:	04d90500 	ldrbeq	r0, [r9], #1280	; 0x500
    1580:	00000693 	muleq	r0, r3, r6
    1584:	9704dd05 	strls	sp, [r4, -r5, lsl #26]
    1588:	0500002d 	streq	r0, [r0, #-45]	; 0xffffffd3
    158c:	61fd04e1 	mvnsvs	r0, r1, ror #9
    1590:	e5050000 	str	r0, [r5, #-0]
    1594:	00268304 	eoreq	r8, r6, r4, lsl #6
    1598:	04e90500 	strbteq	r0, [r9], #1280	; 0x500
    159c:	00007b71 	andeq	r7, r0, r1, ror fp
    15a0:	8d04ed05 	stchi	13, cr14, [r4, #-20]	; 0xffffffec
    15a4:	05000089 	streq	r0, [r0, #-137]	; 0xffffff77
    15a8:	153004f4 	ldrne	r0, [r0, #-1268]!	; 0xfffffb0c
    15ac:	f5050000 			; <UNDEFINED> instruction: 0xf5050000
    15b0:	00181e04 	andseq	r1, r8, r4, lsl #28
    15b4:	04f60500 	ldrbteq	r0, [r6], #1280	; 0x500
    15b8:	0000312a 	andeq	r3, r0, sl, lsr #2
    15bc:	7904f705 	stmdbvc	r4, {r0, r2, r8, r9, sl, ip, sp, lr, pc}
    15c0:	05000043 	streq	r0, [r0, #-67]	; 0xffffffbd
    15c4:	508d04f8 	strdpl	r0, [sp], r8
    15c8:	8d050000 	stchi	0, cr0, [r5, #-0]
    15cc:	00616105 	rsbeq	r6, r1, r5, lsl #2
    15d0:	058e0500 	streq	r0, [lr, #1280]	; 0x500
    15d4:	00008617 	andeq	r8, r0, r7, lsl r6
    15d8:	0d05a005 	stceq	0, cr10, [r5, #-20]	; 0xffffffec
    15dc:	05000077 	streq	r0, [r0, #-119]	; 0xffffff89
    15e0:	73b905a6 			; <UNDEFINED> instruction: 0x73b905a6
    15e4:	a9050000 	stmdbge	r5, {}	; <UNPREDICTABLE>
    15e8:	00164705 	andseq	r4, r6, r5, lsl #14
    15ec:	05ab0500 	streq	r0, [fp, #1280]!	; 0x500
    15f0:	00003c58 	andeq	r3, r0, r8, asr ip
    15f4:	cd05af05 	stcgt	15, cr10, [r5, #-20]	; 0xffffffec
    15f8:	0500006a 	streq	r0, [r0, #-106]	; 0xffffff96
    15fc:	3b8005b1 	blcc	fe002cc8 <_estack+0xddffdcc8>
    1600:	b5050000 	strlt	r0, [r5, #-0]
    1604:	005a9505 	subseq	r9, sl, r5, lsl #10
    1608:	05b80500 	ldreq	r0, [r8, #1280]!	; 0x500
    160c:	00003974 	andeq	r3, r0, r4, ror r9
    1610:	8905ba05 	stmdbhi	r5, {r0, r2, r9, fp, ip, sp, pc}
    1614:	0500008a 	streq	r0, [r0, #-138]	; 0xffffff76
    1618:	026805be 	rsbeq	r0, r8, #796917760	; 0x2f800000
    161c:	c0050000 	andgt	r0, r5, r0
    1620:	002fdc05 	eoreq	sp, pc, r5, lsl #24
    1624:	05c20500 	strbeq	r0, [r2, #1280]	; 0x500
    1628:	00005966 	andeq	r5, r0, r6, ror #18
    162c:	6205c605 	andvs	ip, r5, #5242880	; 0x500000
    1630:	0500006c 	streq	r0, [r0, #-108]	; 0xffffff94
    1634:	37f805d1 	ubfxcc	r0, r1, #11, #25
    1638:	d2050000 	andle	r0, r5, #0
    163c:	008c8105 	addeq	r8, ip, r5, lsl #2
    1640:	05d60500 	ldrbeq	r0, [r6, #1280]	; 0x500
    1644:	00007539 	andeq	r7, r0, r9, lsr r5
    1648:	0405d705 	streq	sp, [r5], #-1797	; 0xfffff8fb
    164c:	00000075 	andeq	r0, r0, r5, ror r0
    1650:	05000004 	streq	r0, [r0, #-4]
    1654:	007f9a08 	rsbseq	r9, pc, r8, lsl #20
    1658:	b40d0600 	strlt	r0, [sp], #-1536	; 0xfffffa00
    165c:	05000059 	streq	r0, [r0, #-89]	; 0xffffffa7
    1660:	006ce310 	rsbeq	lr, ip, r0, lsl r3
    1664:	00040000 	andeq	r0, r4, r0
    1668:	28380500 	ldmdacs	r8!, {r8, sl}
    166c:	05000063 	streq	r0, [r0, #-99]	; 0xffffff9d
    1670:	0087ac3c 	addeq	sl, r7, ip, lsr ip
    1674:	793d0500 	ldmdbvc	sp!, {r8, sl}
    1678:	0500001d 	streq	r0, [r0, #-29]	; 0xffffffe3
    167c:	003f983f 	eorseq	r9, pc, pc, lsr r8	; <UNPREDICTABLE>
    1680:	0b430500 	bleq	10c2a88 <_Min_Stack_Size+0x10c2688>
    1684:	05000050 	streq	r0, [r0, #-80]	; 0xffffffb0
    1688:	085501a8 	ldmdaeq	r5, {r3, r5, r7, r8}^
    168c:	04000000 	streq	r0, [r0], #-0
    1690:	08050000 	stmdaeq	r5, {}	; <UNPREDICTABLE>
    1694:	000074f8 	strdeq	r7, [r0], -r8
    1698:	2a150f05 	bcs	5452b4 <_Min_Stack_Size+0x544eb4>
    169c:	10050000 	andne	r0, r5, r0
    16a0:	000041b7 			; <UNDEFINED> instruction: 0x000041b7
    16a4:	00000400 	andeq	r0, r0, r0, lsl #8
    16a8:	a5019b06 	strge	r9, [r1, #-2822]	; 0xfffff4fa
    16ac:	06000079 			; <UNDEFINED> instruction: 0x06000079
    16b0:	49c901e7 	stmibmi	r9, {r0, r1, r2, r5, r6, r7, r8}^
    16b4:	d4060000 	strle	r0, [r6], #-0
    16b8:	000e3c02 	andeq	r3, lr, r2, lsl #24
    16bc:	03860600 	orreq	r0, r6, #0, 12
    16c0:	00003a8e 	andeq	r3, r0, lr, lsl #21
    16c4:	63038b05 	movwvs	r8, #15109	; 0x3b05
    16c8:	06000039 			; <UNDEFINED> instruction: 0x06000039
    16cc:	3a870391 	bcc	fe1c2518 <_estack+0xde1bd518>
    16d0:	96050000 	strls	r0, [r5], -r0
    16d4:	00424803 	subeq	r4, r2, r3, lsl #16
    16d8:	00040000 	andeq	r0, r4, r0
    16dc:	01b10500 			; <UNDEFINED> instruction: 0x01b10500
    16e0:	00001cd5 	ldrdeq	r1, [r0], -r5
    16e4:	4c01b405 	cfstrsmi	mvf11, [r1], {5}
    16e8:	0500004a 	streq	r0, [r0, #-74]	; 0xffffffb6
    16ec:	814001b7 	strhhi	r0, [r0, #-23]	; 0xffffffe9
    16f0:	ba050000 	blt	1416f8 <_Min_Stack_Size+0x1412f8>
    16f4:	00726901 	rsbseq	r6, r2, r1, lsl #18
    16f8:	00040000 	andeq	r0, r4, r0
    16fc:	550a0500 	strpl	r0, [sl, #-1280]	; 0xfffffb00
    1700:	05000081 	streq	r0, [r0, #-129]	; 0xffffff7f
    1704:	00533b10 	subseq	r3, r3, r0, lsl fp
    1708:	fe2b0600 	cdp2	6, 2, cr0, cr11, cr0, {0}
    170c:	06000068 	streq	r0, [r0], -r8, rrx
    1710:	0074ab2c 	rsbseq	sl, r4, ip, lsr #22
    1714:	0b2d0600 	bleq	b42f1c <_Min_Stack_Size+0xb42b1c>
    1718:	06000008 	streq	r0, [r0], -r8
    171c:	00619f2e 	rsbeq	r9, r1, lr, lsr #30
    1720:	692f0200 	stmdbvs	pc!, {r9}	; <UNPREDICTABLE>
    1724:	0600746e 	streq	r7, [r0], -lr, ror #8
    1728:	008b2e30 	addeq	r2, fp, r0, lsr lr
    172c:	00310600 	eorseq	r0, r1, r0, lsl #12
    1730:	06000006 	streq	r0, [r0], -r6
    1734:	005ded32 	subseq	lr, sp, r2, lsr sp
    1738:	e5330500 	ldr	r0, [r3, #-1280]!	; 0xfffffb00
    173c:	05000043 	streq	r0, [r0, #-67]	; 0xffffffbd
    1740:	0043e334 	subeq	lr, r3, r4, lsr r3
    1744:	ac350500 	cfldr32ge	mvfx0, [r5], #-0
    1748:	05000059 	streq	r0, [r0, #-89]	; 0xffffffa7
    174c:	00805436 	addeq	r5, r0, r6, lsr r4
    1750:	7a370500 	bvc	dc2b58 <_Min_Stack_Size+0xdc2758>
    1754:	05000000 	streq	r0, [r0, #-0]
    1758:	006c5538 	rsbeq	r5, ip, r8, lsr r5
    175c:	3f390500 	svccc	0x00390500
    1760:	05000059 	streq	r0, [r0, #-89]	; 0xffffffa7
    1764:	0087533a 	addeq	r5, r7, sl, lsr r3
    1768:	bb430500 	bllt	10c2b70 <_Min_Stack_Size+0x10c2770>
    176c:	0500003c 	streq	r0, [r0, #-60]	; 0xffffffc4
    1770:	00838b4a 	addeq	r8, r3, sl, asr #22
    1774:	ac520500 	cfldr64ge	mvdx0, [r2], {-0}
    1778:	0500000b 	streq	r0, [r0, #-11]
    177c:	003c9f5d 	eorseq	r9, ip, sp, asr pc
    1780:	ac680500 	cfstr64ge	mvdx0, [r8], #-0
    1784:	0500007f 	streq	r0, [r0, #-127]	; 0xffffff81
    1788:	00866f71 	addeq	r6, r6, r1, ror pc
    178c:	7e780500 	cdpvc	5, 7, cr0, cr8, cr0, {0}
    1790:	05000077 	streq	r0, [r0, #-119]	; 0xffffff89
    1794:	1d070181 	stfnes	f0, [r7, #-516]	; 0xfffffdfc
    1798:	88050000 	stmdahi	r5, {}	; <UNPREDICTABLE>
    179c:	007c4401 	rsbseq	r4, ip, r1, lsl #8
    17a0:	01930500 	orrseq	r0, r3, r0, lsl #10
    17a4:	000069e9 	andeq	r6, r0, r9, ror #19
    17a8:	ec019705 	stc	7, cr9, [r1], {5}
    17ac:	05000055 	streq	r0, [r0, #-85]	; 0xffffffab
    17b0:	763a01a2 	ldrtvc	r0, [sl], -r2, lsr #3
    17b4:	ad050000 	stcge	0, cr0, [r5, #-0]
    17b8:	00136001 	andseq	r6, r3, r1
    17bc:	01b60500 			; <UNDEFINED> instruction: 0x01b60500
    17c0:	0000605f 	andeq	r6, r0, pc, asr r0
    17c4:	fe01b806 	vcmla.f16	d11, d1, d6[0], #0
    17c8:	06000068 	streq	r0, [r0], -r8, rrx
    17cc:	74ab01b9 	strtvc	r0, [fp], #441	; 0x1b9
    17d0:	ba060000 	blt	1817d8 <_Min_Stack_Size+0x1813d8>
    17d4:	00080b01 	andeq	r0, r8, r1, lsl #22
    17d8:	01bb0600 			; <UNDEFINED> instruction: 0x01bb0600
    17dc:	0000619f 	muleq	r0, pc, r1	; <UNPREDICTABLE>
    17e0:	6901bc02 	stmdbvs	r1, {r1, sl, fp, ip, sp, pc}
    17e4:	0600746e 	streq	r7, [r0], -lr, ror #8
    17e8:	5ded01bd 	stfple	f0, [sp, #756]!	; 0x2f4
    17ec:	c2060000 	andgt	r0, r6, #0
    17f0:	008b2e01 	addeq	r2, fp, r1, lsl #28
    17f4:	01c30600 	biceq	r0, r3, r0, lsl #12
    17f8:	00000600 	andeq	r0, r0, r0, lsl #12
    17fc:	00000400 	andeq	r0, r0, r0, lsl #8
    1800:	41a70a05 			; <UNDEFINED> instruction: 0x41a70a05
    1804:	15050000 	strne	r0, [r5, #-0]
    1808:	000080cd 	andeq	r8, r0, sp, asr #1
    180c:	23261905 			; <UNDEFINED> instruction: 0x23261905
    1810:	1b050000 	blne	141818 <_Min_Stack_Size+0x141418>
    1814:	00003e9f 	muleq	r0, pc, lr	; <UNPREDICTABLE>
    1818:	38792105 	ldmdacc	r9!, {r0, r2, r8, sp}^
    181c:	25050000 	strcs	r0, [r5, #-0]
    1820:	00001114 	andeq	r1, r0, r4, lsl r1
    1824:	6d882705 	stcvs	7, cr2, [r8, #20]
    1828:	2d050000 	stccs	0, cr0, [r5, #-0]
    182c:	000080df 	ldrdeq	r8, [r0], -pc	; <UNPREDICTABLE>
    1830:	03f03105 	mvnseq	r3, #1073741825	; 0x40000001
    1834:	33050000 	movwcc	r0, #20480	; 0x5000
    1838:	00005056 	andeq	r5, r0, r6, asr r0
    183c:	6ca03905 			; <UNDEFINED> instruction: 0x6ca03905
    1840:	3d050000 	stccc	0, cr0, [r5, #-0]
    1844:	000055b5 			; <UNDEFINED> instruction: 0x000055b5
    1848:	63b33f05 			; <UNDEFINED> instruction: 0x63b33f05
    184c:	44050000 	strmi	r0, [r5], #-0
    1850:	0000854e 	andeq	r8, r0, lr, asr #10
    1854:	67d64905 	ldrbvs	r4, [r6, r5, lsl #18]
    1858:	4e050000 	cdpmi	0, 0, cr0, cr5, cr0, {0}
    185c:	000015b1 			; <UNDEFINED> instruction: 0x000015b1
    1860:	6a455305 	bvs	115647c <_Min_Stack_Size+0x115607c>
    1864:	04000000 	streq	r0, [r0], #-0
    1868:	17050000 	strne	r0, [r5, -r0]
    186c:	00005a00 	andeq	r5, r0, r0, lsl #20
    1870:	17f21d05 	ldrbne	r1, [r2, r5, lsl #26]!
    1874:	23050000 	movwcs	r0, #20480	; 0x5000
    1878:	00003a43 	andeq	r3, r0, r3, asr #20
    187c:	52102905 	andspl	r2, r0, #81920	; 0x14000
    1880:	35050000 	strcc	r0, [r5, #-0]
    1884:	00001d54 	andeq	r1, r0, r4, asr sp
    1888:	57e83f05 	strbpl	r3, [r8, r5, lsl #30]!
    188c:	49050000 	stmdbmi	r5, {}	; <UNPREDICTABLE>
    1890:	00000f8a 	andeq	r0, r0, sl, lsl #31
    1894:	25735305 	ldrbcs	r5, [r3, #-773]!	; 0xfffffcfb
    1898:	80050000 	andhi	r0, r5, r0
    189c:	008bb301 	addeq	fp, fp, r1, lsl #6
    18a0:	01810500 	orreq	r0, r1, r0, lsl #10
    18a4:	00005b50 	andeq	r5, r0, r0, asr fp
    18a8:	62018205 	andvs	r8, r1, #1342177280	; 0x50000000
    18ac:	05000019 	streq	r0, [r0, #-25]	; 0xffffffe7
    18b0:	3b200198 	blcc	801f18 <_Min_Stack_Size+0x801b18>
    18b4:	99050000 	stmdbls	r5, {}	; <UNPREDICTABLE>
    18b8:	00000001 	andeq	r0, r0, r1
    18bc:	019a0500 	orrseq	r0, sl, r0, lsl #10
    18c0:	00008720 	andeq	r8, r0, r0, lsr #14
    18c4:	f101a205 			; <UNDEFINED> instruction: 0xf101a205
    18c8:	05000079 	streq	r0, [r0, #-121]	; 0xffffff87
    18cc:	29bc01a3 	ldmibcs	ip!, {r0, r1, r5, r7, r8}
    18d0:	a4050000 	strge	r0, [r5], #-0
    18d4:	006efa01 	rsbeq	pc, lr, r1, lsl #20
    18d8:	01ae0500 			; <UNDEFINED> instruction: 0x01ae0500
    18dc:	00001ce8 	andeq	r1, r0, r8, ror #25
    18e0:	dc01af05 	stcle	15, cr10, [r1], {5}
    18e4:	0500000e 	streq	r0, [r0, #-14]
    18e8:	6ec101b0 	mcrvs	1, 6, r0, cr1, cr0, {5}
    18ec:	b8050000 	stmdalt	r5, {}	; <UNPREDICTABLE>
    18f0:	0032d401 	eorseq	sp, r2, r1, lsl #8
    18f4:	01b90500 			; <UNDEFINED> instruction: 0x01b90500
    18f8:	00000bdd 	ldrdeq	r0, [r0], -sp
    18fc:	7001ba05 	andvc	fp, r1, r5, lsl #20
    1900:	05000030 	streq	r0, [r0, #-48]	; 0xffffffd0
    1904:	6de801c4 	stfvse	f0, [r8, #784]!	; 0x310
    1908:	c5050000 	strgt	r0, [r5, #-0]
    190c:	002e7301 	eoreq	r7, lr, r1, lsl #6
    1910:	01c60500 	biceq	r0, r6, r0, lsl #10
    1914:	000032b8 			; <UNDEFINED> instruction: 0x000032b8
    1918:	5c01d405 	cfstrspl	mvf13, [r1], {5}
    191c:	05000032 	streq	r0, [r0, #-50]	; 0xffffffce
    1920:	292901d5 	stmdbcs	r9!, {r0, r2, r4, r6, r7, r8}
    1924:	d6050000 	strle	r0, [r5], -r0
    1928:	00717f01 	rsbseq	r7, r1, r1, lsl #30
    192c:	01e60500 	mvneq	r0, r0, lsl #10
    1930:	000076ee 	andeq	r7, r0, lr, ror #13
    1934:	5f01e705 	svcpl	0x0001e705
    1938:	0500004a 	streq	r0, [r0, #-74]	; 0xffffffb6
    193c:	2b4201e8 	blcs	10820e4 <_Min_Stack_Size+0x1081ce4>
    1940:	f6050000 			; <UNDEFINED> instruction: 0xf6050000
    1944:	00142601 	andseq	r2, r4, r1, lsl #12
    1948:	01f70500 	mvnseq	r0, r0, lsl #10
    194c:	00001181 	andeq	r1, r0, r1, lsl #3
    1950:	6d01f805 	stcvs	8, cr15, [r1, #-20]	; 0xffffffec
    1954:	05000027 	streq	r0, [r0, #-39]	; 0xffffffd9
    1958:	56c90286 	strbpl	r0, [r9], r6, lsl #5
    195c:	87050000 	strhi	r0, [r5, -r0]
    1960:	0023e602 	eoreq	lr, r3, r2, lsl #12
    1964:	02880500 	addeq	r0, r8, #0, 10
    1968:	00006692 	muleq	r0, r2, r6
    196c:	1c029605 	stcne	6, cr9, [r2], {5}
    1970:	0500000a 	streq	r0, [r0, #-10]
    1974:	577c0297 			; <UNDEFINED> instruction: 0x577c0297
    1978:	98050000 	stmdals	r5, {}	; <UNPREDICTABLE>
    197c:	002f5f02 	eoreq	r5, pc, r2, lsl #30
    1980:	02a60500 	adceq	r0, r6, #0, 10
    1984:	000015df 	ldrdeq	r1, [r0], -pc	; <UNPREDICTABLE>
    1988:	4b02a705 	blmi	ab5a4 <_Min_Stack_Size+0xab1a4>
    198c:	0500008b 	streq	r0, [r0, #-139]	; 0xffffff75
    1990:	6ff202a8 	svcvs	0x00f202a8
    1994:	b6050000 	strlt	r0, [r5], -r0
    1998:	005f7302 	subseq	r7, pc, r2, lsl #6
    199c:	02b70500 	adcseq	r0, r7, #0, 10
    19a0:	00004300 	andeq	r4, r0, r0, lsl #6
    19a4:	3602b805 	strcc	fp, [r2], -r5, lsl #16
    19a8:	05000035 	streq	r0, [r0, #-53]	; 0xffffffcb
    19ac:	2e5702c6 	cdpcs	2, 5, cr0, cr7, cr6, {6}
    19b0:	c7050000 	strgt	r0, [r5, -r0]
    19b4:	001e7c02 	andseq	r7, lr, r2, lsl #24
    19b8:	02cf0500 	sbceq	r0, pc, #0, 10
    19bc:	00004468 	andeq	r4, r0, r8, ror #8
    19c0:	b402d705 	strlt	sp, [r2], #-1797	; 0xfffff8fb
    19c4:	0500006b 	streq	r0, [r0, #-107]	; 0xffffff95
    19c8:	383302dd 	ldmdacc	r3!, {r0, r2, r3, r4, r6, r7, r9}
    19cc:	de050000 	cdple	0, 0, cr0, cr5, cr0, {0}
    19d0:	002a7502 	eoreq	r7, sl, r2, lsl #10
    19d4:	02e20500 	rsceq	r0, r2, #0, 10
    19d8:	00000cf2 	strdeq	r0, [r0], -r2
    19dc:	e902e605 	stmdb	r2, {r0, r2, r9, sl, sp, lr, pc}
    19e0:	0500008b 	streq	r0, [r0, #-139]	; 0xffffff75
    19e4:	439402eb 	orrsmi	r0, r4, #-1342177266	; 0xb000000e
    19e8:	f6050000 			; <UNDEFINED> instruction: 0xf6050000
    19ec:	006d9c02 	rsbeq	r9, sp, r2, lsl #24
    19f0:	03800500 	orreq	r0, r0, #0, 10
    19f4:	00004e42 	andeq	r4, r0, r2, asr #28
    19f8:	2f038505 	svccs	0x00038505
    19fc:	05000000 	streq	r0, [r0, #-0]
    1a00:	4047038c 	submi	r0, r7, ip, lsl #7
    1a04:	8d050000 	stchi	0, cr0, [r5, #-0]
    1a08:	00798d03 	rsbseq	r8, r9, r3, lsl #26
    1a0c:	03980500 	orrseq	r0, r8, #0, 10
    1a10:	00001011 	andeq	r1, r0, r1, lsl r0
    1a14:	5f039905 	svcpl	0x00039905
    1a18:	05000038 	streq	r0, [r0, #-56]	; 0xffffffc8
    1a1c:	710103a4 	smlatbvc	r1, r4, r3, r0
    1a20:	a5050000 	strge	r0, [r5, #-0]
    1a24:	00563803 	subseq	r3, r6, r3, lsl #16
    1a28:	03b10500 			; <UNDEFINED> instruction: 0x03b10500
    1a2c:	00003af9 	strdeq	r3, [r0], -r9
    1a30:	6a03b205 	bvs	ee24c <_Min_Stack_Size+0xede4c>
    1a34:	0500007a 	streq	r0, [r0, #-122]	; 0xffffff86
    1a38:	28cc03c1 	stmiacs	ip, {r0, r6, r7, r8, r9}^
    1a3c:	c2050000 	andgt	r0, r5, #0
    1a40:	00633f03 	rsbeq	r3, r3, r3, lsl #30
    1a44:	00040000 	andeq	r0, r4, r0
    1a48:	771a0500 	ldrvc	r0, [sl, -r0, lsl #10]
    1a4c:	05000034 	streq	r0, [r0, #-52]	; 0xffffffcc
    1a50:	0080ad1b 	addeq	sl, r0, fp, lsl sp
    1a54:	201c0500 	andscs	r0, ip, r0, lsl #10
    1a58:	0500006b 	streq	r0, [r0, #-107]	; 0xffffff95
    1a5c:	002d111e 	eoreq	r1, sp, lr, lsl r1
    1a60:	57200500 	strpl	r0, [r0, -r0, lsl #10]!
    1a64:	05000054 	streq	r0, [r0, #-84]	; 0xffffffac
    1a68:	00448623 	subeq	r8, r4, r3, lsr #12
    1a6c:	94250500 	strtls	r0, [r5], #-1280	; 0xfffffb00
    1a70:	05000036 	streq	r0, [r0, #-54]	; 0xffffffca
    1a74:	00479e26 	subeq	r9, r7, r6, lsr #28
    1a78:	e0270500 	eor	r0, r7, r0, lsl #10
    1a7c:	05000083 	streq	r0, [r0, #-131]	; 0xffffff7d
    1a80:	00046a28 	andeq	r6, r4, r8, lsr #20
    1a84:	3d290500 	cfstr32cc	mvfx0, [r9, #-0]
    1a88:	05000046 	streq	r0, [r0, #-70]	; 0xffffffba
    1a8c:	00258c2a 	eoreq	r8, r5, sl, lsr #24
    1a90:	20310500 	eorscs	r0, r1, r0, lsl #10
    1a94:	05000074 	streq	r0, [r0, #-116]	; 0xffffff8c
    1a98:	0027403e 	eoreq	r4, r7, lr, lsr r0
    1a9c:	913f0500 	teqls	pc, r0, lsl #10
    1aa0:	05000067 	streq	r0, [r0, #-103]	; 0xffffff99
    1aa4:	00676441 	rsbeq	r6, r7, r1, asr #8
    1aa8:	0a420500 	beq	1082eb0 <_Min_Stack_Size+0x1082ab0>
    1aac:	05000006 	streq	r0, [r0, #-6]
    1ab0:	002e8d44 	eoreq	r8, lr, r4, asr #26
    1ab4:	65470500 	strbvs	r0, [r7, #-1280]	; 0xfffffb00
    1ab8:	05000081 	streq	r0, [r0, #-129]	; 0xffffff7f
    1abc:	0031a448 	eorseq	sl, r1, r8, asr #8
    1ac0:	018e0500 	orreq	r0, lr, r0, lsl #10
    1ac4:	00007408 	andeq	r7, r0, r8, lsl #8
    1ac8:	de019005 	cdple	0, 0, cr9, cr1, cr5, {0}
    1acc:	05000073 	streq	r0, [r0, #-115]	; 0xffffff8d
    1ad0:	0b190191 	bleq	64211c <_Min_Stack_Size+0x641d1c>
    1ad4:	92050000 	andls	r0, r5, #0
    1ad8:	0037db01 	eorseq	sp, r7, r1, lsl #22
    1adc:	01930500 	orrseq	r0, r3, r0, lsl #10
    1ae0:	0000705b 	andeq	r7, r0, fp, asr r0
    1ae4:	6a019405 	bvs	66b00 <_Min_Stack_Size+0x66700>
    1ae8:	0500005a 	streq	r0, [r0, #-90]	; 0xffffffa6
    1aec:	80060196 	mulhi	r6, r6, r1
    1af0:	97050000 	strls	r0, [r5, -r0]
    1af4:	00606e01 	rsbeq	r6, r0, r1, lsl #28
    1af8:	019e0500 	orrseq	r0, lr, r0, lsl #10
    1afc:	00003402 	andeq	r3, r0, r2, lsl #8
    1b00:	5c019f05 	stcpl	15, cr9, [r1], {5}
    1b04:	0500001f 	streq	r0, [r0, #-31]	; 0xffffffe1
    1b08:	0e9f01a0 	fmleq<illegal precision>p	f0, f7, f0
    1b0c:	a1050000 	mrsge	r0, (UNDEF: 5)
    1b10:	00851601 	addeq	r1, r5, r1, lsl #12
    1b14:	01a20500 			; <UNDEFINED> instruction: 0x01a20500
    1b18:	00008961 	andeq	r8, r0, r1, ror #18
    1b1c:	4701a405 	strmi	sl, [r1, -r5, lsl #8]
    1b20:	05000023 	streq	r0, [r0, #-35]	; 0xffffffdd
    1b24:	6b9101ad 	blvs	fe4421e0 <_estack+0xde43d1e0>
    1b28:	ae050000 	cdpge	0, 0, cr0, cr5, cr0, {0}
    1b2c:	00289b01 	eoreq	r9, r8, r1, lsl #22
    1b30:	01af0500 			; <UNDEFINED> instruction: 0x01af0500
    1b34:	00002d55 	andeq	r2, r0, r5, asr sp
    1b38:	6b01b005 	blvs	6db54 <_Min_Stack_Size+0x6d754>
    1b3c:	05000035 	streq	r0, [r0, #-53]	; 0xffffffcb
    1b40:	64be01b1 	ldrtvs	r0, [lr], #433	; 0x1b1
    1b44:	b2050000 	andlt	r0, r5, #0
    1b48:	0055fa01 	subseq	pc, r5, r1, lsl #20
    1b4c:	01b30500 			; <UNDEFINED> instruction: 0x01b30500
    1b50:	00001d88 	andeq	r1, r0, r8, lsl #27
    1b54:	7901b405 	stmdbvc	r1, {r0, r2, sl, ip, sp, pc}
    1b58:	05000078 	streq	r0, [r0, #-120]	; 0xffffff88
    1b5c:	722101b5 	eorvc	r0, r1, #1073741869	; 0x4000002d
    1b60:	b6050000 	strlt	r0, [r5], -r0
    1b64:	0003cd01 	andeq	ip, r3, r1, lsl #26
    1b68:	01b70500 			; <UNDEFINED> instruction: 0x01b70500
    1b6c:	00005414 	andeq	r5, r0, r4, lsl r4
    1b70:	2801b805 	stmdacs	r1, {r0, r2, fp, ip, sp, pc}
    1b74:	05000065 	streq	r0, [r0, #-101]	; 0xffffff9b
    1b78:	756801b9 	strbvc	r0, [r8, #-441]!	; 0xfffffe47
    1b7c:	ba050000 	blt	141b84 <_Min_Stack_Size+0x141784>
    1b80:	002b7e01 	eoreq	r7, fp, r1, lsl #28
    1b84:	01bb0500 			; <UNDEFINED> instruction: 0x01bb0500
    1b88:	00005449 	andeq	r5, r0, r9, asr #8
    1b8c:	5a01bc05 	bpl	70ba8 <_Min_Stack_Size+0x707a8>
    1b90:	0500006a 	streq	r0, [r0, #-106]	; 0xffffff96
    1b94:	38f601c3 	ldmcc	r6!, {r0, r1, r6, r7, r8}^
    1b98:	c4050000 	strgt	r0, [r5], #-0
    1b9c:	00350a01 	eorseq	r0, r5, r1, lsl #20
    1ba0:	01c50500 	biceq	r0, r5, r0, lsl #10
    1ba4:	00005eca 	andeq	r5, r0, sl, asr #29
    1ba8:	ec01c605 	stc	6, cr12, [r1], {5}
    1bac:	05000052 	streq	r0, [r0, #-82]	; 0xffffffae
    1bb0:	691601c7 	ldmdbvs	r6, {r0, r1, r2, r6, r7, r8}
    1bb4:	c8050000 	stmdagt	r5, {}	; <UNPREDICTABLE>
    1bb8:	0009ec01 	andeq	lr, r9, r1, lsl #24
    1bbc:	01c90500 	biceq	r0, r9, r0, lsl #10
    1bc0:	000025c0 	andeq	r2, r0, r0, asr #11
    1bc4:	bd01cc05 	stclt	12, cr12, [r1, #-20]	; 0xffffffec
    1bc8:	05000005 	streq	r0, [r0, #-5]
    1bcc:	69b101cd 	ldmibvs	r1!, {r0, r2, r3, r6, r7, r8}
    1bd0:	ce050000 	cdpgt	0, 0, cr0, cr5, cr0, {0}
    1bd4:	00565201 	subseq	r5, r6, r1, lsl #4
    1bd8:	01cf0500 	biceq	r0, pc, r0, lsl #10
    1bdc:	00000f1c 	andeq	r0, r0, ip, lsl pc
    1be0:	4401d005 	strmi	sp, [r1], #-5
    1be4:	05000025 	streq	r0, [r0, #-37]	; 0xffffffdb
    1be8:	24bd01d1 	ldrtcs	r0, [sp], #465	; 0x1d1
    1bec:	d2050000 	andle	r0, r5, #0
    1bf0:	00378501 	eorseq	r8, r7, r1, lsl #10
    1bf4:	00040000 	andeq	r0, r4, r0
    1bf8:	34270500 	strtcc	r0, [r7], #-1280	; 0xfffffb00
    1bfc:	05000045 	streq	r0, [r0, #-69]	; 0xffffffbb
    1c00:	00666028 	rsbeq	r6, r6, r8, lsr #32
    1c04:	1e290500 	cfsh64ne	mvdx0, mvdx9, #0
    1c08:	0500004a 	streq	r0, [r0, #-74]	; 0xffffffb6
    1c0c:	0027cf2a 	eoreq	ip, r7, sl, lsr #30
    1c10:	812b0500 			; <UNDEFINED> instruction: 0x812b0500
    1c14:	0500000b 	streq	r0, [r0, #-11]
    1c18:	0067462c 	rsbeq	r4, r7, ip, lsr #12
    1c1c:	c52d0500 	strgt	r0, [sp, #-1280]!	; 0xfffffb00
    1c20:	05000068 	streq	r0, [r0, #-104]	; 0xffffff98
    1c24:	0070e32e 	rsbseq	lr, r0, lr, lsr #6
    1c28:	632f0500 			; <UNDEFINED> instruction: 0x632f0500
    1c2c:	05000011 	streq	r0, [r0, #-17]	; 0xffffffef
    1c30:	000a4530 	andeq	r4, sl, r0, lsr r5
    1c34:	5a310500 	bpl	c4303c <_Min_Stack_Size+0xc42c3c>
    1c38:	0500004e 	streq	r0, [r0, #-78]	; 0xffffffb2
    1c3c:	0065b832 	rsbeq	fp, r5, r2, lsr r8
    1c40:	32330500 	eorscc	r0, r3, #0, 10
    1c44:	0500001e 	streq	r0, [r0, #-30]	; 0xffffffe2
    1c48:	0048fc34 	subeq	pc, r8, r4, lsr ip	; <UNPREDICTABLE>
    1c4c:	62350500 	eorsvs	r0, r5, #0, 10
    1c50:	0500005c 	streq	r0, [r0, #-92]	; 0xffffffa4
    1c54:	007bb436 	rsbseq	fp, fp, r6, lsr r4
    1c58:	e0370500 	eors	r0, r7, r0, lsl #10
    1c5c:	0500008c 	streq	r0, [r0, #-140]	; 0xffffff74
    1c60:	002b2838 	eoreq	r2, fp, r8, lsr r8
    1c64:	07470500 	strbeq	r0, [r7, -r0, lsl #10]
    1c68:	0500003d 	streq	r0, [r0, #-61]	; 0xffffffc3
    1c6c:	00709f48 	rsbseq	r9, r0, r8, asr #30
    1c70:	eb490500 	bl	1243078 <_Min_Stack_Size+0x1242c78>
    1c74:	0500003f 	streq	r0, [r0, #-63]	; 0xffffffc1
    1c78:	0010c44a 	andseq	ip, r0, sl, asr #8
    1c7c:	5c4b0500 	cfstr64pl	mvdx0, [fp], {-0}
    1c80:	05000006 	streq	r0, [r0, #-6]
    1c84:	00887c4c 	addeq	r7, r8, ip, asr #24
    1c88:	e34d0500 	movt	r0, #54528	; 0xd500
    1c8c:	0500007e 	streq	r0, [r0, #-126]	; 0xffffff82
    1c90:	0063054e 	rsbeq	r0, r3, lr, asr #10
    1c94:	ee4f0500 	cdp	5, 4, cr0, cr15, cr0, {0}
    1c98:	05000081 	streq	r0, [r0, #-129]	; 0xffffff7f
    1c9c:	00517759 	subseq	r7, r1, r9, asr r7
    1ca0:	3b5a0500 	blcc	16830a8 <_Min_Stack_Size+0x1682ca8>
    1ca4:	05000060 	streq	r0, [r0, #-96]	; 0xffffffa0
    1ca8:	0051f25b 	subseq	pc, r1, fp, asr r2	; <UNPREDICTABLE>
    1cac:	085f0500 	ldmdaeq	pc, {r8, sl}^	; <UNPREDICTABLE>
    1cb0:	05000024 	streq	r0, [r0, #-36]	; 0xffffffdc
    1cb4:	00346660 	eorseq	r6, r4, r0, ror #12
    1cb8:	a6640500 	strbtge	r0, [r4], -r0, lsl #10
    1cbc:	0500004f 	streq	r0, [r0, #-79]	; 0xffffffb1
    1cc0:	000ff865 	andeq	pc, pc, r5, ror #16
    1cc4:	00040000 	andeq	r0, r4, r0
    1cc8:	4b1b0500 	blmi	6c30d0 <_Min_Stack_Size+0x6c2cd0>
    1ccc:	0500006e 	streq	r0, [r0, #-110]	; 0xffffff92
    1cd0:	005e2c1f 	subseq	r2, lr, pc, lsl ip
    1cd4:	15210500 	strne	r0, [r1, #-1280]!	; 0xfffffb00
    1cd8:	0500002a 	streq	r0, [r0, #-42]	; 0xffffffd6
    1cdc:	0041b722 	subeq	fp, r1, r2, lsr #14
    1ce0:	00040000 	andeq	r0, r4, r0
    1ce4:	37220600 	strcc	r0, [r2, -r0, lsl #12]!
    1ce8:	05000086 	streq	r0, [r0, #-134]	; 0xffffff7a
    1cec:	00363127 	eorseq	r3, r6, r7, lsr #2
    1cf0:	00040000 	andeq	r0, r4, r0
    1cf4:	c7280500 	strgt	r0, [r8, -r0, lsl #10]!
    1cf8:	0500000c 	streq	r0, [r0, #-12]
    1cfc:	0030622c 	eorseq	r6, r0, ip, lsr #4
    1d00:	00040000 	andeq	r0, r4, r0
    1d04:	af1f0500 	svcge	0x001f0500
    1d08:	05000046 	streq	r0, [r0, #-70]	; 0xffffffba
    1d0c:	00850520 	addeq	r0, r5, r0, lsr #10
    1d10:	dd210500 	cfstr32le	mvfx0, [r1, #-0]
    1d14:	05000001 	streq	r0, [r0, #-1]
    1d18:	002e1526 	eoreq	r1, lr, r6, lsr #10
    1d1c:	00040000 	andeq	r0, r4, r0
    1d20:	9c090500 	cfstr32ls	mvfx0, [r9], {-0}
    1d24:	0500007d 	streq	r0, [r0, #-125]	; 0xffffff83
    1d28:	0004280a 	andeq	r2, r4, sl, lsl #16
    1d2c:	e1110500 	tst	r1, r0, lsl #10
    1d30:	0500005f 	streq	r0, [r0, #-95]	; 0xffffffa1
    1d34:	00199612 	andseq	r9, r9, r2, lsl r6
    1d38:	e4130500 	ldr	r0, [r3], #-1280	; 0xfffffb00
    1d3c:	05000087 	streq	r0, [r0, #-135]	; 0xffffff79
    1d40:	00281014 	eoreq	r1, r8, r4, lsl r0
    1d44:	c3180500 	tstgt	r8, #0, 10
    1d48:	05000046 	streq	r0, [r0, #-70]	; 0xffffffba
    1d4c:	002fb819 	eoreq	fp, pc, r9, lsl r8	; <UNPREDICTABLE>
    1d50:	b41a0500 	ldrlt	r0, [sl], #-1280	; 0xfffffb00
    1d54:	05000074 	streq	r0, [r0, #-116]	; 0xffffff8c
    1d58:	00222339 	eoreq	r2, r2, r9, lsr r3
    1d5c:	373a0500 	ldrcc	r0, [sl, -r0, lsl #10]!
    1d60:	0500006b 	streq	r0, [r0, #-107]	; 0xffffff95
    1d64:	0011393b 	andseq	r3, r1, fp, lsr r9
    1d68:	593c0500 	ldmdbpl	ip!, {r8, sl}
    1d6c:	0000005f 	andeq	r0, r0, pc, asr r0
    1d70:	05000004 	streq	r0, [r0, #-4]
    1d74:	0032a620 	eorseq	sl, r2, r0, lsr #12
    1d78:	b5260500 	strlt	r0, [r6, #-1280]!	; 0xfffffb00
    1d7c:	05000071 	streq	r0, [r0, #-113]	; 0xffffff8f
    1d80:	0061082b 	rsbeq	r0, r1, fp, lsr #16
    1d84:	2a2c0500 	bcs	b0318c <_Min_Stack_Size+0xb02d8c>
    1d88:	05000052 	streq	r0, [r0, #-82]	; 0xffffffae
    1d8c:	0074d831 	rsbseq	sp, r4, r1, lsr r8
    1d90:	00040000 	andeq	r0, r4, r0
    1d94:	c0290500 	eorgt	r0, r9, r0, lsl #10
    1d98:	05000026 	streq	r0, [r0, #-38]	; 0xffffffda
    1d9c:	00790a2e 	rsbseq	r0, r9, lr, lsr #20
    1da0:	00040000 	andeq	r0, r4, r0
    1da4:	03130500 	tsteq	r3, #0, 10
    1da8:	0500000c 	streq	r0, [r0, #-12]
    1dac:	002b5e17 	eoreq	r5, fp, r7, lsl lr
    1db0:	e01f0500 	ands	r0, pc, r0, lsl #10
    1db4:	05000076 	streq	r0, [r0, #-118]	; 0xffffff8a
    1db8:	0023c027 	eoreq	ip, r3, r7, lsr #32
    1dbc:	e0290500 	eor	r0, r9, r0, lsl #10
    1dc0:	05000029 	streq	r0, [r0, #-41]	; 0xffffffd7
    1dc4:	003e172d 	eorseq	r1, lr, sp, lsr #14
    1dc8:	56340500 	ldrtpl	r0, [r4], -r0, lsl #10
    1dcc:	05000083 	streq	r0, [r0, #-131]	; 0xffffff7d
    1dd0:	00265037 	eoreq	r5, r6, r7, lsr r0
    1dd4:	72380500 	eorsvc	r0, r8, #0, 10
    1dd8:	05000063 	streq	r0, [r0, #-99]	; 0xffffff9d
    1ddc:	0064cb3a 	rsbeq	ip, r4, sl, lsr fp
    1de0:	bf3c0500 	svclt	0x003c0500
    1de4:	05000013 	streq	r0, [r0, #-19]	; 0xffffffed
    1de8:	0033123d 	eorseq	r1, r3, sp, lsr r2
    1dec:	753e0500 	ldrvc	r0, [lr, #-1280]!	; 0xfffffb00
    1df0:	00000033 	andeq	r0, r0, r3, lsr r0
    1df4:	05000004 	streq	r0, [r0, #-4]
    1df8:	0078f833 	rsbseq	pc, r8, r3, lsr r8	; <UNPREDICTABLE>
    1dfc:	21340500 	teqcs	r4, r0, lsl #10
    1e00:	0500006d 	streq	r0, [r0, #-109]	; 0xffffff93
    1e04:	007c1538 	rsbseq	r1, ip, r8, lsr r5
    1e08:	f43d0500 			; <UNDEFINED> instruction: 0xf43d0500
    1e0c:	05000021 	streq	r0, [r0, #-33]	; 0xffffffdf
    1e10:	0020c048 	eoreq	ip, r0, r8, asr #32
    1e14:	914c0500 	cmpls	ip, r0, lsl #10
    1e18:	05000031 	streq	r0, [r0, #-49]	; 0xffffffcf
    1e1c:	0062b750 	rsbeq	fp, r2, r0, asr r7
    1e20:	95540500 	ldrbls	r0, [r4, #-1280]	; 0xfffffb00
    1e24:	0500008c 	streq	r0, [r0, #-140]	; 0xffffff74
    1e28:	0087d156 	addeq	sp, r7, r6, asr r1
    1e2c:	44620500 	strbtmi	r0, [r2], #-1280	; 0xfffffb00
    1e30:	05000069 	streq	r0, [r0, #-105]	; 0xffffff97
    1e34:	0037c667 	eorseq	ip, r7, r7, ror #12
    1e38:	f76c0500 			; <UNDEFINED> instruction: 0xf76c0500
    1e3c:	05000069 	streq	r0, [r0, #-105]	; 0xffffff97
    1e40:	0003156d 	andeq	r1, r3, sp, ror #10
    1e44:	b5780500 	ldrblt	r0, [r8, #-1280]!	; 0xfffffb00
    1e48:	0500000d 	streq	r0, [r0, #-13]
    1e4c:	00342e7c 	eorseq	r2, r4, ip, ror lr
    1e50:	01820500 	orreq	r0, r2, r0, lsl #10
    1e54:	0000388c 	andeq	r3, r0, ip, lsl #17
    1e58:	58018705 	stmdapl	r1, {r0, r2, r8, r9, sl, pc}
    1e5c:	05000068 	streq	r0, [r0, #-104]	; 0xffffff98
    1e60:	1e01018c 	adfned	f0, f1, #4.0
    1e64:	9e050000 	cdpls	0, 0, cr0, cr5, cr0, {0}
    1e68:	000d2801 	andeq	r2, sp, r1, lsl #16
    1e6c:	01a20500 			; <UNDEFINED> instruction: 0x01a20500
    1e70:	00002315 	andeq	r2, r0, r5, lsl r3
    1e74:	a201a605 	andge	sl, r1, #5242880	; 0x500000
    1e78:	05000029 	streq	r0, [r0, #-41]	; 0xffffffd7
    1e7c:	1e5101aa 	rdfnedp	f0, f1, #2.0
    1e80:	af050000 	svcge	0x00050000
    1e84:	00895001 	addeq	r5, r9, r1
    1e88:	01b40500 			; <UNDEFINED> instruction: 0x01b40500
    1e8c:	00001128 	andeq	r1, r0, r8, lsr #2
    1e90:	3f01b905 	svccc	0x0001b905
    1e94:	0500003e 	streq	r0, [r0, #-62]	; 0xffffffc2
    1e98:	0ef601be 	mrceq	1, 7, r0, cr6, cr14, {5}
    1e9c:	c3050000 	movwgt	r0, #20480	; 0x5000
    1ea0:	000d3901 	andeq	r3, sp, r1, lsl #18
    1ea4:	01c80500 	biceq	r0, r8, r0, lsl #10
    1ea8:	00008bd4 	ldrdeq	r8, [r0], -r4
    1eac:	9b01c905 	blls	742c8 <_Min_Stack_Size+0x73ec8>
    1eb0:	05000083 	streq	r0, [r0, #-131]	; 0xffffff7d
    1eb4:	5e5001ce 	rdfpldm	f0, f0, #0.5
    1eb8:	cf050000 	svcgt	0x00050000
    1ebc:	000c7a01 	andeq	r7, ip, r1, lsl #20
    1ec0:	01d40500 	bicseq	r0, r4, r0, lsl #10
    1ec4:	00005bd8 	ldrdeq	r5, [r0], -r8
    1ec8:	00000400 	andeq	r0, r0, r0, lsl #8
    1ecc:	55131605 	ldrpl	r1, [r3, #-1541]	; 0xfffff9fb
    1ed0:	23050000 	movwcs	r0, #20480	; 0x5000
    1ed4:	00006c29 	andeq	r6, r0, r9, lsr #24
    1ed8:	458d2605 	strmi	r2, [sp, #1541]	; 0x605
    1edc:	27050000 	strcs	r0, [r5, -r0]
    1ee0:	0000881a 	andeq	r8, r0, sl, lsl r8
    1ee4:	00000400 	andeq	r0, r0, r0, lsl #8
    1ee8:	26292405 	strtcs	r2, [r9], -r5, lsl #8
    1eec:	25050000 	strcs	r0, [r5, #-0]
    1ef0:	0000193e 	andeq	r1, r0, lr, lsr r9
    1ef4:	04b42805 	ldrteq	r2, [r4], #2053	; 0x805
    1ef8:	2b050000 	blcs	141f00 <_Min_Stack_Size+0x141b00>
    1efc:	00001e99 	muleq	r0, r9, lr
    1f00:	1a382e05 	bne	e0d71c <_Min_Stack_Size+0xe0d31c>
    1f04:	2f050000 	svccs	0x00050000
    1f08:	00006a89 	andeq	r6, r0, r9, lsl #21
    1f0c:	1a01ac05 	bne	6cf28 <_Min_Stack_Size+0x6cb28>
    1f10:	0500007a 	streq	r0, [r0, #-122]	; 0xffffff86
    1f14:	0ae101b2 	beq	ff8425e4 <_estack+0xdf83d5e4>
    1f18:	c5050000 	strgt	r0, [r5, #-0]
    1f1c:	00009401 	andeq	r9, r0, r1, lsl #8
    1f20:	00040000 	andeq	r0, r4, r0
    1f24:	02020500 	andeq	r0, r2, #0, 10
    1f28:	05000073 	streq	r0, [r0, #-115]	; 0xffffff8d
    1f2c:	001f880d 	andseq	r8, pc, sp, lsl #16
    1f30:	66150500 	ldrvs	r0, [r5], -r0, lsl #10
    1f34:	00000024 	andeq	r0, r0, r4, lsr #32
    1f38:	05000004 	streq	r0, [r0, #-4]
    1f3c:	0038e851 	eorseq	lr, r8, r1, asr r8
    1f40:	37520500 	ldrbcc	r0, [r2, -r0, lsl #10]
    1f44:	05000006 	streq	r0, [r0, #-6]
    1f48:	00124953 	andseq	r4, r2, r3, asr r9
    1f4c:	29540500 	ldmdbcs	r4, {r8, sl}^
    1f50:	05000010 	streq	r0, [r0, #-16]
    1f54:	0030ae56 	eorseq	sl, r0, r6, asr lr
    1f58:	22570500 	subscs	r0, r7, #0, 10
    1f5c:	05000055 	streq	r0, [r0, #-85]	; 0xffffffab
    1f60:	00366558 	eorseq	r6, r6, r8, asr r5
    1f64:	cd590500 	cfldr64gt	mvdx0, [r9, #-0]
    1f68:	0500001e 	streq	r0, [r0, #-30]	; 0xffffffe2
    1f6c:	005cc05a 	subseq	ip, ip, sl, asr r0
    1f70:	065b0500 	ldrbeq	r0, [fp], -r0, lsl #10
    1f74:	05000011 	streq	r0, [r0, #-17]	; 0xffffffef
    1f78:	0086615c 	addeq	r6, r6, ip, asr r1
    1f7c:	075d0500 	ldrbeq	r0, [sp, -r0, lsl #10]
    1f80:	05000032 	streq	r0, [r0, #-50]	; 0xffffffce
    1f84:	0029685e 	eoreq	r6, r9, lr, asr r8
    1f88:	235f0500 	cmpcs	pc, #0, 10
    1f8c:	0500006e 	streq	r0, [r0, #-110]	; 0xffffff92
    1f90:	00305463 	eorseq	r5, r0, r3, ror #8
    1f94:	93660500 	cmnls	r6, #0, 10
    1f98:	0500003a 	streq	r0, [r0, #-58]	; 0xffffffc6
    1f9c:	001ef767 	andseq	pc, lr, r7, ror #14
    1fa0:	d2720500 	rsbsle	r0, r2, #0, 10
    1fa4:	05000047 	streq	r0, [r0, #-71]	; 0xffffffb9
    1fa8:	007c2a73 	rsbseq	r2, ip, r3, ror sl
    1fac:	31740500 	cmncc	r4, r0, lsl #10
    1fb0:	05000061 	streq	r0, [r0, #-97]	; 0xffffff9f
    1fb4:	00542276 	subseq	r2, r4, r6, ror r2
    1fb8:	387b0500 	ldmdacc	fp!, {r8, sl}^
    1fbc:	0500007c 	streq	r0, [r0, #-124]	; 0xffffff84
    1fc0:	03a70181 			; <UNDEFINED> instruction: 0x03a70181
    1fc4:	87050000 	strhi	r0, [r5, -r0]
    1fc8:	003d2401 	eorseq	r2, sp, r1, lsl #8
    1fcc:	018d0500 	orreq	r0, sp, r0, lsl #10
    1fd0:	00001256 	andeq	r1, r0, r6, asr r2
    1fd4:	1b019105 	blne	663f0 <_Min_Stack_Size+0x65ff0>
    1fd8:	0500004e 	streq	r0, [r0, #-78]	; 0xffffffb2
    1fdc:	04460195 	strbeq	r0, [r6], #-405	; 0xfffffe6b
    1fe0:	98050000 	stmdals	r5, {}	; <UNPREDICTABLE>
    1fe4:	001c1001 	andseq	r1, ip, r1
    1fe8:	019b0500 	orrseq	r0, fp, r0, lsl #10
    1fec:	000069de 	ldrdeq	r6, [r0], -lr
    1ff0:	be019e05 	cdplt	14, 0, cr9, cr1, cr5, {0}
    1ff4:	05000056 	streq	r0, [r0, #-86]	; 0xffffffaa
    1ff8:	1b9801a0 	blne	fe602680 <_estack+0xde5fd680>
    1ffc:	a1050000 	mrsge	r0, (UNDEF: 5)
    2000:	0071cc01 	rsbseq	ip, r1, r1, lsl #24
    2004:	01a20500 			; <UNDEFINED> instruction: 0x01a20500
    2008:	00003a29 	andeq	r3, r0, r9, lsr #20
    200c:	0e01a405 	cdpeq	4, 0, cr10, cr1, cr5, {0}
    2010:	05000051 	streq	r0, [r0, #-81]	; 0xffffffaf
    2014:	6fd601a5 	svcvs	0x00d601a5
    2018:	a6050000 	strge	r0, [r5], -r0
    201c:	0011c001 	andseq	ip, r1, r1
    2020:	01ae0500 			; <UNDEFINED> instruction: 0x01ae0500
    2024:	00001ad2 	ldrdeq	r1, [r0], -r2
    2028:	5404e905 	strpl	lr, [r4], #-2309	; 0xfffff6fb
    202c:	05000001 	streq	r0, [r0, #-1]
    2030:	86c504eb 	strbhi	r0, [r5], fp, ror #9
    2034:	8e050000 	cdphi	0, 0, cr0, cr5, cr0, {0}
    2038:	00228a05 	eoreq	r8, r2, r5, lsl #20
    203c:	05ab0500 	streq	r0, [fp, #1280]!	; 0x500
    2040:	00000571 	andeq	r0, r0, r1, ror r5
    2044:	d605cf05 	strle	ip, [r5], -r5, lsl #30
    2048:	05000053 	streq	r0, [r0, #-83]	; 0xffffffad
    204c:	22e305d0 	rsccs	r0, r3, #208, 10	; 0x34000000
    2050:	d1050000 	mrsle	r0, (UNDEF: 5)
    2054:	00022f05 	andeq	r2, r2, r5, lsl #30
    2058:	05d20500 	ldrbeq	r0, [r2, #1280]	; 0x500
    205c:	00008310 	andeq	r8, r0, r0, lsl r3
    2060:	1105ff05 	tstne	r5, r5, lsl #30	; <UNPREDICTABLE>
    2064:	0500001a 	streq	r0, [r0, #-26]	; 0xffffffe6
    2068:	52c10680 	sbcpl	r0, r1, #128, 12	; 0x8000000
    206c:	86050000 	strhi	r0, [r5], -r0
    2070:	0039c106 	eorseq	ip, r9, r6, lsl #2
    2074:	068e0500 	streq	r0, [lr], r0, lsl #10
    2078:	000031fa 	strdeq	r3, [r0], -sl
    207c:	00000400 	andeq	r0, r0, r0, lsl #8
    2080:	84f81205 	ldrbthi	r1, [r8], #517	; 0x205
    2084:	13050000 	movwne	r0, #20480	; 0x5000
    2088:	000030bb 	strheq	r3, [r0], -fp
    208c:	0b361405 	bleq	d870a8 <_Min_Stack_Size+0xd86ca8>
    2090:	15050000 	strne	r0, [r5, #-0]
    2094:	000071a7 	andeq	r7, r0, r7, lsr #3
    2098:	4f5a1605 	svcmi	0x005a1605
    209c:	1e050000 	cdpne	0, 0, cr0, cr5, cr0, {0}
    20a0:	00000e03 	andeq	r0, r0, r3, lsl #28
    20a4:	2b711f05 	blcs	1c49cc0 <_Min_Stack_Size+0x1c498c0>
    20a8:	20050000 	andcs	r0, r5, r0
    20ac:	000082d4 	ldrdeq	r8, [r0], -r4
    20b0:	69a12105 	stmibvs	r1!, {r0, r2, r8, sp}
    20b4:	22050000 	andcs	r0, r5, #0
    20b8:	00006707 	andeq	r6, r0, r7, lsl #14
    20bc:	6b812305 	blvs	fe04acd8 <_estack+0xde045cd8>
    20c0:	24050000 	strcs	r0, [r5], #-0
    20c4:	00006a68 	andeq	r6, r0, r8, ror #20
    20c8:	3cfa2505 	cfldr64cc	mvdx2, [sl], #20
    20cc:	26050000 	strcs	r0, [r5], -r0
    20d0:	00007035 	andeq	r7, r0, r5, lsr r0
    20d4:	62402705 	subvs	r2, r0, #1310720	; 0x140000
    20d8:	28050000 	stmdacs	r5, {}	; <UNPREDICTABLE>
    20dc:	00004eac 	andeq	r4, r0, ip, lsr #29
    20e0:	26412b05 	strbcs	r2, [r1], -r5, lsl #22
    20e4:	2c050000 	stccs	0, cr0, [r5], {-0}
    20e8:	00003d8a 	andeq	r3, r0, sl, lsl #27
    20ec:	0fbb2d05 	svceq	0x00bb2d05
    20f0:	2e050000 	cdpcs	0, 0, cr0, cr5, cr0, {0}
    20f4:	00004681 	andeq	r4, r0, r1, lsl #13
    20f8:	49fb2f05 	ldmibmi	fp!, {r0, r2, r8, r9, sl, fp, sp}^
    20fc:	30050000 	andcc	r0, r5, r0
    2100:	0000405d 	andeq	r4, r0, sp, asr r0
    2104:	0de33105 	stfeqe	f3, [r3, #20]!
    2108:	32050000 	andcc	r0, r5, #0
    210c:	00003033 	andeq	r3, r0, r3, lsr r0
    2110:	36153305 	ldrcc	r3, [r5], -r5, lsl #6
    2114:	34050000 	strcc	r0, [r5], #-0
    2118:	000082e1 	andeq	r8, r0, r1, ror #5
    211c:	84bf3505 	ldrthi	r3, [pc], #1285	; 2124 <_Min_Stack_Size+0x1d24>
    2120:	36050000 	strcc	r0, [r5], -r0
    2124:	000012fb 	strdeq	r1, [r0], -fp
    2128:	1c4b3705 	mcrrne	7, 0, r3, fp, cr5
    212c:	38050000 	stmdacc	r5, {}	; <UNPREDICTABLE>
    2130:	00005814 	andeq	r5, r0, r4, lsl r8
    2134:	16173905 	ldrne	r3, [r7], -r5, lsl #18
    2138:	3a050000 	bcc	142140 <_Min_Stack_Size+0x141d40>
    213c:	00001b7e 	andeq	r1, r0, lr, ror fp
    2140:	6e313b05 	vaddvs.f64	d3, d1, d5
    2144:	3c050000 	stccc	0, cr0, [r5], {-0}
    2148:	000088c2 	andeq	r8, r0, r2, asr #17
    214c:	724c3d05 	subvc	r3, ip, #320	; 0x140
    2150:	04000000 	streq	r0, [r0], #-0
    2154:	08e80200 	stmiaeq	r8!, {r9}^
    2158:	4f070000 	svcmi	0x00070000
    215c:	03000002 	movweq	r0, #2
    2160:	13030100 	movwne	r0, #12544	; 0x3100
    2164:	ca0a0504 	bgt	28357c <_Min_Stack_Size+0x28317c>
    2168:	03000030 	movweq	r0, #48	; 0x30
    216c:	08050712 	stmdaeq	r5, {r1, r4, r8, r9, sl}
    2170:	000070bf 	strheq	r7, [r0], -pc	; <UNPREDICTABLE>
    2174:	07080a03 	streq	r0, [r8, -r3, lsl #20]
    2178:	00000cd1 	ldrdeq	r0, [r0], -r1
    217c:	090b0304 	stmdbeq	fp, {r2, r8, r9}
    2180:	54060805 	strpl	r0, [r6], #-2053	; 0xfffff7fb
    2184:	0a030000 	beq	c218c <_Min_Stack_Size+0xc1d8c>
    2188:	d408050a 	strle	r0, [r8], #-1290	; 0xfffffaf6
    218c:	03000012 	movweq	r0, #18
    2190:	e9070b0e 	stmdb	r7, {r1, r2, r3, r8, r9, fp}
    2194:	0400000c 	streq	r0, [r0], #-12
    2198:	000d0b07 	andeq	r0, sp, r7, lsl #22
    219c:	0b030400 	bleq	c31a4 <_Min_Stack_Size+0xc2da4>
    21a0:	4102050c 	tstmi	r2, ip, lsl #10
    21a4:	0300007b 	movweq	r0, #123	; 0x7b
    21a8:	03040804 	movweq	r0, #18436	; 0x4804
    21ac:	57070d05 	strpl	r0, [r7, -r5, lsl #26]
    21b0:	0400000d 	streq	r0, [r0], #-13
    21b4:	000deb07 	andeq	lr, sp, r7, lsl #22
    21b8:	27070400 	strcs	r0, [r7, -r0, lsl #8]
    21bc:	0400000e 	streq	r0, [r0], #-14
    21c0:	000e5b07 	andeq	r5, lr, r7, lsl #22
    21c4:	0e100300 	cdpeq	3, 1, cr0, cr0, cr0, {0}
    21c8:	000e7107 	andeq	r7, lr, r7, lsl #2
    21cc:	12030400 	andne	r0, r3, #0, 8
    21d0:	c30b050f 	movwgt	r0, #46351	; 0xb50f
    21d4:	03000057 	movweq	r0, #87	; 0x57
    21d8:	0304090d 	movweq	r0, #18701	; 0x490d
    21dc:	7f070e0e 	svcvc	0x00070e0e
    21e0:	0400000f 	streq	r0, [r0], #-15
    21e4:	07100f03 	ldreq	r0, [r0, -r3, lsl #30]
    21e8:	0000100c 	andeq	r1, r0, ip
    21ec:	070e1803 	streq	r1, [lr, -r3, lsl #16]
    21f0:	00001022 	andeq	r1, r0, r2, lsr #32
    21f4:	111b0304 	tstne	fp, r4, lsl #6
    21f8:	5baf0605 	blpl	febc3a14 <_estack+0xdebbea14>
    21fc:	07030000 	streq	r0, [r3, -r0]
    2200:	10650702 	rsbne	r0, r5, r2, lsl #14
    2204:	04040000 	streq	r0, [r4], #-0
    2208:	0010bc07 	andseq	fp, r0, r7, lsl #24
    220c:	f0070400 			; <UNDEFINED> instruction: 0xf0070400
    2210:	03000010 	movweq	r0, #16
    2214:	00071222 	andeq	r1, r7, r2, lsr #4
    2218:	04000011 	streq	r0, [r0], #-17	; 0xffffffef
    221c:	00115807 	andseq	r5, r1, r7, lsl #16
    2220:	03f70300 	mvnseq	r0, #0, 6
    2224:	11c90713 	bicne	r0, r9, r3, lsl r7
    2228:	07040000 	streq	r0, [r4, -r0]
    222c:	000011e5 	andeq	r1, r0, r5, ror #3
    2230:	14130304 	ldrne	r0, [r3], #-772	; 0xfffffcfc
    2234:	7f562b05 	svcvc	0x00562b05
    2238:	2f030000 	svccs	0x00030000
    223c:	0f07040e 	svceq	0x0007040e
    2240:	04000013 	streq	r0, [r0], #-19	; 0xffffffed
    2244:	05151403 	ldreq	r1, [r5, #-1027]	; 0xfffffbfd
    2248:	0027bf02 	eoreq	fp, r7, r2, lsl #30
    224c:	16030400 	strne	r0, [r3], -r0, lsl #8
    2250:	16500716 			; <UNDEFINED> instruction: 0x16500716
    2254:	07040000 	streq	r0, [r4, -r0]
    2258:	00001666 	andeq	r1, r0, r6, ror #12
    225c:	17130304 	ldrne	r0, [r3, -r4, lsl #6]
    2260:	00168f07 	andseq	r8, r6, r7, lsl #30
    2264:	0e110300 	cdpeq	3, 1, cr0, cr1, cr0, {0}
    2268:	0016a507 	andseq	sl, r6, r7, lsl #10
    226c:	14030400 	strne	r0, [r3], #-1024	; 0xfffffc00
    2270:	ad040518 	cfstr32ge	mvfx0, [r4, #-96]	; 0xffffffa0
    2274:	04000019 	streq	r0, [r0], #-25	; 0xffffffe7
    2278:	05191803 	ldreq	r1, [r9, #-2051]	; 0xfffff7fd
    227c:	001df41e 	andseq	pc, sp, lr, lsl r4	; <UNPREDICTABLE>
    2280:	da070400 	ble	1c3288 <_Min_Stack_Size+0x1c2e88>
    2284:	03000016 	movweq	r0, #22
    2288:	041a01bd 	ldreq	r0, [sl], #-445	; 0xfffffe43
    228c:	1b140304 	blne	502ea4 <_Min_Stack_Size+0x502aa4>
    2290:	051c0903 	ldreq	r0, [ip, #-2307]	; 0xfffff6fd
    2294:	0007d60a 	andeq	sp, r7, sl, lsl #12
    2298:	1d0d0300 	stcne	3, cr0, [sp, #-0]
    229c:	0016fa07 	andseq	pc, r6, r7, lsl #20
    22a0:	0e030400 	cfcpyseq	mvf0, mvf3
    22a4:	17fd0703 	ldrbne	r0, [sp, r3, lsl #14]!
    22a8:	07040000 	streq	r0, [r4, -r0]
    22ac:	00001867 	andeq	r1, r0, r7, ror #16
    22b0:	cd0d0504 	cfstr32gt	mvfx0, [sp, #-16]
    22b4:	04000007 	streq	r0, [r0], #-7
    22b8:	001a4607 	andseq	r4, sl, r7, lsl #12
    22bc:	14030400 	strne	r0, [r3], #-1024	; 0xfffffc00
    22c0:	040a051e 	streq	r0, [sl], #-1310	; 0xfffffae2
    22c4:	03000045 	movweq	r0, #69	; 0x45
    22c8:	07040410 	smladeq	r4, r0, r4, r0
    22cc:	00001bf6 	strdeq	r1, [r0], -r6
    22d0:	05150304 	ldreq	r0, [r5, #-772]	; 0xfffffcfc
    22d4:	a01a0a05 	andsge	r0, sl, r5, lsl #20
    22d8:	11030000 	mrsne	r0, (UNDEF: 3)
    22dc:	b507041e 	strlt	r0, [r7, #-1054]	; 0xfffffbe2
    22e0:	04000023 	streq	r0, [r0], #-35	; 0xffffffdd
    22e4:	07061603 	streq	r1, [r6, -r3, lsl #12]
    22e8:	00000cc1 	andeq	r0, r0, r1, asr #25
    22ec:	071f1003 	ldreq	r1, [pc, -r3]
    22f0:	00001cc6 	andeq	r1, r0, r6, asr #25
    22f4:	070e2403 	streq	r2, [lr, -r3, lsl #8]
    22f8:	000016a5 	andeq	r1, r0, r5, lsr #13
    22fc:	2a270504 	bcs	9c3714 <_Min_Stack_Size+0x9c3314>
    2300:	03000020 	movweq	r0, #32
    2304:	e2072028 	and	r2, r7, #40	; 0x28
    2308:	0400001c 	streq	r0, [r0], #-28	; 0xffffffe4
    230c:	34542f05 	ldrbcc	r2, [r4], #-3845	; 0xfffff0fb
    2310:	3d030000 	stccc	0, cr0, [r3, #-0]
    2314:	1cf20721 	ldclne	7, cr0, [r2], #132	; 0x84
    2318:	31030000 	mrscc	r0, (UNDEF: 3)
    231c:	4b020522 	blmi	837ac <_Min_Stack_Size+0x833ac>
    2320:	03000074 	movweq	r0, #116	; 0x74
    2324:	02072306 	andeq	r2, r7, #402653184	; 0x18000000
    2328:	0400001d 	streq	r0, [r0], #-29	; 0xffffffe3
    232c:	001d1e07 	andseq	r1, sp, r7, lsl #28
    2330:	32030400 	andcc	r0, r3, #0, 8
    2334:	2e020524 	cfsh32cs	mvfx0, mvfx2, #20
    2338:	0300005a 	movweq	r0, #90	; 0x5a
    233c:	2705250e 	strcs	r2, [r5, -lr, lsl #10]
    2340:	00007313 	andeq	r7, r0, r3, lsl r3
    2344:	260f0304 	strcs	r0, [pc], -r4, lsl #6
    2348:	001d7007 	andseq	r7, sp, r7
    234c:	10030400 	andne	r0, r3, r0, lsl #8
    2350:	9c230527 	cfstr32ls	mvfx0, [r3], #-156	; 0xffffff64
    2354:	0300005f 	movweq	r0, #95	; 0x5f
    2358:	25052826 	strcs	r2, [r5, #-2086]	; 0xfffff7da
    235c:	00001a66 	andeq	r1, r0, r6, ror #20
    2360:	1d920704 	ldcne	7, cr0, [r2, #16]
    2364:	07040000 	streq	r0, [r4, -r0]
    2368:	00001da2 	andeq	r1, r0, r2, lsr #27
    236c:	1df40704 	ldclne	7, cr0, [r4, #16]!
    2370:	df030000 	svcle	0x00030000
    2374:	13052901 	movwne	r2, #22785	; 0x5901
    2378:	0000889c 	muleq	r0, ip, r8
    237c:	072a1703 	streq	r1, [sl, -r3, lsl #14]!
    2380:	00001ec9 	andeq	r1, r0, r9, asr #29
    2384:	1ee50704 	cdpne	7, 14, cr0, cr5, cr4, {0}
    2388:	03040000 	movweq	r0, #16384	; 0x4000
    238c:	042b01e0 	strteq	r0, [fp], #-480	; 0xfffffe20
    2390:	5b01e406 	blpl	7b3b0 <_Min_Stack_Size+0x7afb0>
    2394:	04000087 	streq	r0, [r0], #-135	; 0xffffff79
    2398:	25f14305 	ldrbcs	r4, [r1, #773]!	; 0x305
    239c:	4f030000 	svcmi	0x00030000
    23a0:	1f22072c 	svcne	0x0022072c
    23a4:	07040000 	streq	r0, [r4, -r0]
    23a8:	00001f38 	andeq	r1, r0, r8, lsr pc
    23ac:	207d0704 	rsbscs	r0, sp, r4, lsl #14
    23b0:	04040000 	streq	r0, [r4], #-0
    23b4:	00000400 	andeq	r0, r0, r0, lsl #8
    23b8:	93e22c05 	mvnls	r2, #1280	; 0x500
    23bc:	2d050000 	stccs	0, cr0, [r5, #-0]
    23c0:	00008fe2 	andeq	r8, r0, r2, ror #31
    23c4:	9c382e05 	ldcls	14, cr2, [r8], #-20	; 0xffffffec
    23c8:	2f050000 	svccs	0x00050000
    23cc:	00009ea6 	andeq	r9, r0, r6, lsr #29
    23d0:	98473005 	stmdals	r7, {r0, r2, ip, sp}^
    23d4:	31050000 	mrscc	r0, (UNDEF: 5)
    23d8:	0000942b 	andeq	r9, r0, fp, lsr #8
    23dc:	975a3205 	ldrbls	r3, [sl, -r5, lsl #4]
    23e0:	33050000 	movwcc	r0, #20480	; 0x5000
    23e4:	00009c40 	andeq	r9, r0, r0, asr #24
    23e8:	9efe3405 	cdpls	4, 15, cr3, cr14, cr5, {0}
    23ec:	35050000 	strcc	r0, [r5, #-0]
    23f0:	00008fea 	andeq	r8, r0, sl, ror #31
    23f4:	8ebd3605 	cdphi	6, 11, cr3, cr13, cr5, {0}
    23f8:	37050000 	strcc	r0, [r5, -r0]
    23fc:	000097f7 	strdeq	r9, [r0], -r7
    2400:	9c8e3805 	stcls	8, cr3, [lr], {5}
    2404:	39050000 	stmdbcc	r5, {}	; <UNPREDICTABLE>
    2408:	00009eae 	andeq	r9, r0, lr, lsr #29
    240c:	8f0d3a05 	svchi	0x000d3a05
    2410:	3b050000 	blcc	142418 <_Min_Stack_Size+0x142018>
    2414:	00009917 	andeq	r9, r0, r7, lsl r9
    2418:	97b64005 	ldrls	r4, [r6, r5]!
    241c:	41050000 	mrsmi	r0, (UNDEF: 5)
    2420:	00009e25 	andeq	r9, r0, r5, lsr #28
    2424:	8f414205 	svchi	0x00414205
    2428:	43050000 	movwmi	r0, #20480	; 0x5000
    242c:	000090d5 	ldrdeq	r9, [r0], -r5
    2430:	98d64705 	ldmls	r6, {r0, r2, r8, r9, sl, lr}^
    2434:	48050000 	stmdami	r5, {}	; <UNPREDICTABLE>
    2438:	00009094 	muleq	r0, r4, r0
    243c:	9d594905 	vldrls.16	s9, [r9, #-10]	; <UNPREDICTABLE>
    2440:	4a050000 	bmi	142448 <_Min_Stack_Size+0x142048>
    2444:	00009155 	andeq	r9, r0, r5, asr r1
    2448:	99614e05 	stmdbls	r1!, {r0, r2, r9, sl, fp, lr}^
    244c:	4f050000 	svcmi	0x00050000
    2450:	00009ad9 	ldrdeq	r9, [r0], -r9	; <UNPREDICTABLE>
    2454:	99215005 	stmdbls	r1!, {r0, r2, ip, lr}
    2458:	51050000 	mrspl	r0, (UNDEF: 5)
    245c:	00009c98 	muleq	r0, r8, ip
    2460:	99fb5505 	ldmibls	fp!, {r0, r2, r8, sl, ip, lr}^
    2464:	56050000 	strpl	r0, [r5], -r0
    2468:	000095a4 	andeq	r9, r0, r4, lsr #11
    246c:	96bc5705 	ldrtls	r5, [ip], r5, lsl #14
    2470:	58050000 	stmdapl	r5, {}	; <UNPREDICTABLE>
    2474:	0000967c 	andeq	r9, r0, ip, ror r6
    2478:	8ff75c05 	svchi	0x00f75c05
    247c:	5d050000 	stcpl	0, cr0, [r5, #-0]
    2480:	000091f1 	strdeq	r9, [r0], -r1
    2484:	97765e05 	ldrbls	r5, [r6, -r5, lsl #28]!
    2488:	5f050000 	svcpl	0x00050000
    248c:	00009de5 	andeq	r9, r0, r5, ror #27
    2490:	8e7c6305 	cdphi	3, 7, cr6, cr12, cr5, {0}
    2494:	64050000 	strvs	r0, [r5], #-0
    2498:	00009895 	muleq	r0, r5, r8
    249c:	96fc6505 	ldrbtls	r6, [ip], r5, lsl #10
    24a0:	66050000 	strvs	r0, [r5], -r0
    24a4:	00008df7 	strdeq	r8, [r0], -r7
    24a8:	9b1a6a05 	blls	69ccc4 <_Min_Stack_Size+0x69c8c4>
    24ac:	6b050000 	blvs	1424b4 <_Min_Stack_Size+0x1420b4>
    24b0:	000091b0 			; <UNDEFINED> instruction: 0x000091b0
    24b4:	9f4c6c05 	svcls	0x004c6c05
    24b8:	6d050000 	stcvs	0, cr0, [r5, #-0]
    24bc:	0000962a 	andeq	r9, r0, sl, lsr #12
    24c0:	9d187105 	ldflss	f7, [r8, #-20]	; 0xffffffec
    24c4:	72050000 	andvc	r0, r5, #0
    24c8:	00009382 	andeq	r9, r0, r2, lsl #7
    24cc:	9f957305 	svcls	0x00957305
    24d0:	74050000 	strvc	r0, [r5], #-0
    24d4:	00009e66 	andeq	r9, r0, r6, ror #28
    24d8:	9b6c7805 	blls	1b204f4 <_Min_Stack_Size+0x1b200f4>
    24dc:	79050000 	stmdbvc	r5, {}	; <UNPREDICTABLE>
    24e0:	000093ea 	andeq	r9, r0, sl, ror #7
    24e4:	9cd87a05 	vldmials	r8, {s15-s19}
    24e8:	7b050000 	blvc	1424f0 <_Min_Stack_Size+0x1420f0>
    24ec:	000092fd 	strdeq	r9, [r0], -sp
    24f0:	94797f05 	ldrbtls	r7, [r9], #-3845	; 0xfffff0fb
    24f4:	80050000 	andhi	r0, r5, r0
    24f8:	00943301 	addseq	r3, r4, r1, lsl #6
    24fc:	01810500 	orreq	r0, r1, r0, lsl #10
    2500:	00009115 	andeq	r9, r0, r5, lsl r1
    2504:	78018205 	stmdavc	r1, {r0, r2, r9, pc}
    2508:	05000092 	streq	r0, [r0, #-146]	; 0xffffff6e
    250c:	99b50186 	ldmibls	r5!, {r1, r2, r7, r8}
    2510:	87050000 	strhi	r0, [r5, -r0]
    2514:	00923201 	addseq	r3, r2, r1, lsl #4
    2518:	01880500 	orreq	r0, r8, r0, lsl #10
    251c:	00009038 	andeq	r9, r0, r8, lsr r0
    2520:	9d018905 	vstrls.16	s16, [r1, #-10]	; <UNPREDICTABLE>
    2524:	0500008f 	streq	r0, [r0, #-143]	; 0xffffff71
    2528:	8ec7018d 	polhid	f0, f7, #5.0
    252c:	8e050000 	cdphi	0, 0, cr0, cr5, cr0, {0}
    2530:	00984f01 	addseq	r4, r8, r1, lsl #30
    2534:	018f0500 	orreq	r0, pc, r0, lsl #10
    2538:	0000933d 	andeq	r9, r0, sp, lsr r3
    253c:	f3019005 	vhadd.u8	d9, d1, d5
    2540:	0500009b 	streq	r0, [r0, #-155]	; 0xffffff65
    2544:	98010194 	stmdals	r1, {r2, r4, r7, r8}
    2548:	95050000 	strls	r0, [r5, #-0]
    254c:	009bad01 	addseq	sl, fp, r1, lsl #26
    2550:	01960500 	orrseq	r0, r6, r0, lsl #10
    2554:	000095e5 	andeq	r9, r0, r5, ror #11
    2558:	19019705 	stmdbne	r1, {r0, r2, r8, r9, sl, ip, pc}
    255c:	05000095 	streq	r0, [r0, #-149]	; 0xffffff6b
    2560:	94c0019b 	strbls	r0, [r0], #411	; 0x19b
    2564:	9c050000 	stcls	0, cr0, [r5], {-0}
    2568:	009eb801 	addseq	fp, lr, r1, lsl #16
    256c:	019d0500 	orrseq	r0, sp, r0, lsl #10
    2570:	000092b8 			; <UNDEFINED> instruction: 0x000092b8
    2574:	86019e05 	strhi	r9, [r1], -r5, lsl #28
    2578:	0500008d 	streq	r0, [r0, #-141]	; 0xffffff73
    257c:	9a8201a2 	bls	fe082c0c <_estack+0xde07dc0c>
    2580:	a3050000 	movwge	r0, #20480	; 0x5000
    2584:	009a3c01 	addseq	r3, sl, r1, lsl #24
    2588:	01a40500 			; <UNDEFINED> instruction: 0x01a40500
    258c:	00009da0 	andeq	r9, r0, r0, lsr #27
    2590:	3701a505 	strcc	sl, [r1, -r5, lsl #10]
    2594:	0500008e 	streq	r0, [r0, #-142]	; 0xffffff72
    2598:	9c4801a9 	stflse	f0, [r8], {169}	; 0xa9
    259c:	aa050000 	bge	1425a4 <_Min_Stack_Size+0x1421a4>
    25a0:	009f0601 	addseq	r0, pc, r1, lsl #12
    25a4:	01ab0500 			; <UNDEFINED> instruction: 0x01ab0500
    25a8:	00009fd5 	ldrdeq	r9, [r0], -r5
    25ac:	4101ac05 	tstmi	r1, r5, lsl #24
    25b0:	0500008d 	streq	r0, [r0, #-141]	; 0xffffff73
    25b4:	957601b0 	ldrbls	r0, [r6, #-432]!	; 0xfffffe50
    25b8:	b1050000 	mrslt	r0, (UNDEF: 5)
    25bc:	008f8101 	addeq	r8, pc, r1, lsl #2
    25c0:	01b20500 			; <UNDEFINED> instruction: 0x01b20500
    25c4:	0000973c 	andeq	r9, r0, ip, lsr r7
    25c8:	d801b605 	stmdale	r1, {r0, r2, r9, sl, ip, sp, pc}
    25cc:	0500008d 	streq	r0, [r0, #-141]	; 0xffffff73
    25d0:	99a201b7 	stmibls	r2!, {r0, r1, r2, r4, r5, r7, r8}
    25d4:	04000000 	streq	r0, [r0], #-0
    25d8:	10120200 	andsne	r0, r2, r0, lsl #4
    25dc:	4f070000 	svcmi	0x00070000
    25e0:	03000002 	movweq	r0, #2
    25e4:	08030100 	stmdaeq	r3, {r8}
    25e8:	1a0a0506 	bne	283a08 <_Min_Stack_Size+0x283608>
    25ec:	030000a0 	movweq	r0, #160	; 0xa0
    25f0:	0a050410 	beq	143638 <_Min_Stack_Size+0x143238>
    25f4:	000030ca 	andeq	r3, r0, sl, asr #1
    25f8:	05071203 	streq	r1, [r7, #-515]	; 0xfffffdfd
    25fc:	0070bf08 	rsbseq	fp, r0, r8, lsl #30
    2600:	080a0300 	stmdaeq	sl, {r8, r9}
    2604:	000cd107 	andeq	sp, ip, r7, lsl #2
    2608:	0b030400 	bleq	c3610 <_Min_Stack_Size+0xc3210>
    260c:	06080509 	streq	r0, [r8], -r9, lsl #10
    2610:	03000054 	movweq	r0, #84	; 0x54
    2614:	08050a0a 	stmdaeq	r5, {r1, r3, r9, fp}
    2618:	000012d4 	ldrdeq	r1, [r0], -r4
    261c:	070b0e03 	streq	r0, [fp, -r3, lsl #28]
    2620:	00000ce9 	andeq	r0, r0, r9, ror #25
    2624:	0d0b0704 	stceq	7, cr0, [fp, #-16]
    2628:	03040000 	movweq	r0, #16384	; 0x4000
    262c:	02050c0b 	andeq	r0, r5, #2816	; 0xb00
    2630:	00007b41 	andeq	r7, r0, r1, asr #22
    2634:	04080403 	streq	r0, [r8], #-1027	; 0xfffffbfd
    2638:	070d0503 	streq	r0, [sp, -r3, lsl #10]
    263c:	00000d57 	andeq	r0, r0, r7, asr sp
    2640:	0deb0704 	stcleq	7, cr0, [fp, #16]!
    2644:	07040000 	streq	r0, [r4, -r0]
    2648:	00000e27 	andeq	r0, r0, r7, lsr #28
    264c:	0e5b0704 	cdpeq	7, 5, cr0, cr11, cr4, {0}
    2650:	10030000 	andne	r0, r3, r0
    2654:	0e71070e 	cdpeq	7, 7, cr0, cr1, cr14, {0}
    2658:	03040000 	movweq	r0, #16384	; 0x4000
    265c:	0b050f12 	bleq	1462ac <_Min_Stack_Size+0x145eac>
    2660:	000057c3 	andeq	r5, r0, r3, asr #15
    2664:	04090d03 	streq	r0, [r9], #-3331	; 0xfffff2fd
    2668:	070e0e03 	streq	r0, [lr, -r3, lsl #28]
    266c:	00000f7f 	andeq	r0, r0, pc, ror pc
    2670:	100f0304 	andne	r0, pc, r4, lsl #6
    2674:	00100c07 	andseq	r0, r0, r7, lsl #24
    2678:	0e180300 	cdpeq	3, 1, cr0, cr8, cr0, {0}
    267c:	00102207 	andseq	r2, r0, r7, lsl #4
    2680:	1b030400 	blne	c3688 <_Min_Stack_Size+0xc3288>
    2684:	af060511 	svcge	0x00060511
    2688:	0300005b 	movweq	r0, #91	; 0x5b
    268c:	65070207 	strvs	r0, [r7, #-519]	; 0xfffffdf9
    2690:	04000010 	streq	r0, [r0], #-16
    2694:	10bc0704 	adcsne	r0, ip, r4, lsl #14
    2698:	07040000 	streq	r0, [r4, -r0]
    269c:	000010f0 	strdeq	r1, [r0], -r0
    26a0:	07122203 	ldreq	r2, [r2, -r3, lsl #4]
    26a4:	00001100 	andeq	r1, r0, r0, lsl #2
    26a8:	11580704 	cmpne	r8, r4, lsl #14
    26ac:	f7030000 			; <UNDEFINED> instruction: 0xf7030000
    26b0:	c9071303 	stmdbgt	r7, {r0, r1, r8, r9, ip}
    26b4:	04000011 	streq	r0, [r0], #-17	; 0xffffffef
    26b8:	0011e507 	andseq	lr, r1, r7, lsl #10
    26bc:	13030400 	movwne	r0, #13312	; 0x3400
    26c0:	562b0514 			; <UNDEFINED> instruction: 0x562b0514
    26c4:	0300007f 	movweq	r0, #127	; 0x7f
    26c8:	07040e2f 	streq	r0, [r4, -pc, lsr #28]
    26cc:	0000130f 	andeq	r1, r0, pc, lsl #6
    26d0:	15140304 	ldrne	r0, [r4, #-772]	; 0xfffffcfc
    26d4:	27bf0205 	ldrcs	r0, [pc, r5, lsl #4]!
    26d8:	03040000 	movweq	r0, #16384	; 0x4000
    26dc:	50071616 	andpl	r1, r7, r6, lsl r6
    26e0:	04000016 	streq	r0, [r0], #-22	; 0xffffffea
    26e4:	00166607 	andseq	r6, r6, r7, lsl #12
    26e8:	13030400 	movwne	r0, #13312	; 0x3400
    26ec:	168f0717 	pkhbtne	r0, pc, r7, lsl #14	; <UNPREDICTABLE>
    26f0:	11030000 	mrsne	r0, (UNDEF: 3)
    26f4:	16a5070e 	strtne	r0, [r5], lr, lsl #14
    26f8:	03040000 	movweq	r0, #16384	; 0x4000
    26fc:	04051814 	streq	r1, [r5], #-2068	; 0xfffff7ec
    2700:	000019ad 	andeq	r1, r0, sp, lsr #19
    2704:	19180304 	ldmdbne	r8, {r2, r8, r9}
    2708:	1df41e05 	ldclne	14, cr1, [r4, #20]!
    270c:	07040000 	streq	r0, [r4, -r0]
    2710:	000016da 	ldrdeq	r1, [r0], -sl
    2714:	1a01bd03 	bne	71b28 <_Min_Stack_Size+0x71728>
    2718:	14030404 	strne	r0, [r3], #-1028	; 0xfffffbfc
    271c:	1c09031b 	stcne	3, cr0, [r9], {27}
    2720:	07d60a05 	ldrbeq	r0, [r6, r5, lsl #20]
    2724:	0d030000 	stceq	0, cr0, [r3, #-0]
    2728:	16fa071d 	usatne	r0, #26, sp, lsl #14
    272c:	03040000 	movweq	r0, #16384	; 0x4000
    2730:	fd07030e 	stc2	3, cr0, [r7, #-56]	; 0xffffffc8
    2734:	04000017 	streq	r0, [r0], #-23	; 0xffffffe9
    2738:	00186707 	andseq	r6, r8, r7, lsl #14
    273c:	0d050400 	cfstrseq	mvf0, [r5, #-0]
    2740:	000007cd 	andeq	r0, r0, sp, asr #15
    2744:	1a460704 	bne	118435c <_Min_Stack_Size+0x1183f5c>
    2748:	03040000 	movweq	r0, #16384	; 0x4000
    274c:	66070511 			; <UNDEFINED> instruction: 0x66070511
    2750:	04000027 	streq	r0, [r0], #-39	; 0xffffffd9
    2754:	0023b507 	eoreq	fp, r3, r7, lsl #10
    2758:	09030400 	stmdbeq	r3, {sl}
    275c:	13050404 	movwne	r0, #21508	; 0x5404
    2760:	0000a07a 	andeq	sl, r0, sl, ror r0
    2764:	00040004 	andeq	r0, r4, r4
    2768:	040a0500 	streq	r0, [sl], #-1280	; 0xfffffb00
    276c:	05000045 	streq	r0, [r0, #-69]	; 0xffffffbb
    2770:	00453427 	subeq	r3, r5, r7, lsr #8
    2774:	60280500 	eorvs	r0, r8, r0, lsl #10
    2778:	05000066 	streq	r0, [r0, #-102]	; 0xffffff9a
    277c:	004a1e29 	subeq	r1, sl, r9, lsr #28
    2780:	cf2a0500 	svcgt	0x002a0500
    2784:	05000027 	streq	r0, [r0, #-39]	; 0xffffffd9
    2788:	000b812b 	andeq	r8, fp, fp, lsr #2
    278c:	462c0500 	strtmi	r0, [ip], -r0, lsl #10
    2790:	05000067 	streq	r0, [r0, #-103]	; 0xffffff99
    2794:	0068c52d 	rsbeq	ip, r8, sp, lsr #10
    2798:	e32e0500 			; <UNDEFINED> instruction: 0xe32e0500
    279c:	05000070 	streq	r0, [r0, #-112]	; 0xffffff90
    27a0:	0011632f 	andseq	r6, r1, pc, lsr #6
    27a4:	45300500 	ldrmi	r0, [r0, #-1280]!	; 0xfffffb00
    27a8:	0500000a 	streq	r0, [r0, #-10]
    27ac:	004e5a31 	subeq	r5, lr, r1, lsr sl
    27b0:	b8320500 	ldmdalt	r2!, {r8, sl}
    27b4:	05000065 	streq	r0, [r0, #-101]	; 0xffffff9b
    27b8:	001e3233 	andseq	r3, lr, r3, lsr r2
    27bc:	fc340500 	ldc2	5, cr0, [r4], #-0
    27c0:	05000048 	streq	r0, [r0, #-72]	; 0xffffffb8
    27c4:	005c6235 	subseq	r6, ip, r5, lsr r2
    27c8:	b4360500 	ldrtlt	r0, [r6], #-1280	; 0xfffffb00
    27cc:	0500007b 	streq	r0, [r0, #-123]	; 0xffffff85
    27d0:	008ce037 	addeq	lr, ip, r7, lsr r0
    27d4:	28380500 	ldmdacs	r8!, {r8, sl}
    27d8:	0500002b 	streq	r0, [r0, #-43]	; 0xffffffd5
    27dc:	003d0747 	eorseq	r0, sp, r7, asr #14
    27e0:	9f480500 	svcls	0x00480500
    27e4:	05000070 	streq	r0, [r0, #-112]	; 0xffffff90
    27e8:	003feb49 	eorseq	lr, pc, r9, asr #22
    27ec:	c44a0500 	strbgt	r0, [sl], #-1280	; 0xfffffb00
    27f0:	05000010 	streq	r0, [r0, #-16]
    27f4:	00065c4b 	andeq	r5, r6, fp, asr #24
    27f8:	7c4c0500 	cfstr64vc	mvdx0, [ip], {-0}
    27fc:	05000088 	streq	r0, [r0, #-136]	; 0xffffff78
    2800:	007ee34d 	rsbseq	lr, lr, sp, asr #6
    2804:	054e0500 	strbeq	r0, [lr, #-1280]	; 0xfffffb00
    2808:	05000063 	streq	r0, [r0, #-99]	; 0xffffff9d
    280c:	0081ee4f 	addeq	lr, r1, pc, asr #28
    2810:	77590500 	ldrbvc	r0, [r9, -r0, lsl #10]
    2814:	05000051 	streq	r0, [r0, #-81]	; 0xffffffaf
    2818:	00603b5a 	rsbeq	r3, r0, sl, asr fp
    281c:	f25b0500 	vrshl.s16	d16, d0, d11
    2820:	05000051 	streq	r0, [r0, #-81]	; 0xffffffaf
    2824:	0024085f 	eoreq	r0, r4, pc, asr r8
    2828:	66600500 	strbtvs	r0, [r0], -r0, lsl #10
    282c:	05000034 	streq	r0, [r0, #-52]	; 0xffffffcc
    2830:	004fa664 	subeq	sl, pc, r4, ror #12
    2834:	f8650500 			; <UNDEFINED> instruction: 0xf8650500
    2838:	0000000f 	andeq	r0, r0, pc
    283c:	b6020004 	strlt	r0, [r2], -r4
    2840:	07000019 	smladeq	r0, r9, r0, r0
    2844:	0000024f 	andeq	r0, r0, pc, asr #4
    2848:	03010003 	movweq	r0, #4099	; 0x1003
    284c:	0a050507 	beq	143c70 <_Min_Stack_Size+0x143870>
    2850:	00004504 	andeq	r4, r0, r4, lsl #10
    2854:	05041003 	streq	r1, [r4, #-3]
    2858:	0030ca0a 	eorseq	ip, r0, sl, lsl #20
    285c:	06120300 	ldreq	r0, [r2], -r0, lsl #6
    2860:	70bf0805 	adcsvc	r0, pc, r5, lsl #16
    2864:	0a030000 	beq	c286c <_Min_Stack_Size+0xc246c>
    2868:	0cd10707 	ldcleq	7, cr0, [r1], {7}
    286c:	03040000 	movweq	r0, #16384	; 0x4000
    2870:	0805080b 	stmdaeq	r5, {r0, r1, r3, fp}
    2874:	00005406 	andeq	r5, r0, r6, lsl #8
    2878:	05090a03 	streq	r0, [r9, #-2563]	; 0xfffff5fd
    287c:	0012d408 	andseq	sp, r2, r8, lsl #8
    2880:	0a0e0300 	beq	383488 <_Min_Stack_Size+0x383088>
    2884:	000ce907 	andeq	lr, ip, r7, lsl #18
    2888:	0b070400 	bleq	1c3890 <_Min_Stack_Size+0x1c3490>
    288c:	0400000d 	streq	r0, [r0], #-13
    2890:	050b0b03 	streq	r0, [fp, #-2819]	; 0xfffff4fd
    2894:	007b4102 	rsbseq	r4, fp, r2, lsl #2
    2898:	07040300 	streq	r0, [r4, -r0, lsl #6]
    289c:	0c050304 	stceq	3, cr0, [r5], {4}
    28a0:	000d5707 	andeq	r5, sp, r7, lsl #14
    28a4:	eb070400 	bl	1c38ac <_Min_Stack_Size+0x1c34ac>
    28a8:	0400000d 	streq	r0, [r0], #-13
    28ac:	000e2707 	andeq	r2, lr, r7, lsl #14
    28b0:	5b070400 	blpl	1c38b8 <_Min_Stack_Size+0x1c34b8>
    28b4:	0300000e 	movweq	r0, #14
    28b8:	71070d10 	tstvc	r7, r0, lsl sp
    28bc:	0400000e 	streq	r0, [r0], #-14
    28c0:	050e1203 	streq	r1, [lr, #-515]	; 0xfffffdfd
    28c4:	0057c30b 	subseq	ip, r7, fp, lsl #6
    28c8:	080d0300 	stmdaeq	sp, {r8, r9}
    28cc:	0d0e0304 	stceq	3, cr0, [lr, #-16]
    28d0:	000f7f07 	andeq	r7, pc, r7, lsl #30
    28d4:	0f030400 	svceq	0x00030400
    28d8:	100c070f 	andne	r0, ip, pc, lsl #14
    28dc:	18030000 	stmdane	r3, {}	; <UNPREDICTABLE>
    28e0:	1022070d 	eorne	r0, r2, sp, lsl #14
    28e4:	03040000 	movweq	r0, #16384	; 0x4000
    28e8:	0605101b 			; <UNDEFINED> instruction: 0x0605101b
    28ec:	00005baf 	andeq	r5, r0, pc, lsr #23
    28f0:	07020703 	streq	r0, [r2, -r3, lsl #14]
    28f4:	00001065 	andeq	r1, r0, r5, rrx
    28f8:	bc070404 	cfstrslt	mvf0, [r7], {4}
    28fc:	04000010 	streq	r0, [r0], #-16
    2900:	0010f007 	andseq	pc, r0, r7
    2904:	11220300 			; <UNDEFINED> instruction: 0x11220300
    2908:	00110007 	andseq	r0, r1, r7
    290c:	58070400 	stmdapl	r7, {sl}
    2910:	03000011 	movweq	r0, #17
    2914:	071203f7 			; <UNDEFINED> instruction: 0x071203f7
    2918:	000011c9 	andeq	r1, r0, r9, asr #3
    291c:	11e50704 	mvnne	r0, r4, lsl #14
    2920:	03040000 	movweq	r0, #16384	; 0x4000
    2924:	2b051313 	blcs	147578 <_Min_Stack_Size+0x147178>
    2928:	00007f56 	andeq	r7, r0, r6, asr pc
    292c:	040d2f03 	streq	r2, [sp], #-3843	; 0xfffff0fd
    2930:	00130f07 	andseq	r0, r3, r7, lsl #30
    2934:	14030400 	strne	r0, [r3], #-1024	; 0xfffffc00
    2938:	bf020514 	svclt	0x00020514
    293c:	04000027 	streq	r0, [r0], #-39	; 0xffffffd9
    2940:	07151603 	ldreq	r1, [r5, -r3, lsl #12]
    2944:	00001650 	andeq	r1, r0, r0, asr r6
    2948:	16660704 	strbtne	r0, [r6], -r4, lsl #14
    294c:	03040000 	movweq	r0, #16384	; 0x4000
    2950:	8f071613 	svchi	0x00071613
    2954:	03000016 	movweq	r0, #22
    2958:	a5070d11 	strge	r0, [r7, #-3345]	; 0xfffff2ef
    295c:	04000016 	streq	r0, [r0], #-22	; 0xffffffea
    2960:	05171403 	ldreq	r1, [r7, #-1027]	; 0xfffffbfd
    2964:	0019ad04 	andseq	sl, r9, r4, lsl #26
    2968:	18030400 	stmdane	r3, {sl}
    296c:	f41e0518 			; <UNDEFINED> instruction: 0xf41e0518
    2970:	0400001d 	streq	r0, [r0], #-29	; 0xffffffe3
    2974:	0016da07 	andseq	sp, r6, r7, lsl #20
    2978:	01bd0300 			; <UNDEFINED> instruction: 0x01bd0300
    297c:	03040419 	movweq	r0, #17433	; 0x4419
    2980:	09031a14 	stmdbeq	r3, {r2, r4, r9, fp, ip}
    2984:	d60a051b 			; <UNDEFINED> instruction: 0xd60a051b
    2988:	03000007 	movweq	r0, #7
    298c:	fa071c0d 	blx	1c99c8 <_Min_Stack_Size+0x1c95c8>
    2990:	04000016 	streq	r0, [r0], #-22	; 0xffffffea
    2994:	07030e03 	streq	r0, [r3, -r3, lsl #28]
    2998:	000017fd 	strdeq	r1, [r0], -sp
    299c:	18670704 	stmdane	r7!, {r2, r8, r9, sl}^
    29a0:	05040000 	streq	r0, [r4, #-0]
    29a4:	0007cd0d 	andeq	ip, r7, sp, lsl #26
    29a8:	46070400 	strmi	r0, [r7], -r0, lsl #8
    29ac:	0400001a 	streq	r0, [r0], #-26	; 0xffffffe6
    29b0:	001bf607 	andseq	pc, fp, r7, lsl #12
    29b4:	00040400 	andeq	r0, r4, r0, lsl #8

Disassembly of section .debug_line:

00000000 <.debug_line>:
       0:	000008e4 	andeq	r0, r0, r4, ror #17
       4:	063b0003 	ldrteq	r0, [fp], -r3
       8:	01020000 	mrseq	r0, (UNDEF: 2)
       c:	000d0efb 	strdeq	r0, [sp], -fp
      10:	01010101 	tsteq	r1, r1, lsl #2
      14:	01000000 	mrseq	r0, (UNDEF: 0)
      18:	2e010000 	cdpcs	0, 0, cr0, cr1, cr0, {0}
      1c:	41482f2e 	cmpmi	r8, lr, lsr #30
      20:	434c2f4c 	movtmi	r2, #53068	; 0xcf4c
      24:	3a630044 	bcc	18c013c <_Min_Stack_Size+0x18bfd3c>
      28:	5c74735c 	ldclpl	3, cr7, [r4], #-368	; 0xfffffe90
      2c:	336d7473 	cmncc	sp, #1929379840	; 0x73000000
      30:	62756332 	rsbsvs	r6, r5, #-939524096	; 0xc8000000
      34:	65646965 	strbvs	r6, [r4, #-2405]!	; 0xfffff69b
      38:	312e315f 			; <UNDEFINED> instruction: 0x312e315f
      3c:	5c302e32 	ldcpl	14, cr2, [r0], #-200	; 0xffffff38
      40:	336d7473 	cmncc	sp, #1929379840	; 0x73000000
      44:	62756332 	rsbsvs	r6, r5, #-939524096	; 0xc8000000
      48:	65646965 	strbvs	r6, [r4, #-2405]!	; 0xfffff69b
      4c:	756c705c 	strbvc	r7, [ip, #-92]!	; 0xffffffa4
      50:	736e6967 	cmnvc	lr, #1687552	; 0x19c000
      54:	6d6f635c 	stclvs	3, cr6, [pc, #-368]!	; fffffeec <_estack+0xdfffaeec>
      58:	2e74732e 	cdpcs	3, 7, cr7, cr4, cr14, {1}
      5c:	336d7473 	cmncc	sp, #1929379840	; 0x73000000
      60:	62756332 	rsbsvs	r6, r5, #-939524096	; 0xc8000000
      64:	64692e65 	strbtvs	r2, [r9], #-3685	; 0xfffff19b
      68:	636d2e65 	cmnvs	sp, #1616	; 0x650
      6c:	78652e75 	stmdavc	r5!, {r0, r2, r4, r5, r6, r9, sl, fp, sp}^
      70:	6e726574 	mrcvs	5, 3, r6, cr2, cr4, {3}
      74:	6f746c61 	svcvs	0x00746c61
      78:	2e736c6f 	cdpcs	12, 7, cr6, cr3, cr15, {3}
      7c:	2d756e67 	ldclcs	14, cr6, [r5, #-412]!	; 0xfffffe64
      80:	6c6f6f74 	stclvs	15, cr6, [pc], #-464	; fffffeb8 <_estack+0xdfffaeb8>
      84:	6f662d73 	svcvs	0x00662d73
      88:	74732d72 	ldrbtvc	r2, [r3], #-3442	; 0xfffff28e
      8c:	2e32336d 	cdpcs	3, 3, cr3, cr2, cr13, {3}
      90:	332e3031 			; <UNDEFINED> instruction: 0x332e3031
      94:	3230322d 	eorscc	r3, r0, #-805306366	; 0xd0000002
      98:	30312e31 	eorscc	r2, r1, r1, lsr lr
      9c:	6e69772e 	cdpvs	7, 6, cr7, cr9, cr14, {1}
      a0:	315f3233 	cmpcc	pc, r3, lsr r2	; <UNPREDICTABLE>
      a4:	322e302e 	eorcc	r3, lr, #46	; 0x2e
      a8:	322e3030 	eorcc	r3, lr, #48	; 0x30
      ac:	30333230 	eorscc	r3, r3, r0, lsr r2
      b0:	31363131 	teqcc	r6, r1, lsr r1
      b4:	5c333030 	ldcpl	0, cr3, [r3], #-192	; 0xffffff40
      b8:	6c6f6f74 	stclvs	15, cr6, [pc], #-464	; fffffef0 <_estack+0xdfffaef0>
      bc:	72615c73 	rsbvc	r5, r1, #29440	; 0x7300
      c0:	6f6e2d6d 	svcvs	0x006e2d6d
      c4:	652d656e 	strvs	r6, [sp, #-1390]!	; 0xfffffa92
      c8:	5c696261 	sfmpl	f6, 2, [r9], #-388	; 0xfffffe7c
      cc:	6c636e69 	stclvs	14, cr6, [r3], #-420	; 0xfffffe5c
      d0:	5c656475 	cfstrdpl	mvd6, [r5], #-468	; 0xfffffe2c
      d4:	6863616d 	stmdavs	r3!, {r0, r2, r3, r5, r6, r8, sp, lr}^
      d8:	00656e69 	rsbeq	r6, r5, r9, ror #28
      dc:	735c3a63 	cmpvc	ip, #405504	; 0x63000
      e0:	74735c74 	ldrbtvc	r5, [r3], #-3188	; 0xfffff38c
      e4:	6332336d 	teqvs	r2, #-1275068415	; 0xb4000001
      e8:	69656275 	stmdbvs	r5!, {r0, r2, r4, r5, r6, r9, sp, lr}^
      ec:	315f6564 	cmpcc	pc, r4, ror #10
      f0:	2e32312e 	rsfcssp	f3, f2, #0.5
      f4:	74735c30 	ldrbtvc	r5, [r3], #-3120	; 0xfffff3d0
      f8:	6332336d 	teqvs	r2, #-1275068415	; 0xb4000001
      fc:	69656275 	stmdbvs	r5!, {r0, r2, r4, r5, r6, r9, sp, lr}^
     100:	705c6564 	subsvc	r6, ip, r4, ror #10
     104:	6967756c 	stmdbvs	r7!, {r2, r3, r5, r6, r8, sl, ip, sp, lr}^
     108:	635c736e 	cmpvs	ip, #-1207959551	; 0xb8000001
     10c:	732e6d6f 			; <UNDEFINED> instruction: 0x732e6d6f
     110:	74732e74 	ldrbtvc	r2, [r3], #-3700	; 0xfffff18c
     114:	6332336d 	teqvs	r2, #-1275068415	; 0xb4000001
     118:	2e656275 	mcrcs	2, 3, r6, cr5, cr5, {3}
     11c:	2e656469 	cdpcs	4, 6, cr6, cr5, cr9, {3}
     120:	2e75636d 	cdpcs	3, 7, cr6, cr5, cr13, {3}
     124:	65747865 	ldrbvs	r7, [r4, #-2149]!	; 0xfffff79b
     128:	6c616e72 	stclvs	14, cr6, [r1], #-456	; 0xfffffe38
     12c:	6c6f6f74 	stclvs	15, cr6, [pc], #-464	; ffffff64 <_estack+0xdfffaf64>
     130:	6e672e73 	mcrvs	14, 3, r2, cr7, cr3, {3}
     134:	6f742d75 	svcvs	0x00742d75
     138:	2d736c6f 	ldclcs	12, cr6, [r3, #-444]!	; 0xfffffe44
     13c:	2d726f66 	ldclcs	15, cr6, [r2, #-408]!	; 0xfffffe68
     140:	336d7473 	cmncc	sp, #1929379840	; 0x73000000
     144:	30312e32 	eorscc	r2, r1, r2, lsr lr
     148:	322d332e 	eorcc	r3, sp, #-1207959552	; 0xb8000000
     14c:	2e313230 	mrccs	2, 1, r3, cr1, cr0, {1}
     150:	772e3031 			; <UNDEFINED> instruction: 0x772e3031
     154:	32336e69 	eorscc	r6, r3, #1680	; 0x690
     158:	302e315f 	eorcc	r3, lr, pc, asr r1
     15c:	3030322e 	eorscc	r3, r0, lr, lsr #4
     160:	3230322e 	eorscc	r3, r0, #-536870910	; 0xe0000002
     164:	31313033 	teqcc	r1, r3, lsr r0
     168:	30303136 	eorscc	r3, r0, r6, lsr r1
     16c:	6f745c33 	svcvs	0x00745c33
     170:	5c736c6f 	ldclpl	12, cr6, [r3], #-444	; 0xfffffe44
     174:	2d6d7261 	sfmcs	f7, 2, [sp, #-388]!	; 0xfffffe7c
     178:	656e6f6e 	strbvs	r6, [lr, #-3950]!	; 0xfffff092
     17c:	6261652d 	rsbvs	r6, r1, #188743680	; 0xb400000
     180:	6e695c69 	cdpvs	12, 6, cr5, cr9, cr9, {3}
     184:	64756c63 	ldrbtvs	r6, [r5], #-3171	; 0xfffff39d
     188:	79735c65 	ldmdbvc	r3!, {r0, r2, r5, r6, sl, fp, ip, lr}^
     18c:	3a440073 	bcc	1100360 <_Min_Stack_Size+0x10fff60>
     190:	626d652f 	rsbvs	r6, sp, #197132288	; 0xbc00000
     194:	64656465 	strbtvs	r6, [r5], #-1125	; 0xfffffb9b
     198:	73795320 	cmnvc	r9, #32, 6	; 0x80000000
     19c:	736d6574 	cmnvc	sp, #116, 10	; 0x1d000000
     1a0:	4d54532f 	ldclmi	3, cr5, [r4, #-188]	; 0xffffff44
     1a4:	76697264 	strbtvc	r7, [r9], -r4, ror #4
     1a8:	2f737265 	svccs	0x00737265
     1ac:	5f6d7241 	svcpl	0x006d7241
     1b0:	65646f4d 	strbvs	r6, [r4, #-3917]!	; 0xfffff0b3
     1b4:	74532f73 	ldrbvc	r2, [r3], #-3955	; 0xfffff08d
     1b8:	4632336d 	ldrtmi	r3, [r2], -sp, ror #6
     1bc:	63333031 	teqvs	r3, #49	; 0x31
     1c0:	5f367438 	svcpl	0x00367438
     1c4:	76697244 	strbtvc	r7, [r9], -r4, asr #4
     1c8:	2f737265 	svccs	0x00737265
     1cc:	00434e49 	subeq	r4, r3, r9, asr #28
     1d0:	735c3a63 	cmpvc	ip, #405504	; 0x63000
     1d4:	74735c74 	ldrbtvc	r5, [r3], #-3188	; 0xfffff38c
     1d8:	6332336d 	teqvs	r2, #-1275068415	; 0xb4000001
     1dc:	69656275 	stmdbvs	r5!, {r0, r2, r4, r5, r6, r9, sp, lr}^
     1e0:	315f6564 	cmpcc	pc, r4, ror #10
     1e4:	2e32312e 	rsfcssp	f3, f2, #0.5
     1e8:	74735c30 	ldrbtvc	r5, [r3], #-3120	; 0xfffff3d0
     1ec:	6332336d 	teqvs	r2, #-1275068415	; 0xb4000001
     1f0:	69656275 	stmdbvs	r5!, {r0, r2, r4, r5, r6, r9, sp, lr}^
     1f4:	705c6564 	subsvc	r6, ip, r4, ror #10
     1f8:	6967756c 	stmdbvs	r7!, {r2, r3, r5, r6, r8, sl, ip, sp, lr}^
     1fc:	635c736e 	cmpvs	ip, #-1207959551	; 0xb8000001
     200:	732e6d6f 			; <UNDEFINED> instruction: 0x732e6d6f
     204:	74732e74 	ldrbtvc	r2, [r3], #-3700	; 0xfffff18c
     208:	6332336d 	teqvs	r2, #-1275068415	; 0xb4000001
     20c:	2e656275 	mcrcs	2, 3, r6, cr5, cr5, {3}
     210:	2e656469 	cdpcs	4, 6, cr6, cr5, cr9, {3}
     214:	2e75636d 	cdpcs	3, 7, cr6, cr5, cr13, {3}
     218:	65747865 	ldrbvs	r7, [r4, #-2149]!	; 0xfffff79b
     21c:	6c616e72 	stclvs	14, cr6, [r1], #-456	; 0xfffffe38
     220:	6c6f6f74 	stclvs	15, cr6, [pc], #-464	; 58 <_Min_Heap_Size-0x1a8>
     224:	6e672e73 	mcrvs	14, 3, r2, cr7, cr3, {3}
     228:	6f742d75 	svcvs	0x00742d75
     22c:	2d736c6f 	ldclcs	12, cr6, [r3, #-444]!	; 0xfffffe44
     230:	2d726f66 	ldclcs	15, cr6, [r2, #-408]!	; 0xfffffe68
     234:	336d7473 	cmncc	sp, #1929379840	; 0x73000000
     238:	30312e32 	eorscc	r2, r1, r2, lsr lr
     23c:	322d332e 	eorcc	r3, sp, #-1207959552	; 0xb8000000
     240:	2e313230 	mrccs	2, 1, r3, cr1, cr0, {1}
     244:	772e3031 			; <UNDEFINED> instruction: 0x772e3031
     248:	32336e69 	eorscc	r6, r3, #1680	; 0x690
     24c:	302e315f 	eorcc	r3, lr, pc, asr r1
     250:	3030322e 	eorscc	r3, r0, lr, lsr #4
     254:	3230322e 	eorscc	r3, r0, #-536870910	; 0xe0000002
     258:	31313033 	teqcc	r1, r3, lsr r0
     25c:	30303136 	eorscc	r3, r0, r6, lsr r1
     260:	6f745c33 	svcvs	0x00745c33
     264:	5c736c6f 	ldclpl	12, cr6, [r3], #-444	; 0xfffffe44
     268:	2d6d7261 	sfmcs	f7, 2, [sp, #-388]!	; 0xfffffe7c
     26c:	656e6f6e 	strbvs	r6, [lr, #-3950]!	; 0xfffff092
     270:	6261652d 	rsbvs	r6, r1, #188743680	; 0xb400000
     274:	6e695c69 	cdpvs	12, 6, cr5, cr9, cr9, {3}
     278:	64756c63 	ldrbtvs	r6, [r5], #-3171	; 0xfffff39d
     27c:	3a440065 	bcc	1100418 <_Min_Stack_Size+0x1100018>
     280:	626d652f 	rsbvs	r6, sp, #197132288	; 0xbc00000
     284:	64656465 	strbtvs	r6, [r5], #-1125	; 0xfffffb9b
     288:	73795320 	cmnvc	r9, #32, 6	; 0x80000000
     28c:	736d6574 	cmnvc	sp, #116, 10	; 0x1d000000
     290:	4d54532f 	ldclmi	3, cr5, [r4, #-188]	; 0xffffff44
     294:	76697264 	strbtvc	r7, [r9], -r4, ror #4
     298:	2f737265 	svccs	0x00737265
     29c:	5f6d7241 	svcpl	0x006d7241
     2a0:	65646f4d 	strbvs	r6, [r4, #-3917]!	; 0xfffff0b3
     2a4:	41482f73 	hvcmi	33523	; 0x82f3
     2a8:	4e492f4c 	cdpmi	15, 4, cr2, cr9, cr12, {2}
     2ac:	3a630043 	bcc	18c03c0 <_Min_Stack_Size+0x18bffc0>
     2b0:	5c74735c 	ldclpl	3, cr7, [r4], #-368	; 0xfffffe90
     2b4:	336d7473 	cmncc	sp, #1929379840	; 0x73000000
     2b8:	62756332 	rsbsvs	r6, r5, #-939524096	; 0xc8000000
     2bc:	65646965 	strbvs	r6, [r4, #-2405]!	; 0xfffff69b
     2c0:	312e315f 			; <UNDEFINED> instruction: 0x312e315f
     2c4:	5c302e32 	ldcpl	14, cr2, [r0], #-200	; 0xffffff38
     2c8:	336d7473 	cmncc	sp, #1929379840	; 0x73000000
     2cc:	62756332 	rsbsvs	r6, r5, #-939524096	; 0xc8000000
     2d0:	65646965 	strbvs	r6, [r4, #-2405]!	; 0xfffff69b
     2d4:	756c705c 	strbvc	r7, [ip, #-92]!	; 0xffffffa4
     2d8:	736e6967 	cmnvc	lr, #1687552	; 0x19c000
     2dc:	6d6f635c 	stclvs	3, cr6, [pc, #-368]!	; 174 <_Min_Heap_Size-0x8c>
     2e0:	2e74732e 	cdpcs	3, 7, cr7, cr4, cr14, {1}
     2e4:	336d7473 	cmncc	sp, #1929379840	; 0x73000000
     2e8:	62756332 	rsbsvs	r6, r5, #-939524096	; 0xc8000000
     2ec:	64692e65 	strbtvs	r2, [r9], #-3685	; 0xfffff19b
     2f0:	636d2e65 	cmnvs	sp, #1616	; 0x650
     2f4:	78652e75 	stmdavc	r5!, {r0, r2, r4, r5, r6, r9, sl, fp, sp}^
     2f8:	6e726574 	mrcvs	5, 3, r6, cr2, cr4, {3}
     2fc:	6f746c61 	svcvs	0x00746c61
     300:	2e736c6f 	cdpcs	12, 7, cr6, cr3, cr15, {3}
     304:	2d756e67 	ldclcs	14, cr6, [r5, #-412]!	; 0xfffffe64
     308:	6c6f6f74 	stclvs	15, cr6, [pc], #-464	; 140 <_Min_Heap_Size-0xc0>
     30c:	6f662d73 	svcvs	0x00662d73
     310:	74732d72 	ldrbtvc	r2, [r3], #-3442	; 0xfffff28e
     314:	2e32336d 	cdpcs	3, 3, cr3, cr2, cr13, {3}
     318:	332e3031 			; <UNDEFINED> instruction: 0x332e3031
     31c:	3230322d 	eorscc	r3, r0, #-805306366	; 0xd0000002
     320:	30312e31 	eorscc	r2, r1, r1, lsr lr
     324:	6e69772e 	cdpvs	7, 6, cr7, cr9, cr14, {1}
     328:	315f3233 	cmpcc	pc, r3, lsr r2	; <UNPREDICTABLE>
     32c:	322e302e 	eorcc	r3, lr, #46	; 0x2e
     330:	322e3030 	eorcc	r3, lr, #48	; 0x30
     334:	30333230 	eorscc	r3, r3, r0, lsr r2
     338:	31363131 	teqcc	r6, r1, lsr r1
     33c:	5c333030 	ldcpl	0, cr3, [r3], #-192	; 0xffffff40
     340:	6c6f6f74 	stclvs	15, cr6, [pc], #-464	; 178 <_Min_Heap_Size-0x88>
     344:	72615c73 	rsbvc	r5, r1, #29440	; 0x7300
     348:	6f6e2d6d 	svcvs	0x006e2d6d
     34c:	652d656e 	strvs	r6, [sp, #-1390]!	; 0xfffffa92
     350:	5c696261 	sfmpl	f6, 2, [r9], #-388	; 0xfffffe7c
     354:	6c636e69 	stclvs	14, cr6, [r3], #-420	; 0xfffffe5c
     358:	5c656475 	cfstrdpl	mvd6, [r5], #-468	; 0xfffffe2c
     35c:	6c77656e 	cfldr64vs	mvdx6, [r7], #-440	; 0xfffffe48
     360:	6e2d6269 	cdpvs	2, 2, cr6, cr13, cr9, {3}
     364:	006f6e61 	rsbeq	r6, pc, r1, ror #28
     368:	735c3a63 	cmpvc	ip, #405504	; 0x63000
     36c:	74735c74 	ldrbtvc	r5, [r3], #-3188	; 0xfffff38c
     370:	6332336d 	teqvs	r2, #-1275068415	; 0xb4000001
     374:	69656275 	stmdbvs	r5!, {r0, r2, r4, r5, r6, r9, sp, lr}^
     378:	315f6564 	cmpcc	pc, r4, ror #10
     37c:	2e32312e 	rsfcssp	f3, f2, #0.5
     380:	74735c30 	ldrbtvc	r5, [r3], #-3120	; 0xfffff3d0
     384:	6332336d 	teqvs	r2, #-1275068415	; 0xb4000001
     388:	69656275 	stmdbvs	r5!, {r0, r2, r4, r5, r6, r9, sp, lr}^
     38c:	705c6564 	subsvc	r6, ip, r4, ror #10
     390:	6967756c 	stmdbvs	r7!, {r2, r3, r5, r6, r8, sl, ip, sp, lr}^
     394:	635c736e 	cmpvs	ip, #-1207959551	; 0xb8000001
     398:	732e6d6f 			; <UNDEFINED> instruction: 0x732e6d6f
     39c:	74732e74 	ldrbtvc	r2, [r3], #-3700	; 0xfffff18c
     3a0:	6332336d 	teqvs	r2, #-1275068415	; 0xb4000001
     3a4:	2e656275 	mcrcs	2, 3, r6, cr5, cr5, {3}
     3a8:	2e656469 	cdpcs	4, 6, cr6, cr5, cr9, {3}
     3ac:	2e75636d 	cdpcs	3, 7, cr6, cr5, cr13, {3}
     3b0:	65747865 	ldrbvs	r7, [r4, #-2149]!	; 0xfffff79b
     3b4:	6c616e72 	stclvs	14, cr6, [r1], #-456	; 0xfffffe38
     3b8:	6c6f6f74 	stclvs	15, cr6, [pc], #-464	; 1f0 <_Min_Heap_Size-0x10>
     3bc:	6e672e73 	mcrvs	14, 3, r2, cr7, cr3, {3}
     3c0:	6f742d75 	svcvs	0x00742d75
     3c4:	2d736c6f 	ldclcs	12, cr6, [r3, #-444]!	; 0xfffffe44
     3c8:	2d726f66 	ldclcs	15, cr6, [r2, #-408]!	; 0xfffffe68
     3cc:	336d7473 	cmncc	sp, #1929379840	; 0x73000000
     3d0:	30312e32 	eorscc	r2, r1, r2, lsr lr
     3d4:	322d332e 	eorcc	r3, sp, #-1207959552	; 0xb8000000
     3d8:	2e313230 	mrccs	2, 1, r3, cr1, cr0, {1}
     3dc:	772e3031 			; <UNDEFINED> instruction: 0x772e3031
     3e0:	32336e69 	eorscc	r6, r3, #1680	; 0x690
     3e4:	302e315f 	eorcc	r3, lr, pc, asr r1
     3e8:	3030322e 	eorscc	r3, r0, lr, lsr #4
     3ec:	3230322e 	eorscc	r3, r0, #-536870910	; 0xe0000002
     3f0:	31313033 	teqcc	r1, r3, lsr r0
     3f4:	30303136 	eorscc	r3, r0, r6, lsr r1
     3f8:	6f745c33 	svcvs	0x00745c33
     3fc:	5c736c6f 	ldclpl	12, cr6, [r3], #-444	; 0xfffffe44
     400:	5c62696c 			; <UNDEFINED> instruction: 0x5c62696c
     404:	5c636367 	stclpl	3, cr6, [r3], #-412	; 0xfffffe64
     408:	2d6d7261 	sfmcs	f7, 2, [sp, #-388]!	; 0xfffffe7c
     40c:	656e6f6e 	strbvs	r6, [lr, #-3950]!	; 0xfffff092
     410:	6261652d 	rsbvs	r6, r1, #188743680	; 0xb400000
     414:	30315c69 	eorscc	r5, r1, r9, ror #24
     418:	312e332e 			; <UNDEFINED> instruction: 0x312e332e
     41c:	636e695c 	cmnvs	lr, #92, 18	; 0x170000
     420:	6564756c 	strbvs	r7, [r4, #-1388]!	; 0xfffffa94
     424:	636c0000 	cmnvs	ip, #0
     428:	00632e64 	rsbeq	r2, r3, r4, ror #28
     42c:	5f000001 	svcpl	0x00000001
     430:	61666564 	cmnvs	r6, r4, ror #10
     434:	5f746c75 	svcpl	0x00746c75
     438:	65707974 	ldrbvs	r7, [r0, #-2420]!	; 0xfffff68c
     43c:	00682e73 	rsbeq	r2, r8, r3, ror lr
     440:	5f000002 	svcpl	0x00000002
     444:	69647473 	stmdbvs	r4!, {r0, r1, r4, r5, r6, sl, ip, sp, lr}^
     448:	682e746e 	stmdavs	lr!, {r1, r2, r3, r5, r6, sl, ip, sp, lr}
     44c:	00000300 	andeq	r0, r0, r0, lsl #6
     450:	336d7473 	cmncc	sp, #1929379840	; 0x73000000
     454:	30316632 	eorscc	r6, r1, r2, lsr r6
     458:	2e367833 	mrccs	8, 1, r7, cr6, cr3, {1}
     45c:	00040068 	andeq	r0, r4, r8, rrx
     460:	69706700 	ldmdbvs	r0!, {r8, r9, sl, sp, lr}^
     464:	00682e6f 	rsbeq	r2, r8, pc, ror #28
     468:	73000004 	movwvc	r0, #4
     46c:	6f696474 	svcvs	0x00696474
     470:	0500682e 	streq	r6, [r0, #-2094]	; 0xfffff7d2
     474:	636c0000 	cmnvs	ip, #0
     478:	00682e64 	rsbeq	r2, r8, r4, ror #28
     47c:	73000006 	movwvc	r0, #6
     480:	696c6474 	stmdbvs	ip!, {r2, r4, r5, r6, sl, sp, lr}^
     484:	00682e62 	rsbeq	r2, r8, r2, ror #28
     488:	69000005 	stmdbvs	r0, {r0, r2}
     48c:	66656565 	strbtvs	r6, [r5], -r5, ror #10
     490:	00682e70 	rsbeq	r2, r8, r0, ror lr
     494:	5f000002 	svcpl	0x00000002
     498:	69736e61 	ldmdbvs	r3!, {r0, r5, r6, r9, sl, fp, sp, lr}^
     49c:	0500682e 	streq	r6, [r0, #-2094]	; 0xfffff7d2
     4a0:	656e0000 	strbvs	r0, [lr, #-0]!
     4a4:	62696c77 	rsbvs	r6, r9, #30464	; 0x7700
     4a8:	0700682e 	streq	r6, [r0, -lr, lsr #16]
     4ac:	6e5f0000 	cdpvs	0, 5, cr0, cr15, cr0, {0}
     4b0:	696c7765 	stmdbvs	ip!, {r0, r2, r5, r6, r8, r9, sl, ip, sp, lr}^
     4b4:	65765f62 	ldrbvs	r5, [r6, #-3938]!	; 0xfffff09e
     4b8:	6f697372 	svcvs	0x00697372
     4bc:	00682e6e 	rsbeq	r2, r8, lr, ror #28
     4c0:	63000005 	movwvs	r0, #5
     4c4:	69666e6f 	stmdbvs	r6!, {r0, r1, r2, r3, r5, r6, r9, sl, fp, sp, lr}^
     4c8:	00682e67 	rsbeq	r2, r8, r7, ror #28
     4cc:	66000003 	strvs	r0, [r0], -r3
     4d0:	75746165 	ldrbvc	r6, [r4, #-357]!	; 0xfffffe9b
     4d4:	2e736572 	mrccs	5, 3, r6, cr3, cr2, {3}
     4d8:	00030068 	andeq	r0, r3, r8, rrx
     4dc:	64747300 	ldrbtvs	r7, [r4], #-768	; 0xfffffd00
     4e0:	2e666564 	cdpcs	5, 6, cr6, cr6, cr4, {3}
     4e4:	00080068 	andeq	r0, r8, r8, rrx
     4e8:	65657200 	strbvs	r7, [r5, #-512]!	; 0xfffffe00
     4ec:	682e746e 	stmdavs	lr!, {r1, r2, r3, r5, r6, sl, ip, sp, lr}
     4f0:	00000300 	andeq	r0, r0, r0, lsl #6
     4f4:	7079745f 	rsbsvc	r7, r9, pc, asr r4
     4f8:	682e7365 	stmdavs	lr!, {r0, r2, r5, r6, r8, r9, ip, sp, lr}
     4fc:	00000300 	andeq	r0, r0, r0, lsl #6
     500:	7079745f 	rsbsvc	r7, r9, pc, asr r4
     504:	682e7365 	stmdavs	lr!, {r0, r2, r5, r6, r8, r9, ip, sp, lr}
     508:	00000200 	andeq	r0, r0, r0, lsl #4
     50c:	6b636f6c 	blvs	18dc2c4 <_Min_Stack_Size+0x18dbec4>
     510:	0300682e 	movweq	r6, #2094	; 0x82e
     514:	73610000 	cmnvc	r1, #0
     518:	74726573 	ldrbtvc	r6, [r2], #-1395	; 0xfffffa8d
     51c:	0500682e 	streq	r6, [r0, #-2094]	; 0xfffff7d2
     520:	64630000 	strbtvs	r0, [r3], #-0
     524:	2e736665 	cdpcs	6, 7, cr6, cr3, cr5, {3}
     528:	00030068 	andeq	r0, r3, r8, rrx
     52c:	64747300 	ldrbtvs	r7, [r4], #-768	; 0xfffffd00
     530:	2e62696c 	vnmulcs.f16	s13, s4, s25	; <UNPREDICTABLE>
     534:	00020068 	andeq	r0, r2, r8, rrx
     538:	6c6c6100 	stfvse	f6, [ip], #-0
     53c:	2e61636f 	cdpcs	3, 6, cr6, cr1, cr15, {3}
     540:	00050068 	andeq	r0, r5, r8, rrx
     544:	72747300 	rsbsvc	r7, r4, #0, 6
     548:	2e676e69 	cdpcs	14, 6, cr6, cr7, cr9, {3}
     54c:	00050068 	andeq	r0, r5, r8, rrx
     550:	6f6c5f00 	svcvs	0x006c5f00
     554:	656c6163 	strbvs	r6, [ip, #-355]!	; 0xfffffe9d
     558:	0300682e 	movweq	r6, #2094	; 0x82e
     55c:	74730000 	ldrbtvc	r0, [r3], #-0
     560:	676e6972 			; <UNDEFINED> instruction: 0x676e6972
     564:	00682e73 	rsbeq	r2, r8, r3, ror lr
     568:	73000005 	movwvc	r0, #5
     56c:	6e697274 	mcrvs	2, 3, r7, cr9, cr4, {3}
     570:	00682e67 	rsbeq	r2, r8, r7, ror #28
     574:	73000003 	movwvc	r0, #3
     578:	6e696474 	mcrvs	4, 3, r6, cr9, cr4, {3}
     57c:	00682e74 	rsbeq	r2, r8, r4, ror lr
     580:	73000008 	movwvc	r0, #8
     584:	6e696474 	mcrvs	4, 3, r6, cr9, cr4, {3}
     588:	00682e74 	rsbeq	r2, r8, r4, ror lr
     58c:	5f000005 	svcpl	0x00000005
     590:	73746e69 	cmnvc	r4, #1680	; 0x690
     594:	682e7075 	stmdavs	lr!, {r0, r2, r4, r5, r6, ip, sp, lr}
     598:	00000300 	andeq	r0, r0, r0, lsl #6
     59c:	61647473 	smcvs	18243	; 0x4743
     5a0:	682e6772 	stmdavs	lr!, {r1, r4, r5, r6, r8, r9, sl, sp, lr}
     5a4:	00000800 	andeq	r0, r0, r0, lsl #16
     5a8:	65707974 	ldrbvs	r7, [r0, #-2420]!	; 0xfffff68c
     5ac:	00682e73 	rsbeq	r2, r8, r3, ror lr
     5b0:	65000003 	strvs	r0, [r0, #-3]
     5b4:	6169646e 	cmnvs	r9, lr, ror #8
     5b8:	00682e6e 	rsbeq	r2, r8, lr, ror #28
     5bc:	5f000002 	svcpl	0x00000002
     5c0:	69646e65 	stmdbvs	r4!, {r0, r2, r5, r6, r9, sl, fp, sp, lr}^
     5c4:	682e6e61 	stmdavs	lr!, {r0, r5, r6, r9, sl, fp, sp, lr}
     5c8:	00000200 	andeq	r0, r0, r0, lsl #4
     5cc:	656c6573 	strbvs	r6, [ip, #-1395]!	; 0xfffffa8d
     5d0:	682e7463 	stmdavs	lr!, {r0, r1, r5, r6, sl, ip, sp, lr}
     5d4:	00000300 	andeq	r0, r0, r0, lsl #6
     5d8:	6769735f 			; <UNDEFINED> instruction: 0x6769735f
     5dc:	2e746573 	mrccs	5, 3, r6, cr4, cr3, {3}
     5e0:	00030068 	andeq	r0, r3, r8, rrx
     5e4:	69745f00 	ldmdbvs	r4!, {r8, r9, sl, fp, ip, lr}^
     5e8:	6176656d 	cmnvs	r6, sp, ror #10
     5ec:	00682e6c 	rsbeq	r2, r8, ip, ror #28
     5f0:	74000003 	strvc	r0, [r0], #-3
     5f4:	73656d69 	cmnvc	r5, #6720	; 0x1a40
     5f8:	2e636570 	mcrcs	5, 3, r6, cr3, cr0, {3}
     5fc:	00030068 	andeq	r0, r3, r8, rrx
     600:	69745f00 	ldmdbvs	r4!, {r8, r9, sl, fp, ip, lr}^
     604:	7073656d 	rsbsvc	r6, r3, sp, ror #10
     608:	682e6365 	stmdavs	lr!, {r0, r2, r5, r6, r8, r9, sp, lr}
     60c:	00000300 	andeq	r0, r0, r0, lsl #6
     610:	6874705f 	ldmdavs	r4!, {r0, r1, r2, r3, r4, r6, ip, sp, lr}^
     614:	64616572 	strbtvs	r6, [r1], #-1394	; 0xfffffa8e
     618:	65707974 	ldrbvs	r7, [r0, #-2420]!	; 0xfffff68c
     61c:	00682e73 	rsbeq	r2, r8, r3, ror lr
     620:	73000003 	movwvc	r0, #3
     624:	64656863 	strbtvs	r6, [r5], #-2147	; 0xfffff79d
     628:	0300682e 	movweq	r6, #2094	; 0x82e
     62c:	79740000 	ldmdbvc	r4!, {}^	; <UNPREDICTABLE>
     630:	2e736570 	mrccs	5, 3, r6, cr3, cr0, {3}
     634:	00020068 	andeq	r0, r2, r8, rrx
     638:	64747300 	ldrbtvs	r7, [r4], #-768	; 0xfffffd00
     63c:	682e6f69 	stmdavs	lr!, {r0, r3, r5, r6, r8, r9, sl, fp, sp, lr}
     640:	00000300 	andeq	r0, r0, r0, lsl #6
     644:	00010500 	andeq	r0, r1, r0, lsl #10
     648:	01700205 	cmneq	r0, r5, lsl #4
     64c:	0e030800 	cdpeq	8, 0, cr0, cr3, cr0, {0}
     650:	4c090501 	cfstr32mi	mvfx0, [r9], {1}
     654:	052e0205 	streq	r0, [lr, #-517]!	; 0xfffffdfb
     658:	0305220a 	movweq	r2, #21002	; 0x520a
     65c:	0019052e 	andseq	r0, r9, lr, lsr #10
     660:	20030402 	andcs	r0, r3, r2, lsl #8
     664:	02000305 	andeq	r0, r0, #335544320	; 0x14000000
     668:	053c0104 	ldreq	r0, [ip, #-260]!	; 0xfffffefc
     66c:	0402001a 	streq	r0, [r2], #-26	; 0xffffffe6
     670:	02053a02 	andeq	r3, r5, #8192	; 0x2000
     674:	01040200 	mrseq	r0, R12_usr
     678:	4e01053c 	mcrmi	5, 0, r0, cr1, cr12, {1}
     67c:	01000602 	tsteq	r0, r2, lsl #12
     680:	00160501 	andseq	r0, r6, r1, lsl #10
     684:	01ac0205 			; <UNDEFINED> instruction: 0x01ac0205
     688:	16030800 	strne	r0, [r3], -r0, lsl #16
     68c:	2f190501 	svccs	0x00190501
     690:	054b1305 	strbeq	r1, [fp, #-773]	; 0xfffffcfb
     694:	02053d1b 	andeq	r3, r5, #1728	; 0x6c0
     698:	4c19053d 	cfldr32mi	mvfx0, [r9], {61}	; 0x3d
     69c:	054b1305 	strbeq	r1, [fp, #-773]	; 0xfffffcfb
     6a0:	02053d1b 	andeq	r3, r5, #1728	; 0x6c0
     6a4:	4c19053d 	cfldr32mi	mvfx0, [r9], {61}	; 0x3d
     6a8:	054b1305 	strbeq	r1, [fp, #-773]	; 0xfffffcfb
     6ac:	02053d1b 	andeq	r3, r5, #1728	; 0x6c0
     6b0:	4e19053d 	mrcmi	5, 0, r0, cr9, cr13, {1}
     6b4:	053d1305 	ldreq	r1, [sp, #-773]!	; 0xfffffcfb
     6b8:	02053d1b 	andeq	r3, r5, #1728	; 0x6c0
     6bc:	4c19053d 	cfldr32mi	mvfx0, [r9], {61}	; 0x3d
     6c0:	053d1305 	ldreq	r1, [sp, #-773]!	; 0xfffffcfb
     6c4:	02053d1b 	andeq	r3, r5, #1728	; 0x6c0
     6c8:	4c19053d 	cfldr32mi	mvfx0, [r9], {61}	; 0x3d
     6cc:	053d1305 	ldreq	r1, [sp, #-773]!	; 0xfffffcfb
     6d0:	02053d1b 	andeq	r3, r5, #1728	; 0x6c0
     6d4:	4c19053d 	cfldr32mi	mvfx0, [r9], {61}	; 0x3d
     6d8:	053d1305 	ldreq	r1, [sp, #-773]!	; 0xfffffcfb
     6dc:	02053d1b 	andeq	r3, r5, #1728	; 0x6c0
     6e0:	4c19053d 	cfldr32mi	mvfx0, [r9], {61}	; 0x3d
     6e4:	053d1305 	ldreq	r1, [sp, #-773]!	; 0xfffffcfb
     6e8:	02053d1b 	andeq	r3, r5, #1728	; 0x6c0
     6ec:	4c19053d 	cfldr32mi	mvfx0, [r9], {61}	; 0x3d
     6f0:	053d1305 	ldreq	r1, [sp, #-773]!	; 0xfffffcfb
     6f4:	02053d1b 	andeq	r3, r5, #1728	; 0x6c0
     6f8:	4c19053d 	cfldr32mi	mvfx0, [r9], {61}	; 0x3d
     6fc:	053d1305 	ldreq	r1, [sp, #-773]!	; 0xfffffcfb
     700:	02053d1b 	andeq	r3, r5, #1728	; 0x6c0
     704:	4c19053d 	cfldr32mi	mvfx0, [r9], {61}	; 0x3d
     708:	053d1305 	ldreq	r1, [sp, #-773]!	; 0xfffffcfb
     70c:	02053d1b 	andeq	r3, r5, #1728	; 0x6c0
     710:	67674d3d 			; <UNDEFINED> instruction: 0x67674d3d
     714:	02680105 	rsbeq	r0, r8, #1073741825	; 0x40000001
     718:	01010006 	tsteq	r1, r6
     71c:	05000105 	streq	r0, [r0, #-261]	; 0xfffffefb
     720:	00000002 	andeq	r0, r0, r2
     724:	00d90300 	sbcseq	r0, r9, r0, lsl #6
     728:	30190501 	andscc	r0, r9, r1, lsl #10
     72c:	053d1305 	ldreq	r1, [sp, #-773]!	; 0xfffffcfb
     730:	19053d02 	stmdbne	r5, {r1, r8, sl, fp, ip, sp}
     734:	3d13054c 	cfldr32cc	mvfx0, [r3, #-304]	; 0xfffffed0
     738:	053d0205 	ldreq	r0, [sp, #-517]!	; 0xfffffdfb
     73c:	13054c19 	movwne	r4, #23577	; 0x5c19
     740:	3d02053d 	cfstr32cc	mvfx0, [r2, #-244]	; 0xffffff0c
     744:	054c1905 	strbeq	r1, [ip, #-2309]	; 0xfffff6fb
     748:	02053d13 	andeq	r3, r5, #1216	; 0x4c0
     74c:	4c19053d 	cfldr32mi	mvfx0, [r9], {61}	; 0x3d
     750:	053d1305 	ldreq	r1, [sp, #-773]!	; 0xfffffcfb
     754:	19053d02 	stmdbne	r5, {r1, r8, sl, fp, ip, sp}
     758:	3d13054c 	cfldr32cc	mvfx0, [r3, #-304]	; 0xfffffed0
     75c:	053d0205 	ldreq	r0, [sp, #-517]!	; 0xfffffdfb
     760:	13054c19 	movwne	r4, #23577	; 0x5c19
     764:	3d02053d 	cfstr32cc	mvfx0, [r2, #-244]	; 0xffffff0c
     768:	054c1905 	strbeq	r1, [ip, #-2309]	; 0xfffff6fb
     76c:	02053d13 	andeq	r3, r5, #1216	; 0x4c0
     770:	68684d3d 	stmdavs	r8!, {r0, r2, r3, r4, r5, r8, sl, fp, lr}^
     774:	67010532 	smladxvs	r1, r2, r5, r0
     778:	01000602 	tsteq	r0, r2, lsl #12
     77c:	00010501 	andeq	r0, r1, r1, lsl #10
     780:	03040205 	movweq	r0, #16901	; 0x4205
     784:	87030800 	strhi	r0, [r3, -r0, lsl #16]
     788:	02050101 	andeq	r0, r5, #1073741824	; 0x40000000
     78c:	053d672f 	ldreq	r6, [sp, #-1839]!	; 0xfffff8d1
     790:	05026801 	streq	r6, [r2, #-2049]	; 0xfffff7ff
     794:	05010100 	streq	r0, [r1, #-256]	; 0xffffff00
     798:	02050001 	andeq	r0, r5, #1
     79c:	08000330 	stmdaeq	r0, {r4, r5, r8, r9}
     7a0:	01018e03 	tsteq	r1, r3, lsl #28
     7a4:	59590205 	ldmdbpl	r9, {r0, r2, r9}^
     7a8:	053d6767 	ldreq	r6, [sp, #-1895]!	; 0xfffff899
     7ac:	07022f01 	streq	r2, [r2, -r1, lsl #30]
     7b0:	05010100 	streq	r0, [r1, #-256]	; 0xffffff00
     7b4:	02050001 	andeq	r0, r5, #1
     7b8:	08000374 	stmdaeq	r0, {r2, r4, r5, r6, r8, r9}
     7bc:	01019603 	tsteq	r1, r3, lsl #12
     7c0:	3d2f0205 	sfmcc	f0, 4, [pc, #-20]!	; 7b4 <_Min_Stack_Size+0x3b4>
     7c4:	3d2f3e2f 	stccc	14, cr3, [pc, #-188]!	; 710 <_Min_Stack_Size+0x310>
     7c8:	01053d3d 	tsteq	r5, sp, lsr sp
     7cc:	0002023d 	andeq	r0, r2, sp, lsr r2
     7d0:	01050101 	tsteq	r5, r1, lsl #2
     7d4:	00020500 	andeq	r0, r2, r0, lsl #10
     7d8:	03000000 	movweq	r0, #0
     7dc:	050101a2 	streq	r0, [r1, #-418]	; 0xfffffe5e
     7e0:	67595902 	ldrbvs	r5, [r9, -r2, lsl #18]
     7e4:	01053d67 	tsteq	r5, r7, ror #26
     7e8:	00070230 	andeq	r0, r7, r0, lsr r2
     7ec:	01050101 	tsteq	r5, r1, lsl #2
     7f0:	00020500 	andeq	r0, r2, r0, lsl #10
     7f4:	03000000 	movweq	r0, #0
     7f8:	050101ab 	streq	r0, [r1, #-427]	; 0xfffffe55
     7fc:	07054b06 	streq	r4, [r5, -r6, lsl #22]
     800:	2108052f 	tstcs	r8, pc, lsr #10
     804:	053d1a05 	ldreq	r1, [sp, #-2565]!	; 0xfffff5fb
     808:	05053c03 	streq	r3, [r5, #-3075]	; 0xfffff3fd
     80c:	3d04054b 	cfstr32cc	mvfx0, [r4, #-300]	; 0xfffffed4
     810:	055a0a05 	ldrbeq	r0, [sl, #-2565]	; 0xfffff5fb
     814:	052f3d04 	streq	r3, [pc, #-3332]!	; fffffb18 <_estack+0xdfffab18>
     818:	08054b0a 	stmdaeq	r5, {r1, r3, r8, r9, fp, lr}
     81c:	052e7703 	streq	r7, [lr, #-1795]!	; 0xfffff8fd
     820:	01052e07 	tsteq	r5, r7, lsl #28
     824:	022e0d03 	eoreq	r0, lr, #3, 26	; 0xc0
     828:	01010005 	tsteq	r1, r5
     82c:	05000105 	streq	r0, [r0, #-261]	; 0xfffffefb
     830:	00000002 	andeq	r0, r0, r2
     834:	01bc0300 			; <UNDEFINED> instruction: 0x01bc0300
     838:	83040501 	movwhi	r0, #17665	; 0x4501
     83c:	053d0505 	ldreq	r0, [sp, #-1285]!	; 0xfffffafb
     840:	01053d04 	tsteq	r5, r4, lsl #26
     844:	030b056e 	movweq	r0, #46446	; 0xb56e
     848:	06052079 			; <UNDEFINED> instruction: 0x06052079
     84c:	3d05053d 	cfstr32cc	mvfx0, [r5, #-244]	; 0xffffff0c
     850:	026b0105 	rsbeq	r0, fp, #1073741825	; 0x40000001
     854:	01010004 	tsteq	r1, r4
     858:	05000105 	streq	r0, [r0, #-261]	; 0xfffffefb
     85c:	0003a802 	andeq	sl, r3, r2, lsl #16
     860:	01c90308 	biceq	r0, r9, r8, lsl #6
     864:	2f020501 	svccs	0x00020501
     868:	0002023d 	andeq	r0, r2, sp, lsr r2
     86c:	01050101 	tsteq	r5, r1, lsl #2
     870:	00020500 	andeq	r0, r2, r0, lsl #10
     874:	03000000 	movweq	r0, #0
     878:	050101cd 	streq	r0, [r1, #-461]	; 0xfffffe33
     87c:	05754c02 	ldrbeq	r4, [r5, #-3074]!	; 0xfffff3fe
     880:	06025a01 	streq	r5, [r2], -r1, lsl #20
     884:	05010100 	streq	r0, [r1, #-256]	; 0xffffff00
     888:	02050001 	andeq	r0, r5, #1
     88c:	00000000 	andeq	r0, r0, r0
     890:	0101d403 	tsteq	r1, r3, lsl #8
     894:	054c0905 	strbeq	r0, [ip, #-2309]	; 0xfffff6fb
     898:	02002f27 	andeq	r2, r0, #39, 30	; 0x9c
     89c:	82060104 	andhi	r0, r6, #4, 2
     8a0:	02040200 	andeq	r0, r4, #0, 4
     8a4:	0009054a 	andeq	r0, r9, sl, asr #10
     8a8:	06040402 	streq	r0, [r4], -r2, lsl #8
     8ac:	00070520 	andeq	r0, r7, r0, lsr #10
     8b0:	22040402 	andcs	r0, r4, #33554432	; 0x2000000
     8b4:	02001a05 	andeq	r1, r0, #20480	; 0x5000
     8b8:	05590404 	ldrbeq	r0, [r9, #-1028]	; 0xfffffbfc
     8bc:	04020009 	streq	r0, [r2], #-9
     8c0:	18054a04 	stmdane	r5, {r2, r9, fp, lr}
     8c4:	04040200 	streq	r0, [r4], #-512	; 0xfffffe00
     8c8:	00070567 	andeq	r0, r7, r7, ror #10
     8cc:	58040402 	stmdapl	r4, {r1, sl}
     8d0:	02000305 	andeq	r0, r0, #335544320	; 0x14000000
     8d4:	00590404 	subseq	r0, r9, r4, lsl #8
     8d8:	91040402 	tstls	r4, r2, lsl #8
     8dc:	02000105 	andeq	r0, r0, #1073741825	; 0x40000001
     8e0:	02590404 	subseq	r0, r9, #4, 8	; 0x4000000
     8e4:	0101000b 	tsteq	r1, fp
     8e8:	000006a2 	andeq	r0, r0, r2, lsr #13
     8ec:	06420003 	strbeq	r0, [r2], -r3
     8f0:	01020000 	mrseq	r0, (UNDEF: 2)
     8f4:	000d0efb 	strdeq	r0, [sp], -fp
     8f8:	01010101 	tsteq	r1, r1, lsl #2
     8fc:	01000000 	mrseq	r0, (UNDEF: 0)
     900:	2e010000 	cdpcs	0, 0, cr0, cr1, cr0, {0}
     904:	72532f2e 	subsvc	r2, r3, #46, 30	; 0xb8
     908:	3a630063 	bcc	18c0a9c <_Min_Stack_Size+0x18c069c>
     90c:	5c74735c 	ldclpl	3, cr7, [r4], #-368	; 0xfffffe90
     910:	336d7473 	cmncc	sp, #1929379840	; 0x73000000
     914:	62756332 	rsbsvs	r6, r5, #-939524096	; 0xc8000000
     918:	65646965 	strbvs	r6, [r4, #-2405]!	; 0xfffff69b
     91c:	312e315f 			; <UNDEFINED> instruction: 0x312e315f
     920:	5c302e32 	ldcpl	14, cr2, [r0], #-200	; 0xffffff38
     924:	336d7473 	cmncc	sp, #1929379840	; 0x73000000
     928:	62756332 	rsbsvs	r6, r5, #-939524096	; 0xc8000000
     92c:	65646965 	strbvs	r6, [r4, #-2405]!	; 0xfffff69b
     930:	756c705c 	strbvc	r7, [ip, #-92]!	; 0xffffffa4
     934:	736e6967 	cmnvc	lr, #1687552	; 0x19c000
     938:	6d6f635c 	stclvs	3, cr6, [pc, #-368]!	; 7d0 <_Min_Stack_Size+0x3d0>
     93c:	2e74732e 	cdpcs	3, 7, cr7, cr4, cr14, {1}
     940:	336d7473 	cmncc	sp, #1929379840	; 0x73000000
     944:	62756332 	rsbsvs	r6, r5, #-939524096	; 0xc8000000
     948:	64692e65 	strbtvs	r2, [r9], #-3685	; 0xfffff19b
     94c:	636d2e65 	cmnvs	sp, #1616	; 0x650
     950:	78652e75 	stmdavc	r5!, {r0, r2, r4, r5, r6, r9, sl, fp, sp}^
     954:	6e726574 	mrcvs	5, 3, r6, cr2, cr4, {3}
     958:	6f746c61 	svcvs	0x00746c61
     95c:	2e736c6f 	cdpcs	12, 7, cr6, cr3, cr15, {3}
     960:	2d756e67 	ldclcs	14, cr6, [r5, #-412]!	; 0xfffffe64
     964:	6c6f6f74 	stclvs	15, cr6, [pc], #-464	; 79c <_Min_Stack_Size+0x39c>
     968:	6f662d73 	svcvs	0x00662d73
     96c:	74732d72 	ldrbtvc	r2, [r3], #-3442	; 0xfffff28e
     970:	2e32336d 	cdpcs	3, 3, cr3, cr2, cr13, {3}
     974:	332e3031 			; <UNDEFINED> instruction: 0x332e3031
     978:	3230322d 	eorscc	r3, r0, #-805306366	; 0xd0000002
     97c:	30312e31 	eorscc	r2, r1, r1, lsr lr
     980:	6e69772e 	cdpvs	7, 6, cr7, cr9, cr14, {1}
     984:	315f3233 	cmpcc	pc, r3, lsr r2	; <UNPREDICTABLE>
     988:	322e302e 	eorcc	r3, lr, #46	; 0x2e
     98c:	322e3030 	eorcc	r3, lr, #48	; 0x30
     990:	30333230 	eorscc	r3, r3, r0, lsr r2
     994:	31363131 	teqcc	r6, r1, lsr r1
     998:	5c333030 	ldcpl	0, cr3, [r3], #-192	; 0xffffff40
     99c:	6c6f6f74 	stclvs	15, cr6, [pc], #-464	; 7d4 <_Min_Stack_Size+0x3d4>
     9a0:	72615c73 	rsbvc	r5, r1, #29440	; 0x7300
     9a4:	6f6e2d6d 	svcvs	0x006e2d6d
     9a8:	652d656e 	strvs	r6, [sp, #-1390]!	; 0xfffffa92
     9ac:	5c696261 	sfmpl	f6, 2, [r9], #-388	; 0xfffffe7c
     9b0:	6c636e69 	stclvs	14, cr6, [r3], #-420	; 0xfffffe5c
     9b4:	5c656475 	cfstrdpl	mvd6, [r5], #-468	; 0xfffffe2c
     9b8:	6863616d 	stmdavs	r3!, {r0, r2, r3, r5, r6, r8, sp, lr}^
     9bc:	00656e69 	rsbeq	r6, r5, r9, ror #28
     9c0:	735c3a63 	cmpvc	ip, #405504	; 0x63000
     9c4:	74735c74 	ldrbtvc	r5, [r3], #-3188	; 0xfffff38c
     9c8:	6332336d 	teqvs	r2, #-1275068415	; 0xb4000001
     9cc:	69656275 	stmdbvs	r5!, {r0, r2, r4, r5, r6, r9, sp, lr}^
     9d0:	315f6564 	cmpcc	pc, r4, ror #10
     9d4:	2e32312e 	rsfcssp	f3, f2, #0.5
     9d8:	74735c30 	ldrbtvc	r5, [r3], #-3120	; 0xfffff3d0
     9dc:	6332336d 	teqvs	r2, #-1275068415	; 0xb4000001
     9e0:	69656275 	stmdbvs	r5!, {r0, r2, r4, r5, r6, r9, sp, lr}^
     9e4:	705c6564 	subsvc	r6, ip, r4, ror #10
     9e8:	6967756c 	stmdbvs	r7!, {r2, r3, r5, r6, r8, sl, ip, sp, lr}^
     9ec:	635c736e 	cmpvs	ip, #-1207959551	; 0xb8000001
     9f0:	732e6d6f 			; <UNDEFINED> instruction: 0x732e6d6f
     9f4:	74732e74 	ldrbtvc	r2, [r3], #-3700	; 0xfffff18c
     9f8:	6332336d 	teqvs	r2, #-1275068415	; 0xb4000001
     9fc:	2e656275 	mcrcs	2, 3, r6, cr5, cr5, {3}
     a00:	2e656469 	cdpcs	4, 6, cr6, cr5, cr9, {3}
     a04:	2e75636d 	cdpcs	3, 7, cr6, cr5, cr13, {3}
     a08:	65747865 	ldrbvs	r7, [r4, #-2149]!	; 0xfffff79b
     a0c:	6c616e72 	stclvs	14, cr6, [r1], #-456	; 0xfffffe38
     a10:	6c6f6f74 	stclvs	15, cr6, [pc], #-464	; 848 <_Min_Stack_Size+0x448>
     a14:	6e672e73 	mcrvs	14, 3, r2, cr7, cr3, {3}
     a18:	6f742d75 	svcvs	0x00742d75
     a1c:	2d736c6f 	ldclcs	12, cr6, [r3, #-444]!	; 0xfffffe44
     a20:	2d726f66 	ldclcs	15, cr6, [r2, #-408]!	; 0xfffffe68
     a24:	336d7473 	cmncc	sp, #1929379840	; 0x73000000
     a28:	30312e32 	eorscc	r2, r1, r2, lsr lr
     a2c:	322d332e 	eorcc	r3, sp, #-1207959552	; 0xb8000000
     a30:	2e313230 	mrccs	2, 1, r3, cr1, cr0, {1}
     a34:	772e3031 			; <UNDEFINED> instruction: 0x772e3031
     a38:	32336e69 	eorscc	r6, r3, #1680	; 0x690
     a3c:	302e315f 	eorcc	r3, lr, pc, asr r1
     a40:	3030322e 	eorscc	r3, r0, lr, lsr #4
     a44:	3230322e 	eorscc	r3, r0, #-536870910	; 0xe0000002
     a48:	31313033 	teqcc	r1, r3, lsr r0
     a4c:	30303136 	eorscc	r3, r0, r6, lsr r1
     a50:	6f745c33 	svcvs	0x00745c33
     a54:	5c736c6f 	ldclpl	12, cr6, [r3], #-444	; 0xfffffe44
     a58:	2d6d7261 	sfmcs	f7, 2, [sp, #-388]!	; 0xfffffe7c
     a5c:	656e6f6e 	strbvs	r6, [lr, #-3950]!	; 0xfffff092
     a60:	6261652d 	rsbvs	r6, r1, #188743680	; 0xb400000
     a64:	6e695c69 	cdpvs	12, 6, cr5, cr9, cr9, {3}
     a68:	64756c63 	ldrbtvs	r6, [r5], #-3171	; 0xfffff39d
     a6c:	79735c65 	ldmdbvc	r3!, {r0, r2, r5, r6, sl, fp, ip, lr}^
     a70:	3a440073 	bcc	1100c44 <_Min_Stack_Size+0x1100844>
     a74:	626d652f 	rsbvs	r6, sp, #197132288	; 0xbc00000
     a78:	64656465 	strbtvs	r6, [r5], #-1125	; 0xfffffb9b
     a7c:	73795320 	cmnvc	r9, #32, 6	; 0x80000000
     a80:	736d6574 	cmnvc	sp, #116, 10	; 0x1d000000
     a84:	4d54532f 	ldclmi	3, cr5, [r4, #-188]	; 0xffffff44
     a88:	76697264 	strbtvc	r7, [r9], -r4, ror #4
     a8c:	2f737265 	svccs	0x00737265
     a90:	5f6d7241 	svcpl	0x006d7241
     a94:	65646f4d 	strbvs	r6, [r4, #-3917]!	; 0xfffff0b3
     a98:	74532f73 	ldrbvc	r2, [r3], #-3955	; 0xfffff08d
     a9c:	4632336d 	ldrtmi	r3, [r2], -sp, ror #6
     aa0:	63333031 	teqvs	r3, #49	; 0x31
     aa4:	5f367438 	svcpl	0x00367438
     aa8:	76697244 	strbtvc	r7, [r9], -r4, asr #4
     aac:	2f737265 	svccs	0x00737265
     ab0:	00434e49 	subeq	r4, r3, r9, asr #28
     ab4:	652f3a44 	strvs	r3, [pc, #-2628]!	; 78 <_Min_Heap_Size-0x188>
     ab8:	6465626d 	strbtvs	r6, [r5], #-621	; 0xfffffd93
     abc:	53206465 			; <UNDEFINED> instruction: 0x53206465
     ac0:	65747379 	ldrbvs	r7, [r4, #-889]!	; 0xfffffc87
     ac4:	532f736d 			; <UNDEFINED> instruction: 0x532f736d
     ac8:	72644d54 	rsbvc	r4, r4, #84, 26	; 0x1500
     acc:	72657669 	rsbvc	r7, r5, #110100480	; 0x6900000
     ad0:	72412f73 	subvc	r2, r1, #460	; 0x1cc
     ad4:	6f4d5f6d 	svcvs	0x004d5f6d
     ad8:	2f736564 	svccs	0x00736564
     adc:	2f4c4148 	svccs	0x004c4148
     ae0:	00434e49 	subeq	r4, r3, r9, asr #28
     ae4:	735c3a63 	cmpvc	ip, #405504	; 0x63000
     ae8:	74735c74 	ldrbtvc	r5, [r3], #-3188	; 0xfffff38c
     aec:	6332336d 	teqvs	r2, #-1275068415	; 0xb4000001
     af0:	69656275 	stmdbvs	r5!, {r0, r2, r4, r5, r6, r9, sp, lr}^
     af4:	315f6564 	cmpcc	pc, r4, ror #10
     af8:	2e32312e 	rsfcssp	f3, f2, #0.5
     afc:	74735c30 	ldrbtvc	r5, [r3], #-3120	; 0xfffff3d0
     b00:	6332336d 	teqvs	r2, #-1275068415	; 0xb4000001
     b04:	69656275 	stmdbvs	r5!, {r0, r2, r4, r5, r6, r9, sp, lr}^
     b08:	705c6564 	subsvc	r6, ip, r4, ror #10
     b0c:	6967756c 	stmdbvs	r7!, {r2, r3, r5, r6, r8, sl, ip, sp, lr}^
     b10:	635c736e 	cmpvs	ip, #-1207959551	; 0xb8000001
     b14:	732e6d6f 			; <UNDEFINED> instruction: 0x732e6d6f
     b18:	74732e74 	ldrbtvc	r2, [r3], #-3700	; 0xfffff18c
     b1c:	6332336d 	teqvs	r2, #-1275068415	; 0xb4000001
     b20:	2e656275 	mcrcs	2, 3, r6, cr5, cr5, {3}
     b24:	2e656469 	cdpcs	4, 6, cr6, cr5, cr9, {3}
     b28:	2e75636d 	cdpcs	3, 7, cr6, cr5, cr13, {3}
     b2c:	65747865 	ldrbvs	r7, [r4, #-2149]!	; 0xfffff79b
     b30:	6c616e72 	stclvs	14, cr6, [r1], #-456	; 0xfffffe38
     b34:	6c6f6f74 	stclvs	15, cr6, [pc], #-464	; 96c <_Min_Stack_Size+0x56c>
     b38:	6e672e73 	mcrvs	14, 3, r2, cr7, cr3, {3}
     b3c:	6f742d75 	svcvs	0x00742d75
     b40:	2d736c6f 	ldclcs	12, cr6, [r3, #-444]!	; 0xfffffe44
     b44:	2d726f66 	ldclcs	15, cr6, [r2, #-408]!	; 0xfffffe68
     b48:	336d7473 	cmncc	sp, #1929379840	; 0x73000000
     b4c:	30312e32 	eorscc	r2, r1, r2, lsr lr
     b50:	322d332e 	eorcc	r3, sp, #-1207959552	; 0xb8000000
     b54:	2e313230 	mrccs	2, 1, r3, cr1, cr0, {1}
     b58:	772e3031 			; <UNDEFINED> instruction: 0x772e3031
     b5c:	32336e69 	eorscc	r6, r3, #1680	; 0x690
     b60:	302e315f 	eorcc	r3, lr, pc, asr r1
     b64:	3030322e 	eorscc	r3, r0, lr, lsr #4
     b68:	3230322e 	eorscc	r3, r0, #-536870910	; 0xe0000002
     b6c:	31313033 	teqcc	r1, r3, lsr r0
     b70:	30303136 	eorscc	r3, r0, r6, lsr r1
     b74:	6f745c33 	svcvs	0x00745c33
     b78:	5c736c6f 	ldclpl	12, cr6, [r3], #-444	; 0xfffffe44
     b7c:	2d6d7261 	sfmcs	f7, 2, [sp, #-388]!	; 0xfffffe7c
     b80:	656e6f6e 	strbvs	r6, [lr, #-3950]!	; 0xfffff092
     b84:	6261652d 	rsbvs	r6, r1, #188743680	; 0xb400000
     b88:	6e695c69 	cdpvs	12, 6, cr5, cr9, cr9, {3}
     b8c:	64756c63 	ldrbtvs	r6, [r5], #-3171	; 0xfffff39d
     b90:	3a630065 	bcc	18c0d2c <_Min_Stack_Size+0x18c092c>
     b94:	5c74735c 	ldclpl	3, cr7, [r4], #-368	; 0xfffffe90
     b98:	336d7473 	cmncc	sp, #1929379840	; 0x73000000
     b9c:	62756332 	rsbsvs	r6, r5, #-939524096	; 0xc8000000
     ba0:	65646965 	strbvs	r6, [r4, #-2405]!	; 0xfffff69b
     ba4:	312e315f 			; <UNDEFINED> instruction: 0x312e315f
     ba8:	5c302e32 	ldcpl	14, cr2, [r0], #-200	; 0xffffff38
     bac:	336d7473 	cmncc	sp, #1929379840	; 0x73000000
     bb0:	62756332 	rsbsvs	r6, r5, #-939524096	; 0xc8000000
     bb4:	65646965 	strbvs	r6, [r4, #-2405]!	; 0xfffff69b
     bb8:	756c705c 	strbvc	r7, [ip, #-92]!	; 0xffffffa4
     bbc:	736e6967 	cmnvc	lr, #1687552	; 0x19c000
     bc0:	6d6f635c 	stclvs	3, cr6, [pc, #-368]!	; a58 <_Min_Stack_Size+0x658>
     bc4:	2e74732e 	cdpcs	3, 7, cr7, cr4, cr14, {1}
     bc8:	336d7473 	cmncc	sp, #1929379840	; 0x73000000
     bcc:	62756332 	rsbsvs	r6, r5, #-939524096	; 0xc8000000
     bd0:	64692e65 	strbtvs	r2, [r9], #-3685	; 0xfffff19b
     bd4:	636d2e65 	cmnvs	sp, #1616	; 0x650
     bd8:	78652e75 	stmdavc	r5!, {r0, r2, r4, r5, r6, r9, sl, fp, sp}^
     bdc:	6e726574 	mrcvs	5, 3, r6, cr2, cr4, {3}
     be0:	6f746c61 	svcvs	0x00746c61
     be4:	2e736c6f 	cdpcs	12, 7, cr6, cr3, cr15, {3}
     be8:	2d756e67 	ldclcs	14, cr6, [r5, #-412]!	; 0xfffffe64
     bec:	6c6f6f74 	stclvs	15, cr6, [pc], #-464	; a24 <_Min_Stack_Size+0x624>
     bf0:	6f662d73 	svcvs	0x00662d73
     bf4:	74732d72 	ldrbtvc	r2, [r3], #-3442	; 0xfffff28e
     bf8:	2e32336d 	cdpcs	3, 3, cr3, cr2, cr13, {3}
     bfc:	332e3031 			; <UNDEFINED> instruction: 0x332e3031
     c00:	3230322d 	eorscc	r3, r0, #-805306366	; 0xd0000002
     c04:	30312e31 	eorscc	r2, r1, r1, lsr lr
     c08:	6e69772e 	cdpvs	7, 6, cr7, cr9, cr14, {1}
     c0c:	315f3233 	cmpcc	pc, r3, lsr r2	; <UNPREDICTABLE>
     c10:	322e302e 	eorcc	r3, lr, #46	; 0x2e
     c14:	322e3030 	eorcc	r3, lr, #48	; 0x30
     c18:	30333230 	eorscc	r3, r3, r0, lsr r2
     c1c:	31363131 	teqcc	r6, r1, lsr r1
     c20:	5c333030 	ldcpl	0, cr3, [r3], #-192	; 0xffffff40
     c24:	6c6f6f74 	stclvs	15, cr6, [pc], #-464	; a5c <_Min_Stack_Size+0x65c>
     c28:	72615c73 	rsbvc	r5, r1, #29440	; 0x7300
     c2c:	6f6e2d6d 	svcvs	0x006e2d6d
     c30:	652d656e 	strvs	r6, [sp, #-1390]!	; 0xfffffa92
     c34:	5c696261 	sfmpl	f6, 2, [r9], #-388	; 0xfffffe7c
     c38:	6c636e69 	stclvs	14, cr6, [r3], #-420	; 0xfffffe5c
     c3c:	5c656475 	cfstrdpl	mvd6, [r5], #-468	; 0xfffffe2c
     c40:	6c77656e 	cfldr64vs	mvdx6, [r7], #-440	; 0xfffffe48
     c44:	6e2d6269 	cdpvs	2, 2, cr6, cr13, cr9, {3}
     c48:	006f6e61 	rsbeq	r6, pc, r1, ror #28
     c4c:	735c3a63 	cmpvc	ip, #405504	; 0x63000
     c50:	74735c74 	ldrbtvc	r5, [r3], #-3188	; 0xfffff38c
     c54:	6332336d 	teqvs	r2, #-1275068415	; 0xb4000001
     c58:	69656275 	stmdbvs	r5!, {r0, r2, r4, r5, r6, r9, sp, lr}^
     c5c:	315f6564 	cmpcc	pc, r4, ror #10
     c60:	2e32312e 	rsfcssp	f3, f2, #0.5
     c64:	74735c30 	ldrbtvc	r5, [r3], #-3120	; 0xfffff3d0
     c68:	6332336d 	teqvs	r2, #-1275068415	; 0xb4000001
     c6c:	69656275 	stmdbvs	r5!, {r0, r2, r4, r5, r6, r9, sp, lr}^
     c70:	705c6564 	subsvc	r6, ip, r4, ror #10
     c74:	6967756c 	stmdbvs	r7!, {r2, r3, r5, r6, r8, sl, ip, sp, lr}^
     c78:	635c736e 	cmpvs	ip, #-1207959551	; 0xb8000001
     c7c:	732e6d6f 			; <UNDEFINED> instruction: 0x732e6d6f
     c80:	74732e74 	ldrbtvc	r2, [r3], #-3700	; 0xfffff18c
     c84:	6332336d 	teqvs	r2, #-1275068415	; 0xb4000001
     c88:	2e656275 	mcrcs	2, 3, r6, cr5, cr5, {3}
     c8c:	2e656469 	cdpcs	4, 6, cr6, cr5, cr9, {3}
     c90:	2e75636d 	cdpcs	3, 7, cr6, cr5, cr13, {3}
     c94:	65747865 	ldrbvs	r7, [r4, #-2149]!	; 0xfffff79b
     c98:	6c616e72 	stclvs	14, cr6, [r1], #-456	; 0xfffffe38
     c9c:	6c6f6f74 	stclvs	15, cr6, [pc], #-464	; ad4 <_Min_Stack_Size+0x6d4>
     ca0:	6e672e73 	mcrvs	14, 3, r2, cr7, cr3, {3}
     ca4:	6f742d75 	svcvs	0x00742d75
     ca8:	2d736c6f 	ldclcs	12, cr6, [r3, #-444]!	; 0xfffffe44
     cac:	2d726f66 	ldclcs	15, cr6, [r2, #-408]!	; 0xfffffe68
     cb0:	336d7473 	cmncc	sp, #1929379840	; 0x73000000
     cb4:	30312e32 	eorscc	r2, r1, r2, lsr lr
     cb8:	322d332e 	eorcc	r3, sp, #-1207959552	; 0xb8000000
     cbc:	2e313230 	mrccs	2, 1, r3, cr1, cr0, {1}
     cc0:	772e3031 			; <UNDEFINED> instruction: 0x772e3031
     cc4:	32336e69 	eorscc	r6, r3, #1680	; 0x690
     cc8:	302e315f 	eorcc	r3, lr, pc, asr r1
     ccc:	3030322e 	eorscc	r3, r0, lr, lsr #4
     cd0:	3230322e 	eorscc	r3, r0, #-536870910	; 0xe0000002
     cd4:	31313033 	teqcc	r1, r3, lsr r0
     cd8:	30303136 	eorscc	r3, r0, r6, lsr r1
     cdc:	6f745c33 	svcvs	0x00745c33
     ce0:	5c736c6f 	ldclpl	12, cr6, [r3], #-444	; 0xfffffe44
     ce4:	5c62696c 			; <UNDEFINED> instruction: 0x5c62696c
     ce8:	5c636367 	stclpl	3, cr6, [r3], #-412	; 0xfffffe64
     cec:	2d6d7261 	sfmcs	f7, 2, [sp, #-388]!	; 0xfffffe7c
     cf0:	656e6f6e 	strbvs	r6, [lr, #-3950]!	; 0xfffff092
     cf4:	6261652d 	rsbvs	r6, r1, #188743680	; 0xb400000
     cf8:	30315c69 	eorscc	r5, r1, r9, ror #24
     cfc:	312e332e 			; <UNDEFINED> instruction: 0x312e332e
     d00:	636e695c 	cmnvs	lr, #92, 18	; 0x170000
     d04:	6564756c 	strbvs	r7, [r4, #-1388]!	; 0xfffffa94
     d08:	616d0000 	cmnvs	sp, r0
     d0c:	632e6e69 			; <UNDEFINED> instruction: 0x632e6e69
     d10:	00000100 	andeq	r0, r0, r0, lsl #2
     d14:	6665645f 			; <UNDEFINED> instruction: 0x6665645f
     d18:	746c7561 	strbtvc	r7, [ip], #-1377	; 0xfffffa9f
     d1c:	7079745f 	rsbsvc	r7, r9, pc, asr r4
     d20:	682e7365 	stmdavs	lr!, {r0, r2, r5, r6, r8, r9, ip, sp, lr}
     d24:	00000200 	andeq	r0, r0, r0, lsl #4
     d28:	6474735f 	ldrbtvs	r7, [r4], #-863	; 0xfffffca1
     d2c:	2e746e69 	cdpcs	14, 7, cr6, cr4, cr9, {3}
     d30:	00030068 	andeq	r0, r3, r8, rrx
     d34:	6d747300 	ldclvs	3, cr7, [r4, #-0]
     d38:	31663233 	cmncc	r6, r3, lsr r2
     d3c:	36783330 			; <UNDEFINED> instruction: 0x36783330
     d40:	0400682e 	streq	r6, [r0], #-2094	; 0xfffff7d2
     d44:	78650000 	stmdavc	r5!, {}^	; <UNPREDICTABLE>
     d48:	682e6974 	stmdavs	lr!, {r2, r4, r5, r6, r8, fp, sp, lr}
     d4c:	00000400 	andeq	r0, r0, r0, lsl #8
     d50:	2e64636c 	cdpcs	3, 6, cr6, cr4, cr12, {3}
     d54:	00050068 	andeq	r0, r5, r8, rrx
     d58:	64747300 	ldrbtvs	r7, [r4], #-768	; 0xfffffd00
     d5c:	2e62696c 	vnmulcs.f16	s13, s4, s25	; <UNPREDICTABLE>
     d60:	00060068 	andeq	r0, r6, r8, rrx
     d64:	65656900 	strbvs	r6, [r5, #-2304]!	; 0xfffff700
     d68:	2e706665 	cdpcs	6, 7, cr6, cr0, cr5, {3}
     d6c:	00020068 	andeq	r0, r2, r8, rrx
     d70:	6e615f00 	cdpvs	15, 6, cr5, cr1, cr0, {0}
     d74:	682e6973 	stmdavs	lr!, {r0, r1, r4, r5, r6, r8, fp, sp, lr}
     d78:	00000600 	andeq	r0, r0, r0, lsl #12
     d7c:	6c77656e 	cfldr64vs	mvdx6, [r7], #-440	; 0xfffffe48
     d80:	682e6269 	stmdavs	lr!, {r0, r3, r5, r6, r9, sp, lr}
     d84:	00000700 	andeq	r0, r0, r0, lsl #14
     d88:	77656e5f 			; <UNDEFINED> instruction: 0x77656e5f
     d8c:	5f62696c 	svcpl	0x0062696c
     d90:	73726576 	cmnvc	r2, #494927872	; 0x1d800000
     d94:	2e6e6f69 	cdpcs	15, 6, cr6, cr14, cr9, {3}
     d98:	00060068 	andeq	r0, r6, r8, rrx
     d9c:	6e6f6300 	cdpvs	3, 6, cr6, cr15, cr0, {0}
     da0:	2e676966 	vnmulcs.f16	s13, s14, s13	; <UNPREDICTABLE>
     da4:	00030068 	andeq	r0, r3, r8, rrx
     da8:	61656600 	cmnvs	r5, r0, lsl #12
     dac:	65727574 	ldrbvs	r7, [r2, #-1396]!	; 0xfffffa8c
     db0:	00682e73 	rsbeq	r2, r8, r3, ror lr
     db4:	73000003 	movwvc	r0, #3
     db8:	65646474 	strbvs	r6, [r4, #-1140]!	; 0xfffffb8c
     dbc:	00682e66 	rsbeq	r2, r8, r6, ror #28
     dc0:	72000008 	andvc	r0, r0, #8
     dc4:	746e6565 	strbtvc	r6, [lr], #-1381	; 0xfffffa9b
     dc8:	0300682e 	movweq	r6, #2094	; 0x82e
     dcc:	745f0000 	ldrbvc	r0, [pc], #-0	; dd4 <_Min_Stack_Size+0x9d4>
     dd0:	73657079 	cmnvc	r5, #121	; 0x79
     dd4:	0300682e 	movweq	r6, #2094	; 0x82e
     dd8:	745f0000 	ldrbvc	r0, [pc], #-0	; de0 <_Min_Stack_Size+0x9e0>
     ddc:	73657079 	cmnvc	r5, #121	; 0x79
     de0:	0200682e 	andeq	r6, r0, #3014656	; 0x2e0000
     de4:	6f6c0000 	svcvs	0x006c0000
     de8:	682e6b63 	stmdavs	lr!, {r0, r1, r5, r6, r8, r9, fp, sp, lr}
     dec:	00000300 	andeq	r0, r0, r0, lsl #6
     df0:	65737361 	ldrbvs	r7, [r3, #-865]!	; 0xfffffc9f
     df4:	682e7472 	stmdavs	lr!, {r1, r4, r5, r6, sl, ip, sp, lr}
     df8:	00000600 	andeq	r0, r0, r0, lsl #12
     dfc:	66656463 	strbtvs	r6, [r5], -r3, ror #8
     e00:	00682e73 	rsbeq	r2, r8, r3, ror lr
     e04:	73000003 	movwvc	r0, #3
     e08:	696c6474 	stmdbvs	ip!, {r2, r4, r5, r6, sl, sp, lr}^
     e0c:	00682e62 	rsbeq	r2, r8, r2, ror #28
     e10:	61000002 	tstvs	r0, r2
     e14:	636f6c6c 	cmnvs	pc, #108, 24	; 0x6c00
     e18:	00682e61 	rsbeq	r2, r8, r1, ror #28
     e1c:	73000006 	movwvc	r0, #6
     e20:	6e697274 	mcrvs	2, 3, r7, cr9, cr4, {3}
     e24:	00682e67 	rsbeq	r2, r8, r7, ror #28
     e28:	5f000006 	svcpl	0x00000006
     e2c:	61636f6c 	cmnvs	r3, ip, ror #30
     e30:	682e656c 	stmdavs	lr!, {r2, r3, r5, r6, r8, sl, sp, lr}
     e34:	00000300 	andeq	r0, r0, r0, lsl #6
     e38:	69727473 	ldmdbvs	r2!, {r0, r1, r4, r5, r6, sl, ip, sp, lr}^
     e3c:	2e73676e 	cdpcs	7, 7, cr6, cr3, cr14, {3}
     e40:	00060068 	andeq	r0, r6, r8, rrx
     e44:	72747300 	rsbsvc	r7, r4, #0, 6
     e48:	2e676e69 	cdpcs	14, 6, cr6, cr7, cr9, {3}
     e4c:	00030068 	andeq	r0, r3, r8, rrx
     e50:	64747300 	ldrbtvs	r7, [r4], #-768	; 0xfffffd00
     e54:	2e746e69 	cdpcs	14, 7, cr6, cr4, cr9, {3}
     e58:	00080068 	andeq	r0, r8, r8, rrx
     e5c:	64747300 	ldrbtvs	r7, [r4], #-768	; 0xfffffd00
     e60:	2e746e69 	cdpcs	14, 7, cr6, cr4, cr9, {3}
     e64:	00060068 	andeq	r0, r6, r8, rrx
     e68:	6e695f00 	cdpvs	15, 6, cr5, cr9, cr0, {0}
     e6c:	70757374 	rsbsvc	r7, r5, r4, ror r3
     e70:	0300682e 	movweq	r6, #2094	; 0x82e
     e74:	70670000 	rsbvc	r0, r7, r0
     e78:	682e6f69 	stmdavs	lr!, {r0, r3, r5, r6, r8, r9, sl, fp, sp, lr}
     e7c:	00000400 	andeq	r0, r0, r0, lsl #8
     e80:	69647473 	stmdbvs	r4!, {r0, r1, r4, r5, r6, sl, ip, sp, lr}^
     e84:	00682e6f 	rsbeq	r2, r8, pc, ror #28
     e88:	73000006 	movwvc	r0, #6
     e8c:	72616474 	rsbvc	r6, r1, #116, 8	; 0x74000000
     e90:	00682e67 	rsbeq	r2, r8, r7, ror #28
     e94:	74000008 	strvc	r0, [r0], #-8
     e98:	73657079 	cmnvc	r5, #121	; 0x79
     e9c:	0300682e 	movweq	r6, #2094	; 0x82e
     ea0:	6e650000 	cdpvs	0, 6, cr0, cr5, cr0, {0}
     ea4:	6e616964 	vnmulvs.f16	s13, s2, s9	; <UNPREDICTABLE>
     ea8:	0200682e 	andeq	r6, r0, #3014656	; 0x2e0000
     eac:	655f0000 	ldrbvs	r0, [pc, #-0]	; eb4 <_Min_Stack_Size+0xab4>
     eb0:	6169646e 	cmnvs	r9, lr, ror #8
     eb4:	00682e6e 	rsbeq	r2, r8, lr, ror #28
     eb8:	73000002 	movwvc	r0, #2
     ebc:	63656c65 	cmnvs	r5, #25856	; 0x6500
     ec0:	00682e74 	rsbeq	r2, r8, r4, ror lr
     ec4:	5f000003 	svcpl	0x00000003
     ec8:	73676973 	cmnvc	r7, #1884160	; 0x1cc000
     ecc:	682e7465 	stmdavs	lr!, {r0, r2, r5, r6, sl, ip, sp, lr}
     ed0:	00000300 	andeq	r0, r0, r0, lsl #6
     ed4:	6d69745f 	cfstrdvs	mvd7, [r9, #-380]!	; 0xfffffe84
     ed8:	6c617665 	stclvs	6, cr7, [r1], #-404	; 0xfffffe6c
     edc:	0300682e 	movweq	r6, #2094	; 0x82e
     ee0:	69740000 	ldmdbvs	r4!, {}^	; <UNPREDICTABLE>
     ee4:	7073656d 	rsbsvc	r6, r3, sp, ror #10
     ee8:	682e6365 	stmdavs	lr!, {r0, r2, r5, r6, r8, r9, sp, lr}
     eec:	00000300 	andeq	r0, r0, r0, lsl #6
     ef0:	6d69745f 	cfstrdvs	mvd7, [r9, #-380]!	; 0xfffffe84
     ef4:	65707365 	ldrbvs	r7, [r0, #-869]!	; 0xfffffc9b
     ef8:	00682e63 	rsbeq	r2, r8, r3, ror #28
     efc:	5f000003 	svcpl	0x00000003
     f00:	72687470 	rsbvc	r7, r8, #112, 8	; 0x70000000
     f04:	74646165 	strbtvc	r6, [r4], #-357	; 0xfffffe9b
     f08:	73657079 	cmnvc	r5, #121	; 0x79
     f0c:	0300682e 	movweq	r6, #2094	; 0x82e
     f10:	63730000 	cmnvs	r3, #0
     f14:	2e646568 	cdpcs	5, 6, cr6, cr4, cr8, {3}
     f18:	00030068 	andeq	r0, r3, r8, rrx
     f1c:	70797400 	rsbsvc	r7, r9, r0, lsl #8
     f20:	682e7365 	stmdavs	lr!, {r0, r2, r5, r6, r8, r9, ip, sp, lr}
     f24:	00000200 	andeq	r0, r0, r0, lsl #4
     f28:	69647473 	stmdbvs	r4!, {r0, r1, r4, r5, r6, sl, ip, sp, lr}^
     f2c:	00682e6f 	rsbeq	r2, r8, pc, ror #28
     f30:	00000003 	andeq	r0, r0, r3
     f34:	05001e05 	streq	r1, [r0, #-3589]	; 0xfffff1fb
     f38:	0003b802 	andeq	fp, r3, r2, lsl #16
     f3c:	01220308 			; <UNDEFINED> instruction: 0x01220308
     f40:	052f0b05 	streq	r0, [pc, #-2821]!	; 443 <_Min_Stack_Size+0x43>
     f44:	4d3e3d02 	ldcmi	13, cr3, [lr, #-8]!
     f48:	023d0105 	eorseq	r0, sp, #1073741825	; 0x40000001
     f4c:	01010009 	tsteq	r1, r9
     f50:	05000105 	streq	r0, [r0, #-261]	; 0xfffffefb
     f54:	0003e802 	andeq	lr, r3, r2, lsl #16
     f58:	012f0308 			; <UNDEFINED> instruction: 0x012f0308
     f5c:	683e0205 	ldmdavs	lr!, {r0, r2, r9}
     f60:	05661505 	strbeq	r1, [r6, #-1285]!	; 0xfffffafb
     f64:	18053014 	stmdane	r5, {r2, r4, ip, sp}
     f68:	2f170567 	svccs	0x00170567
     f6c:	052f1205 	streq	r1, [pc, #-517]!	; d6f <_Min_Stack_Size+0x96f>
     f70:	0b052f02 	bleq	14cb80 <_Min_Stack_Size+0x14c780>
     f74:	3d020559 	cfstr32cc	mvfx0, [r2, #-356]	; 0xfffffe9c
     f78:	06054c3d 			; <UNDEFINED> instruction: 0x06054c3d
     f7c:	2e05053f 	mcrcs	5, 0, r0, cr5, cr15, {1}
     f80:	052f0405 	streq	r0, [pc, #-1029]!	; b83 <_Min_Stack_Size+0x783>
     f84:	05052f0d 	streq	r2, [r5, #-3853]	; 0xfffff0f3
     f88:	000c023a 	andeq	r0, ip, sl, lsr r2
     f8c:	00800101 	addeq	r0, r0, r1, lsl #2
     f90:	00030000 	andeq	r0, r3, r0
     f94:	00000039 	andeq	r0, r0, r9, lsr r0
     f98:	0efb0102 	cdpeq	1, 15, cr0, cr11, cr2, {0}
     f9c:	0101000d 	tsteq	r1, sp
     fa0:	00000101 	andeq	r0, r0, r1, lsl #2
     fa4:	00000100 	andeq	r0, r0, r0, lsl #2
     fa8:	2f2e2e01 	svccs	0x002e2e01
     fac:	72617453 	rsbvc	r7, r1, #1392508928	; 0x53000000
     fb0:	00707574 	rsbseq	r7, r0, r4, ror r5
     fb4:	61747300 	cmnvs	r4, r0, lsl #6
     fb8:	70757472 	rsbsvc	r7, r5, r2, ror r4
     fbc:	6d74735f 	ldclvs	3, cr7, [r4, #-380]!	; 0xfffffe84
     fc0:	31663233 	cmncc	r6, r3, lsr r2
     fc4:	38633330 	stmdacc	r3!, {r4, r5, r8, r9, ip, sp}^
     fc8:	732e7874 			; <UNDEFINED> instruction: 0x732e7874
     fcc:	00000100 	andeq	r0, r0, r0, lsl #2
     fd0:	02050000 	andeq	r0, r5, #0
     fd4:	08000470 	stmdaeq	r0, {r4, r5, r6, sl}
     fd8:	21013903 	tstcs	r1, r3, lsl #18
     fdc:	21213122 			; <UNDEFINED> instruction: 0x21213122
     fe0:	21232121 			; <UNDEFINED> instruction: 0x21232121
     fe4:	21212321 			; <UNDEFINED> instruction: 0x21212321
     fe8:	21212123 			; <UNDEFINED> instruction: 0x21212123
     fec:	21232123 			; <UNDEFINED> instruction: 0x21232123
     ff0:	03313023 	teqeq	r1, #35	; 0x23
     ff4:	2f342056 	svccs	0x00342056
     ff8:	2e0f032f 	cdpcs	3, 0, cr0, cr15, cr15, {1}
     ffc:	0002022f 	andeq	r0, r2, pc, lsr #4
    1000:	05000101 	streq	r0, [r0, #-257]	; 0xfffffeff
    1004:	0004c002 	andeq	ip, r4, r2
    1008:	00f20308 	rscseq	r0, r2, r8, lsl #6
    100c:	00010201 	andeq	r0, r1, r1, lsl #4
    1010:	09a00101 	stmibeq	r0!, {r0, r8}
    1014:	00030000 	andeq	r0, r3, r0
    1018:	0000056d 	andeq	r0, r0, sp, ror #10
    101c:	0efb0102 	cdpeq	1, 15, cr0, cr11, cr2, {0}
    1020:	0101000d 	tsteq	r1, sp
    1024:	00000101 	andeq	r0, r0, r1, lsl #2
    1028:	00000100 	andeq	r0, r0, r0, lsl #2
    102c:	2f2e2e01 	svccs	0x002e2e01
    1030:	336d7453 	cmncc	sp, #1392508928	; 0x53000000
    1034:	30314632 	eorscc	r4, r1, r2, lsr r6
    1038:	74386333 	ldrtvc	r6, [r8], #-819	; 0xfffffccd
    103c:	72445f36 	subvc	r5, r4, #54, 30	; 0xd8
    1040:	72657669 	rsbvc	r7, r5, #110100480	; 0x6900000
    1044:	58452f73 	stmdapl	r5, {r0, r1, r4, r5, r6, r8, r9, sl, fp, sp}^
    1048:	63004954 	movwvs	r4, #2388	; 0x954
    104c:	74735c3a 	ldrbtvc	r5, [r3], #-3130	; 0xfffff3c6
    1050:	6d74735c 	ldclvs	3, cr7, [r4, #-368]!	; 0xfffffe90
    1054:	75633233 	strbvc	r3, [r3, #-563]!	; 0xfffffdcd
    1058:	64696562 	strbtvs	r6, [r9], #-1378	; 0xfffffa9e
    105c:	2e315f65 	cdpcs	15, 3, cr5, cr1, cr5, {3}
    1060:	302e3231 	eorcc	r3, lr, r1, lsr r2
    1064:	6d74735c 	ldclvs	3, cr7, [r4, #-368]!	; 0xfffffe90
    1068:	75633233 	strbvc	r3, [r3, #-563]!	; 0xfffffdcd
    106c:	64696562 	strbtvs	r6, [r9], #-1378	; 0xfffffa9e
    1070:	6c705c65 	ldclvs	12, cr5, [r0], #-404	; 0xfffffe6c
    1074:	6e696775 	mcrvs	7, 3, r6, cr9, cr5, {3}
    1078:	6f635c73 	svcvs	0x00635c73
    107c:	74732e6d 	ldrbtvc	r2, [r3], #-3693	; 0xfffff193
    1080:	6d74732e 	ldclvs	3, cr7, [r4, #-184]!	; 0xffffff48
    1084:	75633233 	strbvc	r3, [r3, #-563]!	; 0xfffffdcd
    1088:	692e6562 	stmdbvs	lr!, {r1, r5, r6, r8, sl, sp, lr}
    108c:	6d2e6564 	cfstr32vs	mvfx6, [lr, #-400]!	; 0xfffffe70
    1090:	652e7563 	strvs	r7, [lr, #-1379]!	; 0xfffffa9d
    1094:	72657478 	rsbvc	r7, r5, #120, 8	; 0x78000000
    1098:	746c616e 	strbtvc	r6, [ip], #-366	; 0xfffffe92
    109c:	736c6f6f 	cmnvc	ip, #444	; 0x1bc
    10a0:	756e672e 	strbvc	r6, [lr, #-1838]!	; 0xfffff8d2
    10a4:	6f6f742d 	svcvs	0x006f742d
    10a8:	662d736c 	strtvs	r7, [sp], -ip, ror #6
    10ac:	732d726f 			; <UNDEFINED> instruction: 0x732d726f
    10b0:	32336d74 	eorscc	r6, r3, #116, 26	; 0x1d00
    10b4:	2e30312e 	rsfcssp	f3, f0, #0.5
    10b8:	30322d33 	eorscc	r2, r2, r3, lsr sp
    10bc:	312e3132 			; <UNDEFINED> instruction: 0x312e3132
    10c0:	69772e30 	ldmdbvs	r7!, {r4, r5, r9, sl, fp, sp}^
    10c4:	5f32336e 	svcpl	0x0032336e
    10c8:	2e302e31 	mrccs	14, 1, r2, cr0, cr1, {1}
    10cc:	2e303032 	mrccs	0, 1, r3, cr0, cr2, {1}
    10d0:	33323032 	teqcc	r2, #50	; 0x32
    10d4:	36313130 			; <UNDEFINED> instruction: 0x36313130
    10d8:	33303031 	teqcc	r0, #49	; 0x31
    10dc:	6f6f745c 	svcvs	0x006f745c
    10e0:	615c736c 	cmpvs	ip, ip, ror #6
    10e4:	6e2d6d72 	mcrvs	13, 1, r6, cr13, cr2, {3}
    10e8:	2d656e6f 	stclcs	14, cr6, [r5, #-444]!	; 0xfffffe44
    10ec:	69626165 	stmdbvs	r2!, {r0, r2, r5, r6, r8, sp, lr}^
    10f0:	636e695c 	cmnvs	lr, #92, 18	; 0x170000
    10f4:	6564756c 	strbvs	r7, [r4, #-1388]!	; 0xfffffa94
    10f8:	63616d5c 	cmnvs	r1, #92, 26	; 0x1700
    10fc:	656e6968 	strbvs	r6, [lr, #-2408]!	; 0xfffff698
    1100:	5c3a6300 	ldcpl	3, cr6, [sl], #-0
    1104:	735c7473 	cmpvc	ip, #1929379840	; 0x73000000
    1108:	32336d74 	eorscc	r6, r3, #116, 26	; 0x1d00
    110c:	65627563 	strbvs	r7, [r2, #-1379]!	; 0xfffffa9d
    1110:	5f656469 	svcpl	0x00656469
    1114:	32312e31 	eorscc	r2, r1, #784	; 0x310
    1118:	735c302e 	cmpvc	ip, #46	; 0x2e
    111c:	32336d74 	eorscc	r6, r3, #116, 26	; 0x1d00
    1120:	65627563 	strbvs	r7, [r2, #-1379]!	; 0xfffffa9d
    1124:	5c656469 	cfstrdpl	mvd6, [r5], #-420	; 0xfffffe5c
    1128:	67756c70 			; <UNDEFINED> instruction: 0x67756c70
    112c:	5c736e69 	ldclpl	14, cr6, [r3], #-420	; 0xfffffe5c
    1130:	2e6d6f63 	cdpcs	15, 6, cr6, cr13, cr3, {3}
    1134:	732e7473 			; <UNDEFINED> instruction: 0x732e7473
    1138:	32336d74 	eorscc	r6, r3, #116, 26	; 0x1d00
    113c:	65627563 	strbvs	r7, [r2, #-1379]!	; 0xfffffa9d
    1140:	6564692e 	strbvs	r6, [r4, #-2350]!	; 0xfffff6d2
    1144:	75636d2e 	strbvc	r6, [r3, #-3374]!	; 0xfffff2d2
    1148:	7478652e 	ldrbtvc	r6, [r8], #-1326	; 0xfffffad2
    114c:	616e7265 	cmnvs	lr, r5, ror #4
    1150:	6f6f746c 	svcvs	0x006f746c
    1154:	672e736c 	strvs	r7, [lr, -ip, ror #6]!
    1158:	742d756e 	strtvc	r7, [sp], #-1390	; 0xfffffa92
    115c:	736c6f6f 	cmnvc	ip, #444	; 0x1bc
    1160:	726f662d 	rsbvc	r6, pc, #47185920	; 0x2d00000
    1164:	6d74732d 	ldclvs	3, cr7, [r4, #-180]!	; 0xffffff4c
    1168:	312e3233 			; <UNDEFINED> instruction: 0x312e3233
    116c:	2d332e30 	ldccs	14, cr2, [r3, #-192]!	; 0xffffff40
    1170:	31323032 	teqcc	r2, r2, lsr r0
    1174:	2e30312e 	rsfcssp	f3, f0, #0.5
    1178:	336e6977 	cmncc	lr, #1949696	; 0x1dc000
    117c:	2e315f32 	mrccs	15, 1, r5, cr1, cr2, {1}
    1180:	30322e30 	eorscc	r2, r2, r0, lsr lr
    1184:	30322e30 	eorscc	r2, r2, r0, lsr lr
    1188:	31303332 	teqcc	r0, r2, lsr r3
    118c:	30313631 	eorscc	r3, r1, r1, lsr r6
    1190:	745c3330 	ldrbvc	r3, [ip], #-816	; 0xfffffcd0
    1194:	736c6f6f 	cmnvc	ip, #444	; 0x1bc
    1198:	6d72615c 	ldfvse	f6, [r2, #-368]!	; 0xfffffe90
    119c:	6e6f6e2d 	cdpvs	14, 6, cr6, cr15, cr13, {1}
    11a0:	61652d65 	cmnvs	r5, r5, ror #26
    11a4:	695c6962 	ldmdbvs	ip, {r1, r5, r6, r8, fp, sp, lr}^
    11a8:	756c636e 	strbvc	r6, [ip, #-878]!	; 0xfffffc92
    11ac:	735c6564 	cmpvc	ip, #100, 10	; 0x19000000
    11b0:	44007379 	strmi	r7, [r0], #-889	; 0xfffffc87
    11b4:	6d652f3a 	stclvs	15, cr2, [r5, #-232]!	; 0xffffff18
    11b8:	65646562 	strbvs	r6, [r4, #-1378]!	; 0xfffffa9e
    11bc:	79532064 	ldmdbvc	r3, {r2, r5, r6, sp}^
    11c0:	6d657473 	cfstrdvs	mvd7, [r5, #-460]!	; 0xfffffe34
    11c4:	54532f73 	ldrbpl	r2, [r3], #-3955	; 0xfffff08d
    11c8:	6972644d 	ldmdbvs	r2!, {r0, r2, r3, r6, sl, sp, lr}^
    11cc:	73726576 	cmnvc	r2, #494927872	; 0x1d800000
    11d0:	6d72412f 	ldfvse	f4, [r2, #-188]!	; 0xffffff44
    11d4:	646f4d5f 	strbtvs	r4, [pc], #-3423	; 11dc <_Min_Stack_Size+0xddc>
    11d8:	532f7365 			; <UNDEFINED> instruction: 0x532f7365
    11dc:	32336d74 	eorscc	r6, r3, #116, 26	; 0x1d00
    11e0:	33303146 	teqcc	r0, #-2147483631	; 0x80000011
    11e4:	36743863 	ldrbtcc	r3, [r4], -r3, ror #16
    11e8:	6972445f 	ldmdbvs	r2!, {r0, r1, r2, r3, r4, r6, sl, lr}^
    11ec:	73726576 	cmnvc	r2, #494927872	; 0x1d800000
    11f0:	434e492f 	movtmi	r4, #59695	; 0xe92f
    11f4:	5c3a6300 	ldcpl	3, cr6, [sl], #-0
    11f8:	735c7473 	cmpvc	ip, #1929379840	; 0x73000000
    11fc:	32336d74 	eorscc	r6, r3, #116, 26	; 0x1d00
    1200:	65627563 	strbvs	r7, [r2, #-1379]!	; 0xfffffa9d
    1204:	5f656469 	svcpl	0x00656469
    1208:	32312e31 	eorscc	r2, r1, #784	; 0x310
    120c:	735c302e 	cmpvc	ip, #46	; 0x2e
    1210:	32336d74 	eorscc	r6, r3, #116, 26	; 0x1d00
    1214:	65627563 	strbvs	r7, [r2, #-1379]!	; 0xfffffa9d
    1218:	5c656469 	cfstrdpl	mvd6, [r5], #-420	; 0xfffffe5c
    121c:	67756c70 			; <UNDEFINED> instruction: 0x67756c70
    1220:	5c736e69 	ldclpl	14, cr6, [r3], #-420	; 0xfffffe5c
    1224:	2e6d6f63 	cdpcs	15, 6, cr6, cr13, cr3, {3}
    1228:	732e7473 			; <UNDEFINED> instruction: 0x732e7473
    122c:	32336d74 	eorscc	r6, r3, #116, 26	; 0x1d00
    1230:	65627563 	strbvs	r7, [r2, #-1379]!	; 0xfffffa9d
    1234:	6564692e 	strbvs	r6, [r4, #-2350]!	; 0xfffff6d2
    1238:	75636d2e 	strbvc	r6, [r3, #-3374]!	; 0xfffff2d2
    123c:	7478652e 	ldrbtvc	r6, [r8], #-1326	; 0xfffffad2
    1240:	616e7265 	cmnvs	lr, r5, ror #4
    1244:	6f6f746c 	svcvs	0x006f746c
    1248:	672e736c 	strvs	r7, [lr, -ip, ror #6]!
    124c:	742d756e 	strtvc	r7, [sp], #-1390	; 0xfffffa92
    1250:	736c6f6f 	cmnvc	ip, #444	; 0x1bc
    1254:	726f662d 	rsbvc	r6, pc, #47185920	; 0x2d00000
    1258:	6d74732d 	ldclvs	3, cr7, [r4, #-180]!	; 0xffffff4c
    125c:	312e3233 			; <UNDEFINED> instruction: 0x312e3233
    1260:	2d332e30 	ldccs	14, cr2, [r3, #-192]!	; 0xffffff40
    1264:	31323032 	teqcc	r2, r2, lsr r0
    1268:	2e30312e 	rsfcssp	f3, f0, #0.5
    126c:	336e6977 	cmncc	lr, #1949696	; 0x1dc000
    1270:	2e315f32 	mrccs	15, 1, r5, cr1, cr2, {1}
    1274:	30322e30 	eorscc	r2, r2, r0, lsr lr
    1278:	30322e30 	eorscc	r2, r2, r0, lsr lr
    127c:	31303332 	teqcc	r0, r2, lsr r3
    1280:	30313631 	eorscc	r3, r1, r1, lsr r6
    1284:	745c3330 	ldrbvc	r3, [ip], #-816	; 0xfffffcd0
    1288:	736c6f6f 	cmnvc	ip, #444	; 0x1bc
    128c:	6d72615c 	ldfvse	f6, [r2, #-368]!	; 0xfffffe90
    1290:	6e6f6e2d 	cdpvs	14, 6, cr6, cr15, cr13, {1}
    1294:	61652d65 	cmnvs	r5, r5, ror #26
    1298:	695c6962 	ldmdbvs	ip, {r1, r5, r6, r8, fp, sp, lr}^
    129c:	756c636e 	strbvc	r6, [ip, #-878]!	; 0xfffffc92
    12a0:	63006564 	movwvs	r6, #1380	; 0x564
    12a4:	74735c3a 	ldrbtvc	r5, [r3], #-3130	; 0xfffff3c6
    12a8:	6d74735c 	ldclvs	3, cr7, [r4, #-368]!	; 0xfffffe90
    12ac:	75633233 	strbvc	r3, [r3, #-563]!	; 0xfffffdcd
    12b0:	64696562 	strbtvs	r6, [r9], #-1378	; 0xfffffa9e
    12b4:	2e315f65 	cdpcs	15, 3, cr5, cr1, cr5, {3}
    12b8:	302e3231 	eorcc	r3, lr, r1, lsr r2
    12bc:	6d74735c 	ldclvs	3, cr7, [r4, #-368]!	; 0xfffffe90
    12c0:	75633233 	strbvc	r3, [r3, #-563]!	; 0xfffffdcd
    12c4:	64696562 	strbtvs	r6, [r9], #-1378	; 0xfffffa9e
    12c8:	6c705c65 	ldclvs	12, cr5, [r0], #-404	; 0xfffffe6c
    12cc:	6e696775 	mcrvs	7, 3, r6, cr9, cr5, {3}
    12d0:	6f635c73 	svcvs	0x00635c73
    12d4:	74732e6d 	ldrbtvc	r2, [r3], #-3693	; 0xfffff193
    12d8:	6d74732e 	ldclvs	3, cr7, [r4, #-184]!	; 0xffffff48
    12dc:	75633233 	strbvc	r3, [r3, #-563]!	; 0xfffffdcd
    12e0:	692e6562 	stmdbvs	lr!, {r1, r5, r6, r8, sl, sp, lr}
    12e4:	6d2e6564 	cfstr32vs	mvfx6, [lr, #-400]!	; 0xfffffe70
    12e8:	652e7563 	strvs	r7, [lr, #-1379]!	; 0xfffffa9d
    12ec:	72657478 	rsbvc	r7, r5, #120, 8	; 0x78000000
    12f0:	746c616e 	strbtvc	r6, [ip], #-366	; 0xfffffe92
    12f4:	736c6f6f 	cmnvc	ip, #444	; 0x1bc
    12f8:	756e672e 	strbvc	r6, [lr, #-1838]!	; 0xfffff8d2
    12fc:	6f6f742d 	svcvs	0x006f742d
    1300:	662d736c 	strtvs	r7, [sp], -ip, ror #6
    1304:	732d726f 			; <UNDEFINED> instruction: 0x732d726f
    1308:	32336d74 	eorscc	r6, r3, #116, 26	; 0x1d00
    130c:	2e30312e 	rsfcssp	f3, f0, #0.5
    1310:	30322d33 	eorscc	r2, r2, r3, lsr sp
    1314:	312e3132 			; <UNDEFINED> instruction: 0x312e3132
    1318:	69772e30 	ldmdbvs	r7!, {r4, r5, r9, sl, fp, sp}^
    131c:	5f32336e 	svcpl	0x0032336e
    1320:	2e302e31 	mrccs	14, 1, r2, cr0, cr1, {1}
    1324:	2e303032 	mrccs	0, 1, r3, cr0, cr2, {1}
    1328:	33323032 	teqcc	r2, #50	; 0x32
    132c:	36313130 			; <UNDEFINED> instruction: 0x36313130
    1330:	33303031 	teqcc	r0, #49	; 0x31
    1334:	6f6f745c 	svcvs	0x006f745c
    1338:	615c736c 	cmpvs	ip, ip, ror #6
    133c:	6e2d6d72 	mcrvs	13, 1, r6, cr13, cr2, {3}
    1340:	2d656e6f 	stclcs	14, cr6, [r5, #-444]!	; 0xfffffe44
    1344:	69626165 	stmdbvs	r2!, {r0, r2, r5, r6, r8, sp, lr}^
    1348:	636e695c 	cmnvs	lr, #92, 18	; 0x170000
    134c:	6564756c 	strbvs	r7, [r4, #-1388]!	; 0xfffffa94
    1350:	77656e5c 			; <UNDEFINED> instruction: 0x77656e5c
    1354:	2d62696c 			; <UNDEFINED> instruction: 0x2d62696c
    1358:	6f6e616e 	svcvs	0x006e616e
    135c:	5c3a6300 	ldcpl	3, cr6, [sl], #-0
    1360:	735c7473 	cmpvc	ip, #1929379840	; 0x73000000
    1364:	32336d74 	eorscc	r6, r3, #116, 26	; 0x1d00
    1368:	65627563 	strbvs	r7, [r2, #-1379]!	; 0xfffffa9d
    136c:	5f656469 	svcpl	0x00656469
    1370:	32312e31 	eorscc	r2, r1, #784	; 0x310
    1374:	735c302e 	cmpvc	ip, #46	; 0x2e
    1378:	32336d74 	eorscc	r6, r3, #116, 26	; 0x1d00
    137c:	65627563 	strbvs	r7, [r2, #-1379]!	; 0xfffffa9d
    1380:	5c656469 	cfstrdpl	mvd6, [r5], #-420	; 0xfffffe5c
    1384:	67756c70 			; <UNDEFINED> instruction: 0x67756c70
    1388:	5c736e69 	ldclpl	14, cr6, [r3], #-420	; 0xfffffe5c
    138c:	2e6d6f63 	cdpcs	15, 6, cr6, cr13, cr3, {3}
    1390:	732e7473 			; <UNDEFINED> instruction: 0x732e7473
    1394:	32336d74 	eorscc	r6, r3, #116, 26	; 0x1d00
    1398:	65627563 	strbvs	r7, [r2, #-1379]!	; 0xfffffa9d
    139c:	6564692e 	strbvs	r6, [r4, #-2350]!	; 0xfffff6d2
    13a0:	75636d2e 	strbvc	r6, [r3, #-3374]!	; 0xfffff2d2
    13a4:	7478652e 	ldrbtvc	r6, [r8], #-1326	; 0xfffffad2
    13a8:	616e7265 	cmnvs	lr, r5, ror #4
    13ac:	6f6f746c 	svcvs	0x006f746c
    13b0:	672e736c 	strvs	r7, [lr, -ip, ror #6]!
    13b4:	742d756e 	strtvc	r7, [sp], #-1390	; 0xfffffa92
    13b8:	736c6f6f 	cmnvc	ip, #444	; 0x1bc
    13bc:	726f662d 	rsbvc	r6, pc, #47185920	; 0x2d00000
    13c0:	6d74732d 	ldclvs	3, cr7, [r4, #-180]!	; 0xffffff4c
    13c4:	312e3233 			; <UNDEFINED> instruction: 0x312e3233
    13c8:	2d332e30 	ldccs	14, cr2, [r3, #-192]!	; 0xffffff40
    13cc:	31323032 	teqcc	r2, r2, lsr r0
    13d0:	2e30312e 	rsfcssp	f3, f0, #0.5
    13d4:	336e6977 	cmncc	lr, #1949696	; 0x1dc000
    13d8:	2e315f32 	mrccs	15, 1, r5, cr1, cr2, {1}
    13dc:	30322e30 	eorscc	r2, r2, r0, lsr lr
    13e0:	30322e30 	eorscc	r2, r2, r0, lsr lr
    13e4:	31303332 	teqcc	r0, r2, lsr r3
    13e8:	30313631 	eorscc	r3, r1, r1, lsr r6
    13ec:	745c3330 	ldrbvc	r3, [ip], #-816	; 0xfffffcd0
    13f0:	736c6f6f 	cmnvc	ip, #444	; 0x1bc
    13f4:	62696c5c 	rsbvs	r6, r9, #92, 24	; 0x5c00
    13f8:	6363675c 	cmnvs	r3, #92, 14	; 0x1700000
    13fc:	6d72615c 	ldfvse	f6, [r2, #-368]!	; 0xfffffe90
    1400:	6e6f6e2d 	cdpvs	14, 6, cr6, cr15, cr13, {1}
    1404:	61652d65 	cmnvs	r5, r5, ror #26
    1408:	315c6962 	cmpcc	ip, r2, ror #18
    140c:	2e332e30 	mrccs	14, 1, r2, cr3, cr0, {1}
    1410:	6e695c31 	mcrvs	12, 3, r5, cr9, cr1, {1}
    1414:	64756c63 	ldrbtvs	r6, [r5], #-3171	; 0xfffff39d
    1418:	65000065 	strvs	r0, [r0, #-101]	; 0xffffff9b
    141c:	2e697478 	mcrcs	4, 3, r7, cr9, cr8, {3}
    1420:	00010063 	andeq	r0, r1, r3, rrx
    1424:	65645f00 	strbvs	r5, [r4, #-3840]!	; 0xfffff100
    1428:	6c756166 	ldfvse	f6, [r5], #-408	; 0xfffffe68
    142c:	79745f74 	ldmdbvc	r4!, {r2, r4, r5, r6, r8, r9, sl, fp, ip, lr}^
    1430:	2e736570 	mrccs	5, 3, r6, cr3, cr0, {3}
    1434:	00020068 	andeq	r0, r2, r8, rrx
    1438:	74735f00 	ldrbtvc	r5, [r3], #-3840	; 0xfffff100
    143c:	746e6964 	strbtvc	r6, [lr], #-2404	; 0xfffff69c
    1440:	0300682e 	movweq	r6, #2094	; 0x82e
    1444:	74730000 	ldrbtvc	r0, [r3], #-0
    1448:	6632336d 	ldrtvs	r3, [r2], -sp, ror #6
    144c:	78333031 	ldmdavc	r3!, {r0, r4, r5, ip, sp}
    1450:	00682e36 	rsbeq	r2, r8, r6, lsr lr
    1454:	67000004 	strvs	r0, [r0, -r4]
    1458:	2e6f6970 			; <UNDEFINED> instruction: 0x2e6f6970
    145c:	00040068 	andeq	r0, r4, r8, rrx
    1460:	74786500 	ldrbtvc	r6, [r8], #-1280	; 0xfffffb00
    1464:	00682e69 	rsbeq	r2, r8, r9, ror #28
    1468:	73000004 	movwvc	r0, #4
    146c:	696c6474 	stmdbvs	ip!, {r2, r4, r5, r6, sl, sp, lr}^
    1470:	00682e62 	rsbeq	r2, r8, r2, ror #28
    1474:	69000005 	stmdbvs	r0, {r0, r2}
    1478:	66656565 	strbtvs	r6, [r5], -r5, ror #10
    147c:	00682e70 	rsbeq	r2, r8, r0, ror lr
    1480:	5f000002 	svcpl	0x00000002
    1484:	69736e61 	ldmdbvs	r3!, {r0, r5, r6, r9, sl, fp, sp, lr}^
    1488:	0500682e 	streq	r6, [r0, #-2094]	; 0xfffff7d2
    148c:	656e0000 	strbvs	r0, [lr, #-0]!
    1490:	62696c77 	rsbvs	r6, r9, #30464	; 0x7700
    1494:	0600682e 	streq	r6, [r0], -lr, lsr #16
    1498:	6e5f0000 	cdpvs	0, 5, cr0, cr15, cr0, {0}
    149c:	696c7765 	stmdbvs	ip!, {r0, r2, r5, r6, r8, r9, sl, ip, sp, lr}^
    14a0:	65765f62 	ldrbvs	r5, [r6, #-3938]!	; 0xfffff09e
    14a4:	6f697372 	svcvs	0x00697372
    14a8:	00682e6e 	rsbeq	r2, r8, lr, ror #28
    14ac:	63000005 	movwvs	r0, #5
    14b0:	69666e6f 	stmdbvs	r6!, {r0, r1, r2, r3, r5, r6, r9, sl, fp, sp, lr}^
    14b4:	00682e67 	rsbeq	r2, r8, r7, ror #28
    14b8:	66000003 	strvs	r0, [r0], -r3
    14bc:	75746165 	ldrbvc	r6, [r4, #-357]!	; 0xfffffe9b
    14c0:	2e736572 	mrccs	5, 3, r6, cr3, cr2, {3}
    14c4:	00030068 	andeq	r0, r3, r8, rrx
    14c8:	64747300 	ldrbtvs	r7, [r4], #-768	; 0xfffffd00
    14cc:	2e666564 	cdpcs	5, 6, cr6, cr6, cr4, {3}
    14d0:	00070068 	andeq	r0, r7, r8, rrx
    14d4:	65657200 	strbvs	r7, [r5, #-512]!	; 0xfffffe00
    14d8:	682e746e 	stmdavs	lr!, {r1, r2, r3, r5, r6, sl, ip, sp, lr}
    14dc:	00000300 	andeq	r0, r0, r0, lsl #6
    14e0:	7079745f 	rsbsvc	r7, r9, pc, asr r4
    14e4:	682e7365 	stmdavs	lr!, {r0, r2, r5, r6, r8, r9, ip, sp, lr}
    14e8:	00000300 	andeq	r0, r0, r0, lsl #6
    14ec:	7079745f 	rsbsvc	r7, r9, pc, asr r4
    14f0:	682e7365 	stmdavs	lr!, {r0, r2, r5, r6, r8, r9, ip, sp, lr}
    14f4:	00000200 	andeq	r0, r0, r0, lsl #4
    14f8:	6b636f6c 	blvs	18dd2b0 <_Min_Stack_Size+0x18dceb0>
    14fc:	0300682e 	movweq	r6, #2094	; 0x82e
    1500:	73610000 	cmnvc	r1, #0
    1504:	74726573 	ldrbtvc	r6, [r2], #-1395	; 0xfffffa8d
    1508:	0500682e 	streq	r6, [r0, #-2094]	; 0xfffff7d2
    150c:	64630000 	strbtvs	r0, [r3], #-0
    1510:	2e736665 	cdpcs	6, 7, cr6, cr3, cr5, {3}
    1514:	00030068 	andeq	r0, r3, r8, rrx
    1518:	64747300 	ldrbtvs	r7, [r4], #-768	; 0xfffffd00
    151c:	2e62696c 	vnmulcs.f16	s13, s4, s25	; <UNPREDICTABLE>
    1520:	00020068 	andeq	r0, r2, r8, rrx
    1524:	6c6c6100 	stfvse	f6, [ip], #-0
    1528:	2e61636f 	cdpcs	3, 6, cr6, cr1, cr15, {3}
    152c:	00050068 	andeq	r0, r5, r8, rrx
    1530:	72747300 	rsbsvc	r7, r4, #0, 6
    1534:	2e676e69 	cdpcs	14, 6, cr6, cr7, cr9, {3}
    1538:	00050068 	andeq	r0, r5, r8, rrx
    153c:	6f6c5f00 	svcvs	0x006c5f00
    1540:	656c6163 	strbvs	r6, [ip, #-355]!	; 0xfffffe9d
    1544:	0300682e 	movweq	r6, #2094	; 0x82e
    1548:	74730000 	ldrbtvc	r0, [r3], #-0
    154c:	676e6972 			; <UNDEFINED> instruction: 0x676e6972
    1550:	00682e73 	rsbeq	r2, r8, r3, ror lr
    1554:	73000005 	movwvc	r0, #5
    1558:	6e697274 	mcrvs	2, 3, r7, cr9, cr4, {3}
    155c:	00682e67 	rsbeq	r2, r8, r7, ror #28
    1560:	73000003 	movwvc	r0, #3
    1564:	6e696474 	mcrvs	4, 3, r6, cr9, cr4, {3}
    1568:	00682e74 	rsbeq	r2, r8, r4, ror lr
    156c:	73000007 	movwvc	r0, #7
    1570:	6e696474 	mcrvs	4, 3, r6, cr9, cr4, {3}
    1574:	00682e74 	rsbeq	r2, r8, r4, ror lr
    1578:	5f000005 	svcpl	0x00000005
    157c:	73746e69 	cmnvc	r4, #1680	; 0x690
    1580:	682e7075 	stmdavs	lr!, {r0, r2, r4, r5, r6, ip, sp, lr}
    1584:	00000300 	andeq	r0, r0, r0, lsl #6
    1588:	00010500 	andeq	r0, r1, r0, lsl #10
    158c:	04c40205 	strbeq	r0, [r4], #517	; 0x205
    1590:	1b030800 	blne	c3598 <_Min_Stack_Size+0xc3198>
    1594:	59020501 	stmdbpl	r2, {r0, r8, sl}
    1598:	27020305 	strcs	r0, [r2, -r5, lsl #6]
    159c:	67236715 			; <UNDEFINED> instruction: 0x67236715
    15a0:	67236723 	strvs	r6, [r3, -r3, lsr #14]!
    15a4:	67276723 	strvs	r6, [r7, -r3, lsr #14]!
    15a8:	01056728 	tsteq	r5, r8, lsr #14
    15ac:	00090222 	andeq	r0, r9, r2, lsr #4
    15b0:	01050101 	tsteq	r5, r1, lsl #2
    15b4:	90020500 	andls	r0, r2, r0, lsl #10
    15b8:	03080005 	movweq	r0, #32773	; 0x8005
    15bc:	050100c7 	streq	r0, [r1, #-199]	; 0xffffff39
    15c0:	03055902 	movweq	r5, #22786	; 0x5902
    15c4:	67152702 	ldrvs	r2, [r5, -r2, lsl #14]
    15c8:	67236723 	strvs	r6, [r3, -r3, lsr #14]!
    15cc:	67236723 	strvs	r6, [r3, -r3, lsr #14]!
    15d0:	67286727 	strvs	r6, [r8, -r7, lsr #14]!
    15d4:	02220105 	eoreq	r0, r2, #1073741825	; 0x40000001
    15d8:	01010009 	tsteq	r1, r9
    15dc:	05001c05 	streq	r1, [r0, #-3077]	; 0xfffff3fb
    15e0:	00000002 	andeq	r0, r0, r2
    15e4:	01840300 	orreq	r0, r4, r0, lsl #6
    15e8:	2f060501 	svccs	0x00060501
    15ec:	05200c05 	streq	r0, [r0, #-3077]!	; 0xfffff3fb
    15f0:	0c052f06 	stceq	15, cr2, [r5], {6}
    15f4:	2f060520 	svccs	0x00060520
    15f8:	05200d05 	streq	r0, [r0, #-3333]!	; 0xfffff2fb
    15fc:	0d052f06 	stceq	15, cr2, [r5, #-24]	; 0xffffffe8
    1600:	2f060520 	svccs	0x00060520
    1604:	05200e05 	streq	r0, [r0, #-3589]!	; 0xfffff1fb
    1608:	0b052f06 	bleq	14d228 <_Min_Stack_Size+0x14ce28>
    160c:	41020520 	tstmi	r2, r0, lsr #10
    1610:	67676767 	strbvs	r6, [r7, -r7, ror #14]!
    1614:	01056767 	tsteq	r5, r7, ror #14
    1618:	000b0267 	andeq	r0, fp, r7, ror #4
    161c:	2d050101 	stfcss	f0, [r5, #-4]
    1620:	5c020500 	cfstr32pl	mvfx0, [r2], {-0}
    1624:	03080006 	movweq	r0, #32774	; 0x8006
    1628:	0501019e 	streq	r0, [r1, #-414]	; 0xfffffe62
    162c:	01054b02 	tsteq	r5, r2, lsl #22
    1630:	0004023d 	andeq	r0, r4, sp, lsr r2
    1634:	2a050101 	bcs	141a40 <_Min_Stack_Size+0x141640>
    1638:	74020500 	strvc	r0, [r2], #-1280	; 0xfffffb00
    163c:	03080006 	movweq	r0, #32774	; 0x8006
    1640:	050101a8 	streq	r0, [r1, #-424]	; 0xfffffe58
    1644:	1c054f2c 	stcne	15, cr4, [r5], {44}	; 0x2c
    1648:	2116052e 	tstcs	r6, lr, lsr #10
    164c:	052f0205 	streq	r0, [pc, #-517]!	; 144f <_Min_Stack_Size+0x104f>
    1650:	0a05862c 	beq	162f08 <_Min_Stack_Size+0x162b08>
    1654:	2f30052e 	svccs	0x0030052e
    1658:	052e0a05 	streq	r0, [lr, #-2565]!	; 0xfffff5fb
    165c:	2b055c22 	blcs	1586ec <_Min_Stack_Size+0x1582ec>
    1660:	4a250558 	bmi	942bc8 <_Min_Stack_Size+0x9427c8>
    1664:	672e2205 	strvs	r2, [lr, -r5, lsl #4]!
    1668:	05582705 	ldrbeq	r2, [r8, #-1797]	; 0xfffff8fb
    166c:	27052e58 	smlsdcs	r5, r8, lr, r2
    1670:	01040200 	mrseq	r0, R12_usr
    1674:	0058053c 	subseq	r0, r8, ip, lsr r5
    1678:	2e010402 	cdpcs	4, 0, cr0, cr1, cr2, {0}
    167c:	02002705 	andeq	r2, r0, #1310720	; 0x140000
    1680:	053c0304 	ldreq	r0, [ip, #-772]!	; 0xfffffcfc
    1684:	04020058 	streq	r0, [r2], #-88	; 0xffffffa8
    1688:	27052e03 	strcs	r2, [r5, -r3, lsl #28]
    168c:	05040200 	streq	r0, [r4, #-512]	; 0xfffffe00
    1690:	0058053c 	subseq	r0, r8, ip, lsr r5
    1694:	2e050402 	cdpcs	4, 0, cr0, cr5, cr2, {0}
    1698:	07040200 	streq	r0, [r4, -r0, lsl #4]
    169c:	02003c06 	andeq	r3, r0, #1536	; 0x600
    16a0:	002e0804 	eoreq	r0, lr, r4, lsl #16
    16a4:	2e060402 	cdpcs	4, 0, cr0, cr6, cr2, {0}
    16a8:	04040200 	streq	r0, [r4], #-512	; 0xfffffe00
    16ac:	0402002e 	streq	r0, [r2], #-46	; 0xffffffd2
    16b0:	5f052e02 	svcpl	0x00052e02
    16b4:	10040200 	andne	r0, r4, r0, lsl #4
    16b8:	22052006 	andcs	r2, r5, #6
    16bc:	10040200 	andne	r0, r4, r0, lsl #4
    16c0:	000d053c 	andeq	r0, sp, ip, lsr r5
    16c4:	69100402 	ldmdbvs	r0, {r1, sl}
    16c8:	02002305 	andeq	r2, r0, #335544320	; 0x14000000
    16cc:	052e1004 	streq	r1, [lr, #-4]!
    16d0:	04020013 	streq	r0, [r2], #-19	; 0xffffffed
    16d4:	10053c10 	andne	r3, r5, r0, lsl ip
    16d8:	10040200 	andne	r0, r4, r0, lsl #4
    16dc:	000d052e 	andeq	r0, sp, lr, lsr #10
    16e0:	2e100402 	cfmulscs	mvf0, mvf0, mvf2
    16e4:	10040200 	andne	r0, r4, r0, lsl #4
    16e8:	0023053d 	eoreq	r0, r3, sp, lsr r5
    16ec:	2e100402 	cfmulscs	mvf0, mvf0, mvf2
    16f0:	02001305 	andeq	r1, r0, #335544320	; 0x14000000
    16f4:	053c1004 	ldreq	r1, [ip, #-4]!
    16f8:	04020010 	streq	r0, [r2], #-16
    16fc:	0d052e10 	stceq	14, cr2, [r5, #-64]	; 0xffffffc0
    1700:	10040200 	andne	r0, r4, r0, lsl #4
    1704:	0009052e 	andeq	r0, r9, lr, lsr #10
    1708:	3e100402 	cfmulscc	mvf0, mvf0, mvf2
    170c:	02000405 	andeq	r0, r0, #83886080	; 0x5000000
    1710:	052e1004 	streq	r1, [lr, #-4]!
    1714:	2305300e 	movwcs	r3, #20494	; 0x500e
    1718:	3c13052e 	cfldr32cc	mvfx0, [r3], {46}	; 0x2e
    171c:	4d3c0e05 	ldcmi	14, cr0, [ip, #-20]!	; 0xffffffec
    1720:	052e0905 	streq	r0, [lr, #-2309]!	; 0xfffff6fb
    1724:	2305300e 	movwcs	r3, #20494	; 0x500e
    1728:	3c13052e 	cfldr32cc	mvfx0, [r3], {46}	; 0x2e
    172c:	4d3c0e05 	ldcmi	14, cr0, [ip, #-20]!	; 0xffffffec
    1730:	052e0905 	streq	r0, [lr, #-2309]!	; 0xfffff6fb
    1734:	2305300e 	movwcs	r3, #20494	; 0x500e
    1738:	3c13052e 	cfldr32cc	mvfx0, [r3], {46}	; 0x2e
    173c:	3d3c0e05 	ldccc	14, cr0, [ip, #-20]!	; 0xffffffec
    1740:	052e2305 	streq	r2, [lr, #-773]!	; 0xfffffcfb
    1744:	0e053c13 	mcreq	12, 0, r3, cr5, cr3, {0}
    1748:	4320053c 			; <UNDEFINED> instruction: 0x4320053c
    174c:	053c3c05 	ldreq	r3, [ip, #-3077]!	; 0xfffff3fb
    1750:	09052e36 	stmdbeq	r5, {r1, r2, r4, r5, r9, sl, fp, sp}
    1754:	2e04053f 	mcrcs	5, 0, r0, cr4, cr15, {1}
    1758:	05310d05 	ldreq	r0, [r1, #-3333]!	; 0xfffff2fb
    175c:	11052e21 	tstne	r5, r1, lsr #28
    1760:	3c0d053c 	cfstr32cc	mvfx0, [sp], {60}	; 0x3c
    1764:	053f1d05 	ldreq	r1, [pc, #-3333]!	; a67 <_Min_Stack_Size+0x667>
    1768:	01052e03 	tsteq	r5, r3, lsl #28
    176c:	054a0a03 	strbeq	r0, [sl, #-2563]	; 0xfffff5fd
    1770:	2078030e 	rsbscs	r0, r8, lr, lsl #6
    1774:	052e0905 	streq	r0, [lr, #-2309]!	; 0xfffff6fb
    1778:	2305310d 	movwcs	r3, #20749	; 0x510d
    177c:	3c13052e 	cfldr32cc	mvfx0, [r3], {46}	; 0x2e
    1780:	052e1005 	streq	r1, [lr, #-5]!
    1784:	1e052e0d 	cdpne	14, 0, cr2, cr5, cr13, {0}
    1788:	2e03053f 	mcrcs	5, 0, r0, cr3, cr15, {1}
    178c:	024c0105 	subeq	r0, ip, #1073741825	; 0x40000001
    1790:	01010012 	tsteq	r1, r2, lsl r0
    1794:	05002f05 	streq	r2, [r0, #-3845]	; 0xfffff0fb
    1798:	00000002 	andeq	r0, r0, r2
    179c:	01e80300 	mvneq	r0, r0, lsl #6
    17a0:	4b020501 	blmi	82bac <_Min_Stack_Size+0x827ac>
    17a4:	023d0105 	eorseq	r0, sp, #1073741825	; 0x40000001
    17a8:	01010004 	tsteq	r1, r4
    17ac:	05000105 	streq	r0, [r0, #-261]	; 0xfffffefb
    17b0:	00085402 	andeq	r5, r8, r2, lsl #8
    17b4:	01f70308 	mvnseq	r0, r8, lsl #6
    17b8:	300b0501 	andcc	r0, fp, r1, lsl #10
    17bc:	05671105 	strbeq	r1, [r7, #-261]!	; 0xfffffefb
    17c0:	01052e02 	tsteq	r5, r2, lsl #28
    17c4:	00070221 	andeq	r0, r7, r1, lsr #4
    17c8:	01050101 	tsteq	r5, r1, lsl #2
    17cc:	78020500 	stmdavc	r2, {r8, sl}
    17d0:	03080008 	movweq	r0, #32776	; 0x8008
    17d4:	050101fe 	streq	r0, [r1, #-510]	; 0xfffffe02
    17d8:	11052f0b 	tstne	r5, fp, lsl #30
    17dc:	2e020567 	cfsh32cs	mvfx0, mvfx2, #55
    17e0:	02210105 	eoreq	r0, r1, #1073741825	; 0x40000001
    17e4:	01010007 	tsteq	r1, r7
    17e8:	05000105 	streq	r0, [r0, #-261]	; 0xfffffefb
    17ec:	00089c02 	andeq	r9, r8, r2, lsl #24
    17f0:	02840308 	addeq	r0, r4, #8, 6	; 0x20000000
    17f4:	2f0b0501 	svccs	0x000b0501
    17f8:	05671105 	strbeq	r1, [r7, #-261]!	; 0xfffffefb
    17fc:	01052e02 	tsteq	r5, r2, lsl #28
    1800:	00070221 	andeq	r0, r7, r1, lsr #4
    1804:	01050101 	tsteq	r5, r1, lsl #2
    1808:	c0020500 	andgt	r0, r2, r0, lsl #10
    180c:	03080008 	movweq	r0, #32776	; 0x8008
    1810:	0501028a 	streq	r0, [r1, #-650]	; 0xfffffd76
    1814:	11052f0b 	tstne	r5, fp, lsl #30
    1818:	2e020567 	cfsh32cs	mvfx0, mvfx2, #55
    181c:	02220105 	eoreq	r0, r2, #1073741825	; 0x40000001
    1820:	01010007 	tsteq	r1, r7
    1824:	05000105 	streq	r0, [r0, #-261]	; 0xfffffefb
    1828:	0008e402 	andeq	lr, r8, r2, lsl #8
    182c:	02910308 	addseq	r0, r1, #8, 6	; 0x20000000
    1830:	2f0b0501 	svccs	0x000b0501
    1834:	05671105 	strbeq	r1, [r7, #-261]!	; 0xfffffefb
    1838:	01052e02 	tsteq	r5, r2, lsl #28
    183c:	00070221 	andeq	r0, r7, r1, lsr #4
    1840:	01050101 	tsteq	r5, r1, lsl #2
    1844:	08020500 	stmdaeq	r2, {r8, sl}
    1848:	03080009 	movweq	r0, #32777	; 0x8009
    184c:	05010297 	streq	r0, [r1, #-663]	; 0xfffffd69
    1850:	0e052f09 	cdpeq	15, 0, cr2, cr5, cr9, {0}
    1854:	2e04052e 	cfsh32cs	mvfx0, mvfx4, #30
    1858:	02002005 	andeq	r2, r0, #5
    185c:	052e0104 	streq	r0, [lr, #-260]!	; 0xfffffefc
    1860:	04020038 	streq	r0, [r2], #-56	; 0xffffffc8
    1864:	29056601 	stmdbcs	r5, {r0, r9, sl, sp, lr}
    1868:	01040200 	mrseq	r0, R12_usr
    186c:	2109052e 	tstcs	r9, lr, lsr #10
    1870:	052e0e05 	streq	r0, [lr, #-3589]!	; 0xfffff1fb
    1874:	20052e04 	andcs	r2, r5, r4, lsl #28
    1878:	01040200 	mrseq	r0, R12_usr
    187c:	0038052e 	eorseq	r0, r8, lr, lsr #10
    1880:	66010402 	strvs	r0, [r1], -r2, lsl #8
    1884:	02002905 	andeq	r2, r0, #81920	; 0x14000
    1888:	052e0104 	streq	r0, [lr, #-260]!	; 0xfffffefc
    188c:	0e052109 	adfeqs	f2, f5, #1.0
    1890:	2e04052e 	cfsh32cs	mvfx0, mvfx4, #30
    1894:	02002005 	andeq	r2, r0, #5
    1898:	052e0104 	streq	r0, [lr, #-260]!	; 0xfffffefc
    189c:	04020038 	streq	r0, [r2], #-56	; 0xffffffc8
    18a0:	29056601 	stmdbcs	r5, {r0, r9, sl, sp, lr}
    18a4:	01040200 	mrseq	r0, R12_usr
    18a8:	2109052e 	tstcs	r9, lr, lsr #10
    18ac:	052e0e05 	streq	r0, [lr, #-3589]!	; 0xfffff1fb
    18b0:	20052e04 	andcs	r2, r5, r4, lsl #28
    18b4:	01040200 	mrseq	r0, R12_usr
    18b8:	0038052e 	eorseq	r0, r8, lr, lsr #10
    18bc:	66010402 	strvs	r0, [r1], -r2, lsl #8
    18c0:	02002905 	andeq	r2, r0, #81920	; 0x14000
    18c4:	052e0104 	streq	r0, [lr, #-260]!	; 0xfffffefc
    18c8:	0e052109 	adfeqs	f2, f5, #1.0
    18cc:	2e04052e 	cfsh32cs	mvfx0, mvfx4, #30
    18d0:	02002005 	andeq	r2, r0, #5
    18d4:	052e0104 	streq	r0, [lr, #-260]!	; 0xfffffefc
    18d8:	04020038 	streq	r0, [r2], #-56	; 0xffffffc8
    18dc:	29056601 	stmdbcs	r5, {r0, r9, sl, sp, lr}
    18e0:	01040200 	mrseq	r0, R12_usr
    18e4:	2201052e 	andcs	r0, r1, #192937984	; 0xb800000
    18e8:	01000702 	tsteq	r0, r2, lsl #14
    18ec:	00010501 	andeq	r0, r1, r1, lsl #10
    18f0:	09b00205 	ldmibeq	r0!, {r0, r2, r9}
    18f4:	a0030800 	andge	r0, r3, r0, lsl #16
    18f8:	09050102 	stmdbeq	r5, {r1, r8}
    18fc:	2e0e052f 	cfsh32cs	mvfx0, mvfx14, #31
    1900:	052e0405 	streq	r0, [lr, #-1029]!	; 0xfffffbfb
    1904:	04020021 	streq	r0, [r2], #-33	; 0xffffffdf
    1908:	3a052e01 	bcc	14d114 <_Min_Stack_Size+0x14cd14>
    190c:	01040200 	mrseq	r0, R12_usr
    1910:	002b0566 	eoreq	r0, fp, r6, ror #10
    1914:	2e010402 	cdpcs	4, 0, cr0, cr1, cr2, {0}
    1918:	05210905 	streq	r0, [r1, #-2309]!	; 0xfffff6fb
    191c:	04052e0e 	streq	r2, [r5], #-3598	; 0xfffff1f2
    1920:	0021052e 	eoreq	r0, r1, lr, lsr #10
    1924:	2e010402 	cdpcs	4, 0, cr0, cr1, cr2, {0}
    1928:	02003a05 	andeq	r3, r0, #20480	; 0x5000
    192c:	05660104 	strbeq	r0, [r6, #-260]!	; 0xfffffefc
    1930:	0402002b 	streq	r0, [r2], #-43	; 0xffffffd5
    1934:	09052e01 	stmdbeq	r5, {r0, r9, sl, fp, sp}
    1938:	2e0e0521 	cfsh32cs	mvfx0, mvfx14, #17
    193c:	052e0405 	streq	r0, [lr, #-1029]!	; 0xfffffbfb
    1940:	04020021 	streq	r0, [r2], #-33	; 0xffffffdf
    1944:	3a052e01 	bcc	14d150 <_Min_Stack_Size+0x14cd50>
    1948:	01040200 	mrseq	r0, R12_usr
    194c:	002b0566 	eoreq	r0, fp, r6, ror #10
    1950:	2e010402 	cdpcs	4, 0, cr0, cr1, cr2, {0}
    1954:	05210905 	streq	r0, [r1, #-2309]!	; 0xfffff6fb
    1958:	04052e0e 	streq	r2, [r5], #-3598	; 0xfffff1f2
    195c:	0021052e 	eoreq	r0, r1, lr, lsr #10
    1960:	2e010402 	cdpcs	4, 0, cr0, cr1, cr2, {0}
    1964:	02003a05 	andeq	r3, r0, #20480	; 0x5000
    1968:	05660104 	strbeq	r0, [r6, #-260]!	; 0xfffffefc
    196c:	0402002b 	streq	r0, [r2], #-43	; 0xffffffd5
    1970:	09052e01 	stmdbeq	r5, {r0, r9, sl, fp, sp}
    1974:	2e0e0521 	cfsh32cs	mvfx0, mvfx14, #17
    1978:	052e0405 	streq	r0, [lr, #-1029]!	; 0xfffffbfb
    197c:	04020021 	streq	r0, [r2], #-33	; 0xffffffdf
    1980:	3a052e01 	bcc	14d18c <_Min_Stack_Size+0x14cd8c>
    1984:	01040200 	mrseq	r0, R12_usr
    1988:	002b0566 	eoreq	r0, fp, r6, ror #10
    198c:	2e010402 	cdpcs	4, 0, cr0, cr1, cr2, {0}
    1990:	05210905 	streq	r0, [r1, #-2309]!	; 0xfffff6fb
    1994:	04052e0e 	streq	r2, [r5], #-3598	; 0xfffff1f2
    1998:	0021052e 	eoreq	r0, r1, lr, lsr #10
    199c:	2e010402 	cdpcs	4, 0, cr0, cr1, cr2, {0}
    19a0:	02003a05 	andeq	r3, r0, #20480	; 0x5000
    19a4:	05660104 	strbeq	r0, [r6, #-260]!	; 0xfffffefc
    19a8:	0402002b 	streq	r0, [r2], #-43	; 0xffffffd5
    19ac:	01052e01 	tsteq	r5, r1, lsl #28
    19b0:	00060222 	andeq	r0, r6, r2, lsr #4
    19b4:	07750101 	ldrbeq	r0, [r5, -r1, lsl #2]!
    19b8:	00030000 	andeq	r0, r3, r0
    19bc:	00000563 	andeq	r0, r0, r3, ror #10
    19c0:	0efb0102 	cdpeq	1, 15, cr0, cr11, cr2, {0}
    19c4:	0101000d 	tsteq	r1, sp
    19c8:	00000101 	andeq	r0, r0, r1, lsl #2
    19cc:	00000100 	andeq	r0, r0, r0, lsl #2
    19d0:	2f2e2e01 	svccs	0x002e2e01
    19d4:	336d7453 	cmncc	sp, #1392508928	; 0x53000000
    19d8:	30314632 	eorscc	r4, r1, r2, lsr r6
    19dc:	74386333 	ldrtvc	r6, [r8], #-819	; 0xfffffccd
    19e0:	72445f36 	subvc	r5, r4, #54, 30	; 0xd8
    19e4:	72657669 	rsbvc	r7, r5, #110100480	; 0x6900000
    19e8:	50472f73 	subpl	r2, r7, r3, ror pc
    19ec:	63004f49 	movwvs	r4, #3913	; 0xf49
    19f0:	74735c3a 	ldrbtvc	r5, [r3], #-3130	; 0xfffff3c6
    19f4:	6d74735c 	ldclvs	3, cr7, [r4, #-368]!	; 0xfffffe90
    19f8:	75633233 	strbvc	r3, [r3, #-563]!	; 0xfffffdcd
    19fc:	64696562 	strbtvs	r6, [r9], #-1378	; 0xfffffa9e
    1a00:	2e315f65 	cdpcs	15, 3, cr5, cr1, cr5, {3}
    1a04:	302e3231 	eorcc	r3, lr, r1, lsr r2
    1a08:	6d74735c 	ldclvs	3, cr7, [r4, #-368]!	; 0xfffffe90
    1a0c:	75633233 	strbvc	r3, [r3, #-563]!	; 0xfffffdcd
    1a10:	64696562 	strbtvs	r6, [r9], #-1378	; 0xfffffa9e
    1a14:	6c705c65 	ldclvs	12, cr5, [r0], #-404	; 0xfffffe6c
    1a18:	6e696775 	mcrvs	7, 3, r6, cr9, cr5, {3}
    1a1c:	6f635c73 	svcvs	0x00635c73
    1a20:	74732e6d 	ldrbtvc	r2, [r3], #-3693	; 0xfffff193
    1a24:	6d74732e 	ldclvs	3, cr7, [r4, #-184]!	; 0xffffff48
    1a28:	75633233 	strbvc	r3, [r3, #-563]!	; 0xfffffdcd
    1a2c:	692e6562 	stmdbvs	lr!, {r1, r5, r6, r8, sl, sp, lr}
    1a30:	6d2e6564 	cfstr32vs	mvfx6, [lr, #-400]!	; 0xfffffe70
    1a34:	652e7563 	strvs	r7, [lr, #-1379]!	; 0xfffffa9d
    1a38:	72657478 	rsbvc	r7, r5, #120, 8	; 0x78000000
    1a3c:	746c616e 	strbtvc	r6, [ip], #-366	; 0xfffffe92
    1a40:	736c6f6f 	cmnvc	ip, #444	; 0x1bc
    1a44:	756e672e 	strbvc	r6, [lr, #-1838]!	; 0xfffff8d2
    1a48:	6f6f742d 	svcvs	0x006f742d
    1a4c:	662d736c 	strtvs	r7, [sp], -ip, ror #6
    1a50:	732d726f 			; <UNDEFINED> instruction: 0x732d726f
    1a54:	32336d74 	eorscc	r6, r3, #116, 26	; 0x1d00
    1a58:	2e30312e 	rsfcssp	f3, f0, #0.5
    1a5c:	30322d33 	eorscc	r2, r2, r3, lsr sp
    1a60:	312e3132 			; <UNDEFINED> instruction: 0x312e3132
    1a64:	69772e30 	ldmdbvs	r7!, {r4, r5, r9, sl, fp, sp}^
    1a68:	5f32336e 	svcpl	0x0032336e
    1a6c:	2e302e31 	mrccs	14, 1, r2, cr0, cr1, {1}
    1a70:	2e303032 	mrccs	0, 1, r3, cr0, cr2, {1}
    1a74:	33323032 	teqcc	r2, #50	; 0x32
    1a78:	36313130 			; <UNDEFINED> instruction: 0x36313130
    1a7c:	33303031 	teqcc	r0, #49	; 0x31
    1a80:	6f6f745c 	svcvs	0x006f745c
    1a84:	615c736c 	cmpvs	ip, ip, ror #6
    1a88:	6e2d6d72 	mcrvs	13, 1, r6, cr13, cr2, {3}
    1a8c:	2d656e6f 	stclcs	14, cr6, [r5, #-444]!	; 0xfffffe44
    1a90:	69626165 	stmdbvs	r2!, {r0, r2, r5, r6, r8, sp, lr}^
    1a94:	636e695c 	cmnvs	lr, #92, 18	; 0x170000
    1a98:	6564756c 	strbvs	r7, [r4, #-1388]!	; 0xfffffa94
    1a9c:	63616d5c 	cmnvs	r1, #92, 26	; 0x1700
    1aa0:	656e6968 	strbvs	r6, [lr, #-2408]!	; 0xfffff698
    1aa4:	5c3a6300 	ldcpl	3, cr6, [sl], #-0
    1aa8:	735c7473 	cmpvc	ip, #1929379840	; 0x73000000
    1aac:	32336d74 	eorscc	r6, r3, #116, 26	; 0x1d00
    1ab0:	65627563 	strbvs	r7, [r2, #-1379]!	; 0xfffffa9d
    1ab4:	5f656469 	svcpl	0x00656469
    1ab8:	32312e31 	eorscc	r2, r1, #784	; 0x310
    1abc:	735c302e 	cmpvc	ip, #46	; 0x2e
    1ac0:	32336d74 	eorscc	r6, r3, #116, 26	; 0x1d00
    1ac4:	65627563 	strbvs	r7, [r2, #-1379]!	; 0xfffffa9d
    1ac8:	5c656469 	cfstrdpl	mvd6, [r5], #-420	; 0xfffffe5c
    1acc:	67756c70 			; <UNDEFINED> instruction: 0x67756c70
    1ad0:	5c736e69 	ldclpl	14, cr6, [r3], #-420	; 0xfffffe5c
    1ad4:	2e6d6f63 	cdpcs	15, 6, cr6, cr13, cr3, {3}
    1ad8:	732e7473 			; <UNDEFINED> instruction: 0x732e7473
    1adc:	32336d74 	eorscc	r6, r3, #116, 26	; 0x1d00
    1ae0:	65627563 	strbvs	r7, [r2, #-1379]!	; 0xfffffa9d
    1ae4:	6564692e 	strbvs	r6, [r4, #-2350]!	; 0xfffff6d2
    1ae8:	75636d2e 	strbvc	r6, [r3, #-3374]!	; 0xfffff2d2
    1aec:	7478652e 	ldrbtvc	r6, [r8], #-1326	; 0xfffffad2
    1af0:	616e7265 	cmnvs	lr, r5, ror #4
    1af4:	6f6f746c 	svcvs	0x006f746c
    1af8:	672e736c 	strvs	r7, [lr, -ip, ror #6]!
    1afc:	742d756e 	strtvc	r7, [sp], #-1390	; 0xfffffa92
    1b00:	736c6f6f 	cmnvc	ip, #444	; 0x1bc
    1b04:	726f662d 	rsbvc	r6, pc, #47185920	; 0x2d00000
    1b08:	6d74732d 	ldclvs	3, cr7, [r4, #-180]!	; 0xffffff4c
    1b0c:	312e3233 			; <UNDEFINED> instruction: 0x312e3233
    1b10:	2d332e30 	ldccs	14, cr2, [r3, #-192]!	; 0xffffff40
    1b14:	31323032 	teqcc	r2, r2, lsr r0
    1b18:	2e30312e 	rsfcssp	f3, f0, #0.5
    1b1c:	336e6977 	cmncc	lr, #1949696	; 0x1dc000
    1b20:	2e315f32 	mrccs	15, 1, r5, cr1, cr2, {1}
    1b24:	30322e30 	eorscc	r2, r2, r0, lsr lr
    1b28:	30322e30 	eorscc	r2, r2, r0, lsr lr
    1b2c:	31303332 	teqcc	r0, r2, lsr r3
    1b30:	30313631 	eorscc	r3, r1, r1, lsr r6
    1b34:	745c3330 	ldrbvc	r3, [ip], #-816	; 0xfffffcd0
    1b38:	736c6f6f 	cmnvc	ip, #444	; 0x1bc
    1b3c:	6d72615c 	ldfvse	f6, [r2, #-368]!	; 0xfffffe90
    1b40:	6e6f6e2d 	cdpvs	14, 6, cr6, cr15, cr13, {1}
    1b44:	61652d65 	cmnvs	r5, r5, ror #26
    1b48:	695c6962 	ldmdbvs	ip, {r1, r5, r6, r8, fp, sp, lr}^
    1b4c:	756c636e 	strbvc	r6, [ip, #-878]!	; 0xfffffc92
    1b50:	735c6564 	cmpvc	ip, #100, 10	; 0x19000000
    1b54:	44007379 	strmi	r7, [r0], #-889	; 0xfffffc87
    1b58:	6d652f3a 	stclvs	15, cr2, [r5, #-232]!	; 0xffffff18
    1b5c:	65646562 	strbvs	r6, [r4, #-1378]!	; 0xfffffa9e
    1b60:	79532064 	ldmdbvc	r3, {r2, r5, r6, sp}^
    1b64:	6d657473 	cfstrdvs	mvd7, [r5, #-460]!	; 0xfffffe34
    1b68:	54532f73 	ldrbpl	r2, [r3], #-3955	; 0xfffff08d
    1b6c:	6972644d 	ldmdbvs	r2!, {r0, r2, r3, r6, sl, sp, lr}^
    1b70:	73726576 	cmnvc	r2, #494927872	; 0x1d800000
    1b74:	6d72412f 	ldfvse	f4, [r2, #-188]!	; 0xffffff44
    1b78:	646f4d5f 	strbtvs	r4, [pc], #-3423	; 1b80 <_Min_Stack_Size+0x1780>
    1b7c:	532f7365 			; <UNDEFINED> instruction: 0x532f7365
    1b80:	32336d74 	eorscc	r6, r3, #116, 26	; 0x1d00
    1b84:	33303146 	teqcc	r0, #-2147483631	; 0x80000011
    1b88:	36743863 	ldrbtcc	r3, [r4], -r3, ror #16
    1b8c:	6972445f 	ldmdbvs	r2!, {r0, r1, r2, r3, r4, r6, sl, lr}^
    1b90:	73726576 	cmnvc	r2, #494927872	; 0x1d800000
    1b94:	434e492f 	movtmi	r4, #59695	; 0xe92f
    1b98:	5c3a6300 	ldcpl	3, cr6, [sl], #-0
    1b9c:	735c7473 	cmpvc	ip, #1929379840	; 0x73000000
    1ba0:	32336d74 	eorscc	r6, r3, #116, 26	; 0x1d00
    1ba4:	65627563 	strbvs	r7, [r2, #-1379]!	; 0xfffffa9d
    1ba8:	5f656469 	svcpl	0x00656469
    1bac:	32312e31 	eorscc	r2, r1, #784	; 0x310
    1bb0:	735c302e 	cmpvc	ip, #46	; 0x2e
    1bb4:	32336d74 	eorscc	r6, r3, #116, 26	; 0x1d00
    1bb8:	65627563 	strbvs	r7, [r2, #-1379]!	; 0xfffffa9d
    1bbc:	5c656469 	cfstrdpl	mvd6, [r5], #-420	; 0xfffffe5c
    1bc0:	67756c70 			; <UNDEFINED> instruction: 0x67756c70
    1bc4:	5c736e69 	ldclpl	14, cr6, [r3], #-420	; 0xfffffe5c
    1bc8:	2e6d6f63 	cdpcs	15, 6, cr6, cr13, cr3, {3}
    1bcc:	732e7473 			; <UNDEFINED> instruction: 0x732e7473
    1bd0:	32336d74 	eorscc	r6, r3, #116, 26	; 0x1d00
    1bd4:	65627563 	strbvs	r7, [r2, #-1379]!	; 0xfffffa9d
    1bd8:	6564692e 	strbvs	r6, [r4, #-2350]!	; 0xfffff6d2
    1bdc:	75636d2e 	strbvc	r6, [r3, #-3374]!	; 0xfffff2d2
    1be0:	7478652e 	ldrbtvc	r6, [r8], #-1326	; 0xfffffad2
    1be4:	616e7265 	cmnvs	lr, r5, ror #4
    1be8:	6f6f746c 	svcvs	0x006f746c
    1bec:	672e736c 	strvs	r7, [lr, -ip, ror #6]!
    1bf0:	742d756e 	strtvc	r7, [sp], #-1390	; 0xfffffa92
    1bf4:	736c6f6f 	cmnvc	ip, #444	; 0x1bc
    1bf8:	726f662d 	rsbvc	r6, pc, #47185920	; 0x2d00000
    1bfc:	6d74732d 	ldclvs	3, cr7, [r4, #-180]!	; 0xffffff4c
    1c00:	312e3233 			; <UNDEFINED> instruction: 0x312e3233
    1c04:	2d332e30 	ldccs	14, cr2, [r3, #-192]!	; 0xffffff40
    1c08:	31323032 	teqcc	r2, r2, lsr r0
    1c0c:	2e30312e 	rsfcssp	f3, f0, #0.5
    1c10:	336e6977 	cmncc	lr, #1949696	; 0x1dc000
    1c14:	2e315f32 	mrccs	15, 1, r5, cr1, cr2, {1}
    1c18:	30322e30 	eorscc	r2, r2, r0, lsr lr
    1c1c:	30322e30 	eorscc	r2, r2, r0, lsr lr
    1c20:	31303332 	teqcc	r0, r2, lsr r3
    1c24:	30313631 	eorscc	r3, r1, r1, lsr r6
    1c28:	745c3330 	ldrbvc	r3, [ip], #-816	; 0xfffffcd0
    1c2c:	736c6f6f 	cmnvc	ip, #444	; 0x1bc
    1c30:	6d72615c 	ldfvse	f6, [r2, #-368]!	; 0xfffffe90
    1c34:	6e6f6e2d 	cdpvs	14, 6, cr6, cr15, cr13, {1}
    1c38:	61652d65 	cmnvs	r5, r5, ror #26
    1c3c:	695c6962 	ldmdbvs	ip, {r1, r5, r6, r8, fp, sp, lr}^
    1c40:	756c636e 	strbvc	r6, [ip, #-878]!	; 0xfffffc92
    1c44:	63006564 	movwvs	r6, #1380	; 0x564
    1c48:	74735c3a 	ldrbtvc	r5, [r3], #-3130	; 0xfffff3c6
    1c4c:	6d74735c 	ldclvs	3, cr7, [r4, #-368]!	; 0xfffffe90
    1c50:	75633233 	strbvc	r3, [r3, #-563]!	; 0xfffffdcd
    1c54:	64696562 	strbtvs	r6, [r9], #-1378	; 0xfffffa9e
    1c58:	2e315f65 	cdpcs	15, 3, cr5, cr1, cr5, {3}
    1c5c:	302e3231 	eorcc	r3, lr, r1, lsr r2
    1c60:	6d74735c 	ldclvs	3, cr7, [r4, #-368]!	; 0xfffffe90
    1c64:	75633233 	strbvc	r3, [r3, #-563]!	; 0xfffffdcd
    1c68:	64696562 	strbtvs	r6, [r9], #-1378	; 0xfffffa9e
    1c6c:	6c705c65 	ldclvs	12, cr5, [r0], #-404	; 0xfffffe6c
    1c70:	6e696775 	mcrvs	7, 3, r6, cr9, cr5, {3}
    1c74:	6f635c73 	svcvs	0x00635c73
    1c78:	74732e6d 	ldrbtvc	r2, [r3], #-3693	; 0xfffff193
    1c7c:	6d74732e 	ldclvs	3, cr7, [r4, #-184]!	; 0xffffff48
    1c80:	75633233 	strbvc	r3, [r3, #-563]!	; 0xfffffdcd
    1c84:	692e6562 	stmdbvs	lr!, {r1, r5, r6, r8, sl, sp, lr}
    1c88:	6d2e6564 	cfstr32vs	mvfx6, [lr, #-400]!	; 0xfffffe70
    1c8c:	652e7563 	strvs	r7, [lr, #-1379]!	; 0xfffffa9d
    1c90:	72657478 	rsbvc	r7, r5, #120, 8	; 0x78000000
    1c94:	746c616e 	strbtvc	r6, [ip], #-366	; 0xfffffe92
    1c98:	736c6f6f 	cmnvc	ip, #444	; 0x1bc
    1c9c:	756e672e 	strbvc	r6, [lr, #-1838]!	; 0xfffff8d2
    1ca0:	6f6f742d 	svcvs	0x006f742d
    1ca4:	662d736c 	strtvs	r7, [sp], -ip, ror #6
    1ca8:	732d726f 			; <UNDEFINED> instruction: 0x732d726f
    1cac:	32336d74 	eorscc	r6, r3, #116, 26	; 0x1d00
    1cb0:	2e30312e 	rsfcssp	f3, f0, #0.5
    1cb4:	30322d33 	eorscc	r2, r2, r3, lsr sp
    1cb8:	312e3132 			; <UNDEFINED> instruction: 0x312e3132
    1cbc:	69772e30 	ldmdbvs	r7!, {r4, r5, r9, sl, fp, sp}^
    1cc0:	5f32336e 	svcpl	0x0032336e
    1cc4:	2e302e31 	mrccs	14, 1, r2, cr0, cr1, {1}
    1cc8:	2e303032 	mrccs	0, 1, r3, cr0, cr2, {1}
    1ccc:	33323032 	teqcc	r2, #50	; 0x32
    1cd0:	36313130 			; <UNDEFINED> instruction: 0x36313130
    1cd4:	33303031 	teqcc	r0, #49	; 0x31
    1cd8:	6f6f745c 	svcvs	0x006f745c
    1cdc:	615c736c 	cmpvs	ip, ip, ror #6
    1ce0:	6e2d6d72 	mcrvs	13, 1, r6, cr13, cr2, {3}
    1ce4:	2d656e6f 	stclcs	14, cr6, [r5, #-444]!	; 0xfffffe44
    1ce8:	69626165 	stmdbvs	r2!, {r0, r2, r5, r6, r8, sp, lr}^
    1cec:	636e695c 	cmnvs	lr, #92, 18	; 0x170000
    1cf0:	6564756c 	strbvs	r7, [r4, #-1388]!	; 0xfffffa94
    1cf4:	77656e5c 			; <UNDEFINED> instruction: 0x77656e5c
    1cf8:	2d62696c 			; <UNDEFINED> instruction: 0x2d62696c
    1cfc:	6f6e616e 	svcvs	0x006e616e
    1d00:	5c3a6300 	ldcpl	3, cr6, [sl], #-0
    1d04:	735c7473 	cmpvc	ip, #1929379840	; 0x73000000
    1d08:	32336d74 	eorscc	r6, r3, #116, 26	; 0x1d00
    1d0c:	65627563 	strbvs	r7, [r2, #-1379]!	; 0xfffffa9d
    1d10:	5f656469 	svcpl	0x00656469
    1d14:	32312e31 	eorscc	r2, r1, #784	; 0x310
    1d18:	735c302e 	cmpvc	ip, #46	; 0x2e
    1d1c:	32336d74 	eorscc	r6, r3, #116, 26	; 0x1d00
    1d20:	65627563 	strbvs	r7, [r2, #-1379]!	; 0xfffffa9d
    1d24:	5c656469 	cfstrdpl	mvd6, [r5], #-420	; 0xfffffe5c
    1d28:	67756c70 			; <UNDEFINED> instruction: 0x67756c70
    1d2c:	5c736e69 	ldclpl	14, cr6, [r3], #-420	; 0xfffffe5c
    1d30:	2e6d6f63 	cdpcs	15, 6, cr6, cr13, cr3, {3}
    1d34:	732e7473 			; <UNDEFINED> instruction: 0x732e7473
    1d38:	32336d74 	eorscc	r6, r3, #116, 26	; 0x1d00
    1d3c:	65627563 	strbvs	r7, [r2, #-1379]!	; 0xfffffa9d
    1d40:	6564692e 	strbvs	r6, [r4, #-2350]!	; 0xfffff6d2
    1d44:	75636d2e 	strbvc	r6, [r3, #-3374]!	; 0xfffff2d2
    1d48:	7478652e 	ldrbtvc	r6, [r8], #-1326	; 0xfffffad2
    1d4c:	616e7265 	cmnvs	lr, r5, ror #4
    1d50:	6f6f746c 	svcvs	0x006f746c
    1d54:	672e736c 	strvs	r7, [lr, -ip, ror #6]!
    1d58:	742d756e 	strtvc	r7, [sp], #-1390	; 0xfffffa92
    1d5c:	736c6f6f 	cmnvc	ip, #444	; 0x1bc
    1d60:	726f662d 	rsbvc	r6, pc, #47185920	; 0x2d00000
    1d64:	6d74732d 	ldclvs	3, cr7, [r4, #-180]!	; 0xffffff4c
    1d68:	312e3233 			; <UNDEFINED> instruction: 0x312e3233
    1d6c:	2d332e30 	ldccs	14, cr2, [r3, #-192]!	; 0xffffff40
    1d70:	31323032 	teqcc	r2, r2, lsr r0
    1d74:	2e30312e 	rsfcssp	f3, f0, #0.5
    1d78:	336e6977 	cmncc	lr, #1949696	; 0x1dc000
    1d7c:	2e315f32 	mrccs	15, 1, r5, cr1, cr2, {1}
    1d80:	30322e30 	eorscc	r2, r2, r0, lsr lr
    1d84:	30322e30 	eorscc	r2, r2, r0, lsr lr
    1d88:	31303332 	teqcc	r0, r2, lsr r3
    1d8c:	30313631 	eorscc	r3, r1, r1, lsr r6
    1d90:	745c3330 	ldrbvc	r3, [ip], #-816	; 0xfffffcd0
    1d94:	736c6f6f 	cmnvc	ip, #444	; 0x1bc
    1d98:	62696c5c 	rsbvs	r6, r9, #92, 24	; 0x5c00
    1d9c:	6363675c 	cmnvs	r3, #92, 14	; 0x1700000
    1da0:	6d72615c 	ldfvse	f6, [r2, #-368]!	; 0xfffffe90
    1da4:	6e6f6e2d 	cdpvs	14, 6, cr6, cr15, cr13, {1}
    1da8:	61652d65 	cmnvs	r5, r5, ror #26
    1dac:	315c6962 	cmpcc	ip, r2, ror #18
    1db0:	2e332e30 	mrccs	14, 1, r2, cr3, cr0, {1}
    1db4:	6e695c31 	mcrvs	12, 3, r5, cr9, cr1, {1}
    1db8:	64756c63 	ldrbtvs	r6, [r5], #-3171	; 0xfffff39d
    1dbc:	67000065 	strvs	r0, [r0, -r5, rrx]
    1dc0:	2e6f6970 			; <UNDEFINED> instruction: 0x2e6f6970
    1dc4:	00010063 	andeq	r0, r1, r3, rrx
    1dc8:	65645f00 	strbvs	r5, [r4, #-3840]!	; 0xfffff100
    1dcc:	6c756166 	ldfvse	f6, [r5], #-408	; 0xfffffe68
    1dd0:	79745f74 	ldmdbvc	r4!, {r2, r4, r5, r6, r8, r9, sl, fp, ip, lr}^
    1dd4:	2e736570 	mrccs	5, 3, r6, cr3, cr0, {3}
    1dd8:	00020068 	andeq	r0, r2, r8, rrx
    1ddc:	74735f00 	ldrbtvc	r5, [r3], #-3840	; 0xfffff100
    1de0:	746e6964 	strbtvc	r6, [lr], #-2404	; 0xfffff69c
    1de4:	0300682e 	movweq	r6, #2094	; 0x82e
    1de8:	74730000 	ldrbtvc	r0, [r3], #-0
    1dec:	6632336d 	ldrtvs	r3, [r2], -sp, ror #6
    1df0:	78333031 	ldmdavc	r3!, {r0, r4, r5, ip, sp}
    1df4:	00682e36 	rsbeq	r2, r8, r6, lsr lr
    1df8:	67000004 	strvs	r0, [r0, -r4]
    1dfc:	2e6f6970 			; <UNDEFINED> instruction: 0x2e6f6970
    1e00:	00040068 	andeq	r0, r4, r8, rrx
    1e04:	64747300 	ldrbtvs	r7, [r4], #-768	; 0xfffffd00
    1e08:	2e62696c 	vnmulcs.f16	s13, s4, s25	; <UNPREDICTABLE>
    1e0c:	00050068 	andeq	r0, r5, r8, rrx
    1e10:	65656900 	strbvs	r6, [r5, #-2304]!	; 0xfffff700
    1e14:	2e706665 	cdpcs	6, 7, cr6, cr0, cr5, {3}
    1e18:	00020068 	andeq	r0, r2, r8, rrx
    1e1c:	6e615f00 	cdpvs	15, 6, cr5, cr1, cr0, {0}
    1e20:	682e6973 	stmdavs	lr!, {r0, r1, r4, r5, r6, r8, fp, sp, lr}
    1e24:	00000500 	andeq	r0, r0, r0, lsl #10
    1e28:	6c77656e 	cfldr64vs	mvdx6, [r7], #-440	; 0xfffffe48
    1e2c:	682e6269 	stmdavs	lr!, {r0, r3, r5, r6, r9, sp, lr}
    1e30:	00000600 	andeq	r0, r0, r0, lsl #12
    1e34:	77656e5f 			; <UNDEFINED> instruction: 0x77656e5f
    1e38:	5f62696c 	svcpl	0x0062696c
    1e3c:	73726576 	cmnvc	r2, #494927872	; 0x1d800000
    1e40:	2e6e6f69 	cdpcs	15, 6, cr6, cr14, cr9, {3}
    1e44:	00050068 	andeq	r0, r5, r8, rrx
    1e48:	6e6f6300 	cdpvs	3, 6, cr6, cr15, cr0, {0}
    1e4c:	2e676966 	vnmulcs.f16	s13, s14, s13	; <UNPREDICTABLE>
    1e50:	00030068 	andeq	r0, r3, r8, rrx
    1e54:	61656600 	cmnvs	r5, r0, lsl #12
    1e58:	65727574 	ldrbvs	r7, [r2, #-1396]!	; 0xfffffa8c
    1e5c:	00682e73 	rsbeq	r2, r8, r3, ror lr
    1e60:	73000003 	movwvc	r0, #3
    1e64:	65646474 	strbvs	r6, [r4, #-1140]!	; 0xfffffb8c
    1e68:	00682e66 	rsbeq	r2, r8, r6, ror #28
    1e6c:	72000007 	andvc	r0, r0, #7
    1e70:	746e6565 	strbtvc	r6, [lr], #-1381	; 0xfffffa9b
    1e74:	0300682e 	movweq	r6, #2094	; 0x82e
    1e78:	745f0000 	ldrbvc	r0, [pc], #-0	; 1e80 <_Min_Stack_Size+0x1a80>
    1e7c:	73657079 	cmnvc	r5, #121	; 0x79
    1e80:	0300682e 	movweq	r6, #2094	; 0x82e
    1e84:	745f0000 	ldrbvc	r0, [pc], #-0	; 1e8c <_Min_Stack_Size+0x1a8c>
    1e88:	73657079 	cmnvc	r5, #121	; 0x79
    1e8c:	0200682e 	andeq	r6, r0, #3014656	; 0x2e0000
    1e90:	6f6c0000 	svcvs	0x006c0000
    1e94:	682e6b63 	stmdavs	lr!, {r0, r1, r5, r6, r8, r9, fp, sp, lr}
    1e98:	00000300 	andeq	r0, r0, r0, lsl #6
    1e9c:	65737361 	ldrbvs	r7, [r3, #-865]!	; 0xfffffc9f
    1ea0:	682e7472 	stmdavs	lr!, {r1, r4, r5, r6, sl, ip, sp, lr}
    1ea4:	00000500 	andeq	r0, r0, r0, lsl #10
    1ea8:	66656463 	strbtvs	r6, [r5], -r3, ror #8
    1eac:	00682e73 	rsbeq	r2, r8, r3, ror lr
    1eb0:	73000003 	movwvc	r0, #3
    1eb4:	696c6474 	stmdbvs	ip!, {r2, r4, r5, r6, sl, sp, lr}^
    1eb8:	00682e62 	rsbeq	r2, r8, r2, ror #28
    1ebc:	61000002 	tstvs	r0, r2
    1ec0:	636f6c6c 	cmnvs	pc, #108, 24	; 0x6c00
    1ec4:	00682e61 	rsbeq	r2, r8, r1, ror #28
    1ec8:	73000005 	movwvc	r0, #5
    1ecc:	6e697274 	mcrvs	2, 3, r7, cr9, cr4, {3}
    1ed0:	00682e67 	rsbeq	r2, r8, r7, ror #28
    1ed4:	5f000005 	svcpl	0x00000005
    1ed8:	61636f6c 	cmnvs	r3, ip, ror #30
    1edc:	682e656c 	stmdavs	lr!, {r2, r3, r5, r6, r8, sl, sp, lr}
    1ee0:	00000300 	andeq	r0, r0, r0, lsl #6
    1ee4:	69727473 	ldmdbvs	r2!, {r0, r1, r4, r5, r6, sl, ip, sp, lr}^
    1ee8:	2e73676e 	cdpcs	7, 7, cr6, cr3, cr14, {3}
    1eec:	00050068 	andeq	r0, r5, r8, rrx
    1ef0:	72747300 	rsbsvc	r7, r4, #0, 6
    1ef4:	2e676e69 	cdpcs	14, 6, cr6, cr7, cr9, {3}
    1ef8:	00030068 	andeq	r0, r3, r8, rrx
    1efc:	64747300 	ldrbtvs	r7, [r4], #-768	; 0xfffffd00
    1f00:	2e746e69 	cdpcs	14, 7, cr6, cr4, cr9, {3}
    1f04:	00070068 	andeq	r0, r7, r8, rrx
    1f08:	64747300 	ldrbtvs	r7, [r4], #-768	; 0xfffffd00
    1f0c:	2e746e69 	cdpcs	14, 7, cr6, cr4, cr9, {3}
    1f10:	00050068 	andeq	r0, r5, r8, rrx
    1f14:	6e695f00 	cdpvs	15, 6, cr5, cr9, cr0, {0}
    1f18:	70757374 	rsbsvc	r7, r5, r4, ror r3
    1f1c:	0300682e 	movweq	r6, #2094	; 0x82e
    1f20:	05000000 	streq	r0, [r0, #-0]
    1f24:	0205002d 	andeq	r0, r5, #45	; 0x2d
    1f28:	08000a74 	stmdaeq	r0, {r2, r4, r5, r6, r9, fp}
    1f2c:	05010903 	streq	r0, [r1, #-2307]	; 0xfffff6fd
    1f30:	0b055902 	bleq	158340 <_Min_Stack_Size+0x157f40>
    1f34:	14018c02 	strne	r8, [r1], #-3074	; 0xfffff3fe
    1f38:	31313131 	teqcc	r1, r1, lsr r1
    1f3c:	31313131 	teqcc	r1, r1, lsr r1
    1f40:	31313131 	teqcc	r1, r1, lsr r1
    1f44:	05313131 	ldreq	r3, [r1, #-305]!	; 0xfffffecf
    1f48:	01053109 	tsteq	r5, r9, lsl #2
    1f4c:	00050221 	andeq	r0, r5, r1, lsr #4
    1f50:	40050101 	andmi	r0, r5, r1, lsl #2
    1f54:	e4020500 	str	r0, [r2], #-1280	; 0xfffffb00
    1f58:	0308000b 	movweq	r0, #32779	; 0x800b
    1f5c:	050100c7 	streq	r0, [r1, #-199]	; 0xffffff39
    1f60:	0b055b15 	bleq	158bbc <_Min_Stack_Size+0x1587bc>
    1f64:	2f0e052f 	svccs	0x000e052f
    1f68:	052e0405 	streq	r0, [lr, #-1029]!	; 0xfffffbfb
    1f6c:	053f2f16 	ldreq	r2, [pc, #-3862]!	; 105e <_Min_Stack_Size+0xc5e>
    1f70:	21053f25 	tstcs	r5, r5, lsr #30
    1f74:	2e1b0574 	mrccs	5, 0, r0, cr11, cr4, {3}
    1f78:	05201805 	streq	r1, [r0, #-2053]!	; 0xfffff7fb
    1f7c:	04055a10 	streq	r5, [r5], #-2576	; 0xfffff5f0
    1f80:	0041052e 	subeq	r0, r1, lr, lsr #10
    1f84:	2e010402 	cdpcs	4, 0, cr0, cr1, cr2, {0}
    1f88:	02003405 	andeq	r3, r0, #83886080	; 0x5000000
    1f8c:	052e0104 	streq	r0, [lr, #-260]!	; 0xfffffefc
    1f90:	04020072 	streq	r0, [r2], #-114	; 0xffffff8e
    1f94:	65052e02 	strvs	r2, [r5, #-3586]	; 0xfffff1fe
    1f98:	02040200 	andeq	r0, r4, #0, 4
    1f9c:	01a6052e 			; <UNDEFINED> instruction: 0x01a6052e
    1fa0:	03040200 	movweq	r0, #16896	; 0x4200
    1fa4:	0199052e 	orrseq	r0, r9, lr, lsr #10
    1fa8:	03040200 	movweq	r0, #16896	; 0x4200
    1fac:	311e052e 	tstcc	lr, lr, lsr #10
    1fb0:	052e2905 	streq	r2, [lr, #-2309]!	; 0xfffff6fb
    1fb4:	4005202d 	andmi	r2, r5, sp, lsr #32
    1fb8:	2e340520 	cfabs64cs	mvdx0, mvdx4
    1fbc:	05200e05 	streq	r0, [r0, #-3589]!	; 0xfffff1fb
    1fc0:	05054e11 	streq	r4, [r5, #-3601]	; 0xfffff1ef
    1fc4:	0042052e 	subeq	r0, r2, lr, lsr #10
    1fc8:	2e010402 	cdpcs	4, 0, cr0, cr1, cr2, {0}
    1fcc:	02003505 	andeq	r3, r0, #20971520	; 0x1400000
    1fd0:	052e0104 	streq	r0, [lr, #-260]!	; 0xfffffefc
    1fd4:	34053020 	strcc	r3, [r5], #-32	; 0xffffffe0
    1fd8:	200f052e 	andcs	r0, pc, lr, lsr #10
    1fdc:	054c1405 	strbeq	r1, [ip, #-1029]	; 0xfffffbfb
    1fe0:	0f052e0a 	svceq	0x00052e0a
    1fe4:	10054030 	andne	r4, r5, r0, lsr r0
    1fe8:	2e06052f 	cfsh32cs	mvfx0, mvfx6, #31
    1fec:	05301005 	ldreq	r1, [r0, #-5]!
    1ff0:	10052e1c 	andne	r2, r5, ip, lsl lr
    1ff4:	1e054e2e 	cdpne	14, 0, cr4, cr5, cr14, {1}
    1ff8:	2e13052e 	cfmul64cs	mvdx0, mvdx3, mvdx14
    1ffc:	05201005 	streq	r1, [r0, #-5]!
    2000:	2705412b 	strcs	r4, [r5, -fp, lsr #2]
    2004:	3c180574 	cfldr32cc	mvfx0, [r8], {116}	; 0x74
    2008:	02590105 	subseq	r0, r9, #1073741825	; 0x40000001
    200c:	01010004 	tsteq	r1, r4
    2010:	05002505 	streq	r2, [r0, #-1285]	; 0xfffffafb
    2014:	00000002 	andeq	r0, r0, r2
    2018:	00fc0300 	rscseq	r0, ip, r0, lsl #6
    201c:	4c040501 	cfstr32mi	mvfx0, [r4], {1}
    2020:	674c1105 	strbvs	r1, [ip, -r5, lsl #2]
    2024:	16030105 	strne	r0, [r3], -r5, lsl #2
    2028:	03090566 	movweq	r0, #38246	; 0x9566
    202c:	1105206c 	tstne	r5, ip, rrx
    2030:	0105674c 	tsteq	r5, ip, asr #14
    2034:	05661103 	strbeq	r1, [r6, #-259]!	; 0xfffffefd
    2038:	20710309 	rsbscs	r0, r1, r9, lsl #6
    203c:	674c1105 	strbvs	r1, [ip, -r5, lsl #2]
    2040:	0c030105 	stfeqs	f0, [r3], {5}
    2044:	03090566 	movweq	r0, #38246	; 0x9566
    2048:	11052076 	tstne	r5, r6, ror r0
    204c:	0105674c 	tsteq	r5, ip, asr #14
    2050:	1b09056d 	blne	24360c <_Min_Stack_Size+0x24320c>
    2054:	674c1105 	strbvs	r1, [ip, -r5, lsl #2]
    2058:	02680105 	rsbeq	r0, r8, #1073741825	; 0x40000001
    205c:	01010012 	tsteq	r1, r2, lsl r0
    2060:	05003c05 	streq	r3, [r0, #-3077]	; 0xfffff3fb
    2064:	00000002 	andeq	r0, r0, r2
    2068:	01a30300 			; <UNDEFINED> instruction: 0x01a30300
    206c:	680e0501 	stmdavs	lr, {r0, r8, sl}
    2070:	052e1405 	streq	r1, [lr, #-1029]!	; 0xfffffbfb
    2074:	0e052e04 	cdpeq	14, 0, cr2, cr5, cr4, {0}
    2078:	09053f2f 	stmdbeq	r5, {r0, r1, r2, r3, r5, r8, r9, sl, fp, ip, sp}
    207c:	21010530 	tstcs	r1, r0, lsr r5
    2080:	01000502 	tsteq	r0, r2, lsl #10
    2084:	002b0501 	eoreq	r0, fp, r1, lsl #10
    2088:	00000205 	andeq	r0, r0, r5, lsl #4
    208c:	b5030000 	strlt	r0, [r3, #-0]
    2090:	1e050101 	adfnes	f0, f5, f1
    2094:	2e0d054c 	cfsh32cs	mvfx0, mvfx13, #44
    2098:	05210905 	streq	r0, [r1, #-2309]!	; 0xfffff6fb
    209c:	05022101 	streq	r2, [r2, #-257]	; 0xfffffeff
    20a0:	05010100 	streq	r0, [r1, #-256]	; 0xffffff00
    20a4:	02050036 	andeq	r0, r5, #54	; 0x36
    20a8:	08000cdc 	stmdaeq	r0, {r2, r3, r4, r6, r7, sl, fp}
    20ac:	0101c503 	tsteq	r1, r3, lsl #10
    20b0:	05670f05 	strbeq	r0, [r7, #-3845]!	; 0xfffff0fb
    20b4:	0105200d 	tsteq	r5, sp
    20b8:	0005022f 	andeq	r0, r5, pc, lsr #4
    20bc:	48050101 	stmdami	r5, {r0, r8}
    20c0:	f8020500 			; <UNDEFINED> instruction: 0xf8020500
    20c4:	0308000c 	movweq	r0, #32780	; 0x800c
    20c8:	050101d2 	streq	r0, [r1, #-466]	; 0xfffffe2e
    20cc:	0f058304 	svceq	0x00058304
    20d0:	03010541 	movweq	r0, #5441	; 0x1541
    20d4:	0f053c0a 	svceq	0x00053c0a
    20d8:	200e051d 	andcs	r0, lr, sp, lsl r5
    20dc:	02310105 	eorseq	r0, r1, #1073741825	; 0x40000001
    20e0:	01010005 	tsteq	r1, r5
    20e4:	05003b05 	streq	r3, [r0, #-2821]	; 0xfffff4fb
    20e8:	00000002 	andeq	r0, r0, r2
    20ec:	01ed0300 	mvneq	r0, r0, lsl #6
    20f0:	670d0501 	strvs	r0, [sp, -r1, lsl #10]
    20f4:	02670105 	rsbeq	r0, r7, #1073741825	; 0x40000001
    20f8:	01010005 	tsteq	r1, r5
    20fc:	05003c05 	streq	r3, [r0, #-3077]	; 0xfffff3fb
    2100:	00000002 	andeq	r0, r0, r2
    2104:	01f90300 	mvnseq	r0, r0, lsl #6
    2108:	03140501 	tsteq	r4, #4194304	; 0x400000
    210c:	0705660b 	streq	r6, [r5, -fp, lsl #12]
    2110:	4c0e053d 	cfstr32mi	mvfx0, [lr], {61}	; 0x3d
    2114:	053e3e3e 	ldreq	r3, [lr, #-3646]!	; 0xfffff1c2
    2118:	15052e07 	strne	r2, [r5, #-3591]	; 0xfffff1f9
    211c:	2e050522 	cfsh32cs	mvfx0, mvfx5, #18
    2120:	052e0405 	streq	r0, [lr, #-1029]!	; 0xfffffbfb
    2124:	05312f0a 	ldreq	r2, [r1, #-3850]!	; 0xfffff0f6
    2128:	05022201 	streq	r2, [r2, #-513]	; 0xfffffdff
    212c:	Address 0x000000000000212c is out of bounds.


Disassembly of section .debug_str:

00000000 <.debug_str>:
       0:	38544e49 	ldmdacc	r4, {r0, r3, r6, r9, sl, fp, lr}^
       4:	58414d5f 	stmdapl	r1, {r0, r1, r2, r3, r4, r6, r8, sl, fp, lr}^
       8:	5f5f2820 	svcpl	0x005f2820
       c:	38544e49 	ldmdacc	r4, {r0, r3, r6, r9, sl, fp, lr}^
      10:	58414d5f 	stmdapl	r1, {r0, r1, r2, r3, r4, r6, r8, sl, fp, lr}^
      14:	00295f5f 	eoreq	r5, r9, pc, asr pc
      18:	4e475f5f 	mcrmi	15, 2, r5, cr7, cr15, {2}
      1c:	494c4355 	stmdbmi	ip, {r0, r2, r4, r6, r8, r9, lr}^
      20:	5f5f454b 	svcpl	0x005f454b
      24:	4345535f 	movtmi	r5, #21343	; 0x535f
      28:	4e4f4954 			; <UNDEFINED> instruction: 0x4e4f4954
      2c:	57003120 	strpl	r3, [r0, -r0, lsr #2]
      30:	5f544e49 	svcpl	0x00544e49
      34:	204e494d 	subcs	r4, lr, sp, asr #18
      38:	575f5f28 	ldrbpl	r5, [pc, -r8, lsr #30]
      3c:	5f544e49 	svcpl	0x00544e49
      40:	5f4e494d 	svcpl	0x004e494d
      44:	5f00295f 	svcpl	0x0000295f
      48:	4345445f 	movtmi	r4, #21599	; 0x545f
      4c:	4c414d49 	mcrrmi	13, 4, r4, r1, cr9
      50:	4749445f 	smlsldmi	r4, r9, pc, r4	; <UNPREDICTABLE>
      54:	31205f5f 			; <UNDEFINED> instruction: 0x31205f5f
      58:	5f5f0037 	svcpl	0x005f0037
      5c:	5f414855 	svcpl	0x00414855
      60:	54494246 	strbpl	r4, [r9], #-582	; 0xfffffdba
      64:	38205f5f 	stmdacc	r0!, {r0, r1, r2, r3, r4, r6, r8, r9, sl, fp, ip, lr}
      68:	535f5f00 	cmppl	pc, #0, 30
      6c:	5f444956 	svcpl	0x00444956
      70:	49534956 	ldmdbmi	r3, {r1, r2, r4, r6, r8, fp, lr}^
      74:	20454c42 	subcs	r4, r5, r2, asr #24
      78:	5f5f0031 	svcpl	0x005f0031
      7c:	32746e69 	rsbscc	r6, r4, #1680	; 0x690
      80:	322b2030 	eorcc	r2, fp, #48	; 0x30
      84:	41434d00 	cmpmi	r3, r0, lsl #26
      88:	50475f4c 	subpl	r5, r7, ip, asr #30
      8c:	495f4f49 	ldmdbmi	pc, {r0, r3, r6, r8, r9, sl, fp, lr}^	; <UNPREDICTABLE>
      90:	0074696e 	rsbseq	r6, r4, lr, ror #18
      94:	4854505f 	ldmdami	r4, {r0, r1, r2, r3, r4, r6, ip, lr}^
      98:	44414552 	strbmi	r4, [r1], #-1362	; 0xfffffaae
      9c:	434e4f5f 	movtmi	r4, #61279	; 0xef5f
      a0:	4e495f45 	cdpmi	15, 4, cr5, cr9, cr5, {2}
      a4:	7b205449 	blvc	8151d0 <_Min_Stack_Size+0x814dd0>
      a8:	202c3120 	eorcs	r3, ip, r0, lsr #2
      ac:	007d2030 	rsbseq	r2, sp, r0, lsr r0
      b0:	4c465f5f 	mcrrmi	15, 5, r5, r6, cr15
      b4:	5f343654 	svcpl	0x00343654
      b8:	4f4e4544 	svcmi	0x004e4544
      bc:	4d5f4d52 	ldclmi	13, cr4, [pc, #-328]	; ffffff7c <_estack+0xdfffaf7c>
      c0:	5f5f4e49 	svcpl	0x005f4e49
      c4:	392e3420 	stmdbcc	lr!, {r5, sl, ip, sp}
      c8:	35363034 	ldrcc	r3, [r6, #-52]!	; 0xffffffcc
      cc:	38353436 	ldmdacc	r5!, {r1, r2, r4, r5, sl, ip, sp}
      d0:	34323134 	ldrtcc	r3, [r2], #-308	; 0xfffffecc
      d4:	65343536 	ldrvs	r3, [r4, #-1334]!	; 0xfffffaca
      d8:	3432332d 	ldrtcc	r3, [r2], #-813	; 0xfffffcd3
      dc:	00343646 	eorseq	r3, r4, r6, asr #12
      e0:	43435f5f 	movtmi	r5, #16223	; 0x3f5f
      e4:	5055535f 	subspl	r5, r5, pc, asr r3
      e8:	54524f50 	ldrbpl	r4, [r2], #-3920	; 0xfffff0b0
      ec:	4e495f53 	mcrmi	15, 2, r5, cr9, cr3, {2}
      f0:	454e494c 	strbmi	r4, [lr, #-2380]	; 0xfffff6b4
      f4:	5f003120 	svcpl	0x00003120
      f8:	726e755f 	rsbvc	r7, lr, #398458880	; 0x17c00000
      fc:	68636165 	stmdavs	r3!, {r0, r2, r5, r6, r8, sp, lr}^
     100:	656c6261 	strbvs	r6, [ip, #-609]!	; 0xfffffd9f
     104:	5f202928 	svcpl	0x00202928
     108:	6975625f 	ldmdbvs	r5!, {r0, r1, r2, r3, r4, r6, r9, sp, lr}^
     10c:	6e69746c 	cdpvs	4, 6, cr7, cr9, cr12, {3}
     110:	726e755f 	rsbvc	r7, lr, #398458880	; 0x17c00000
     114:	68636165 	stmdavs	r3!, {r0, r2, r5, r6, r8, sp, lr}^
     118:	656c6261 	strbvs	r6, [ip, #-609]!	; 0xfffffd9f
     11c:	5f002928 	svcpl	0x00002928
     120:	4343475f 	movtmi	r4, #14175	; 0x375f
     124:	4f54415f 	svcmi	0x0054415f
     128:	5f43494d 	svcpl	0x0043494d
     12c:	41484357 	cmpmi	r8, r7, asr r3
     130:	5f545f52 	svcpl	0x00545f52
     134:	4b434f4c 	blmi	10d3e6c <_Min_Stack_Size+0x10d3a6c>
     138:	4552465f 	ldrbmi	r4, [r2, #-1631]	; 0xfffff9a1
     13c:	00322045 	eorseq	r2, r2, r5, asr #32
     140:	48435f5f 	stmdami	r3, {r0, r1, r2, r3, r4, r6, r8, r9, sl, fp, ip, lr}^
     144:	555f5241 	ldrbpl	r5, [pc, #-577]	; ffffff0b <_estack+0xdfffaf0b>
     148:	4749534e 	strbmi	r5, [r9, -lr, asr #6]
     14c:	5f44454e 	svcpl	0x0044454e
     150:	0031205f 	eorseq	r2, r1, pc, asr r0
     154:	706f7266 	rsbvc	r7, pc, r6, ror #4
     158:	5f286e65 	svcpl	0x00286e65
     15c:	6f6f635f 	svcvs	0x006f635f
     160:	2c65696b 			; <UNDEFINED> instruction: 0x2c65696b
     164:	6e665f5f 	mcrvs	15, 3, r5, cr6, cr15, {2}
     168:	75662029 	strbvc	r2, [r6, #-41]!	; 0xffffffd7
     16c:	65706f6e 	ldrbvs	r6, [r0, #-3950]!	; 0xfffff092
     170:	5f5f286e 	svcpl	0x005f286e
     174:	6b6f6f63 	blvs	1bdbf08 <_Min_Stack_Size+0x1bdbb08>
     178:	202c6569 	eorcs	r6, ip, r9, ror #10
     17c:	6e665f5f 	mcrvs	15, 3, r5, cr6, cr15, {2}
     180:	6928202c 	stmdbvs	r8!, {r2, r3, r5, sp}
     184:	2820746e 	stmdacs	r0!, {r1, r2, r3, r5, r6, sl, ip, sp, lr}
     188:	2928292a 	stmdbcs	r8!, {r1, r3, r5, r8, fp, sp}
     18c:	202c3029 	eorcs	r3, ip, r9, lsr #32
     190:	6f706628 	svcvs	0x00706628
     194:	20745f73 	rsbscs	r5, r4, r3, ror pc
     198:	28292a28 	stmdacs	r9!, {r3, r5, r9, fp, sp}
     19c:	2c302929 			; <UNDEFINED> instruction: 0x2c302929
     1a0:	6e692820 	cdpvs	8, 6, cr2, cr9, cr0, {1}
     1a4:	2a282074 	bcs	a0837c <_Min_Stack_Size+0xa07f7c>
     1a8:	29292829 	stmdbcs	r9!, {r0, r3, r5, fp, sp}
     1ac:	44002930 	strmi	r2, [r0], #-2352	; 0xfffff6d0
     1b0:	6d652f3a 	stclvs	15, cr2, [r5, #-232]!	; 0xffffff18
     1b4:	65646562 	strbvs	r6, [r4, #-1378]!	; 0xfffffa9e
     1b8:	79532064 	ldmdbvc	r3, {r2, r5, r6, sp}^
     1bc:	6d657473 	cfstrdvs	mvd7, [r5, #-460]!	; 0xfffffe34
     1c0:	54532f73 	ldrbpl	r2, [r3], #-3955	; 0xfffff08d
     1c4:	6972644d 	ldmdbvs	r2!, {r0, r2, r3, r6, sl, sp, lr}^
     1c8:	73726576 	cmnvc	r2, #494927872	; 0x1d800000
     1cc:	6d72412f 	ldfvse	f4, [r2, #-188]!	; 0xffffff44
     1d0:	646f4d5f 	strbtvs	r4, [pc], #-3423	; 1d8 <_Min_Heap_Size-0x28>
     1d4:	442f7365 	strtmi	r7, [pc], #-869	; 1dc <_Min_Heap_Size-0x24>
     1d8:	67756265 	ldrbvs	r6, [r5, -r5, ror #4]!
     1dc:	44505f00 	ldrbmi	r5, [r0], #-3840	; 0xfffff100
     1e0:	4e455f50 	mcrmi	15, 2, r5, cr5, cr0, {2}
     1e4:	4e414944 	vmlsmi.f16	s9, s2, s8	; <UNPREDICTABLE>
     1e8:	31343320 	teqcc	r4, r0, lsr #6
     1ec:	5f5f0032 	svcpl	0x005f0032
     1f0:	6b616577 	blvs	18597d4 <_Min_Stack_Size+0x18593d4>
     1f4:	6d79735f 	ldclvs	3, cr7, [r9, #-380]!	; 0xfffffe84
     1f8:	206c6f62 	rsbcs	r6, ip, r2, ror #30
     1fc:	74615f5f 	strbtvc	r5, [r1], #-3935	; 0xfffff0a1
     200:	62697274 	rsbvs	r7, r9, #116, 4	; 0x40000007
     204:	5f657475 	svcpl	0x00657475
     208:	5f28285f 	svcpl	0x0028285f
     20c:	6165775f 	cmnvs	r5, pc, asr r7
     210:	295f5f6b 	ldmdbcs	pc, {r0, r1, r3, r5, r6, r8, r9, sl, fp, ip, lr}^	; <UNPREDICTABLE>
     214:	5f5f0029 	svcpl	0x005f0029
     218:	36544c46 	ldrbcc	r4, [r4], -r6, asr #24
     21c:	41485f34 	cmpmi	r8, r4, lsr pc
     220:	4e495f53 	mcrmi	15, 2, r5, cr9, cr3, {2}
     224:	494e4946 	stmdbmi	lr, {r1, r2, r6, r8, fp, lr}^
     228:	5f5f5954 	svcpl	0x005f5954
     22c:	5f003120 	svcpl	0x00003120
     230:	6c63735f 	stclvs	3, cr7, [r3], #-380	; 0xfffffe84
     234:	65726165 	ldrbvs	r6, [r2, #-357]!	; 0xfffffe9b
     238:	70287272 	eorvc	r7, r8, r2, ror r2
     23c:	28282029 	stmdacs	r8!, {r0, r3, r5, sp}
     240:	64696f76 	strbtvs	r6, [r9], #-3958	; 0xfffff08a
     244:	70282829 	eorvc	r2, r8, r9, lsr #16
     248:	5f3e2d29 	svcpl	0x003e2d29
     24c:	67616c66 	strbvs	r6, [r1, -r6, ror #24]!
     250:	3d262073 	stccc	0, cr2, [r6, #-460]!	; 0xfffffe34
     254:	5f287e20 	svcpl	0x00287e20
     258:	5245535f 	subpl	r5, r5, #2080374785	; 0x7c000001
     25c:	5f5f7c52 	svcpl	0x005f7c52
     260:	464f4553 			; <UNDEFINED> instruction: 0x464f4553
     264:	00292929 	eoreq	r2, r9, r9, lsr #18
     268:	65725f5f 	ldrbvs	r5, [r2, #-3935]!	; 0xfffff0a1
     26c:	72697571 	rsbvc	r7, r9, #473956352	; 0x1c400000
     270:	655f7365 	ldrbvs	r7, [pc, #-869]	; ffffff13 <_estack+0xdfffaf13>
     274:	756c6378 	strbvc	r6, [ip, #-888]!	; 0xfffffc88
     278:	65766973 	ldrbvs	r6, [r6, #-2419]!	; 0xfffff68d
     27c:	2e2e2e28 	cdpcs	14, 2, cr2, cr14, cr8, {1}
     280:	5f5f2029 	svcpl	0x005f2029
     284:	6b636f6c 	blvs	18dc03c <_Min_Stack_Size+0x18dbc3c>
     288:	6e6e615f 	mcrvs	1, 3, r6, cr14, cr15, {2}
     28c:	7461746f 	strbtvc	r7, [r1], #-1135	; 0xfffffb91
     290:	78652865 	stmdavc	r5!, {r0, r2, r5, r6, fp, sp}^
     294:	73756c63 	cmnvc	r5, #25344	; 0x6300
     298:	5f657669 	svcpl	0x00657669
     29c:	6b636f6c 	blvs	18dc054 <_Min_Stack_Size+0x18dbc54>
     2a0:	65725f73 	ldrbvs	r5, [r2, #-3955]!	; 0xfffff08d
     2a4:	72697571 	rsbvc	r7, r9, #473956352	; 0x1c400000
     2a8:	5f286465 	svcpl	0x00286465
     2ac:	5f41565f 	svcpl	0x0041565f
     2b0:	53475241 	movtpl	r5, #29249	; 0x7241
     2b4:	29295f5f 	stmdbcs	r9!, {r0, r1, r2, r3, r4, r6, r8, r9, sl, fp, ip, lr}
     2b8:	45525f00 	ldrbmi	r5, [r2, #-3840]	; 0xfffff100
     2bc:	5f544e45 	svcpl	0x00544e45
     2c0:	444e4152 	strbmi	r4, [lr], #-338	; 0xfffffeae
     2c4:	415f3834 	cmpmi	pc, r4, lsr r8	; <UNPREDICTABLE>
     2c8:	70284444 	eorvc	r4, r8, r4, asr #8
     2cc:	20297274 	eorcs	r7, r9, r4, ror r2
     2d0:	74702828 	ldrbtvc	r2, [r0], #-2088	; 0xfffff7d8
     2d4:	3e2d2972 			; <UNDEFINED> instruction: 0x3e2d2972
     2d8:	3834725f 	ldmdacc	r4!, {r0, r1, r2, r3, r4, r6, r9, ip, sp, lr}
     2dc:	615f3e2d 	cmpvs	pc, sp, lsr #28
     2e0:	00296464 	eoreq	r6, r9, r4, ror #8
     2e4:	5f64636c 	svcpl	0x0064636c
     2e8:	61656c63 	cmnvs	r5, r3, ror #24
     2ec:	5f5f0072 	svcpl	0x005f0072
     2f0:	43414c4c 	movtmi	r4, #7244	; 0x1c4c
     2f4:	5f4d5543 	svcpl	0x004d5543
     2f8:	5f4e494d 	svcpl	0x004e494d
     2fc:	2d28205f 	stccs	0, cr2, [r8, #-380]!	; 0xfffffe84
     300:	50315830 	eorspl	r5, r1, r0, lsr r8
     304:	4c4c3133 	stfmie	f3, [ip], {51}	; 0x33
     308:	58302d4b 	ldmdapl	r0!, {r0, r1, r3, r6, r8, sl, fp, sp}
     30c:	31335031 	teqcc	r3, r1, lsr r0
     310:	294b4c4c 	stmdbcs	fp, {r2, r3, r6, sl, fp, lr}^
     314:	4c435f00 	mcrrmi	15, 0, r5, r3, cr0
     318:	5f4b434f 	svcpl	0x004b434f
     31c:	45445f54 	strbmi	r5, [r4, #-3924]	; 0xfffff0ac
     320:	52414c43 	subpl	r4, r1, #17152	; 0x4300
     324:	00204445 	eoreq	r4, r0, r5, asr #8
     328:	4f4c5f5f 	svcmi	0x004c5f5f
     32c:	495f4b43 	ldmdbmi	pc, {r0, r1, r6, r8, r9, fp, lr}^	; <UNPREDICTABLE>
     330:	2854494e 	ldmdacs	r4, {r1, r2, r3, r6, r8, fp, lr}^
     334:	73616c63 	cmnvc	r1, #25344	; 0x6300
     338:	6f6c2c73 	svcvs	0x006c2c73
     33c:	20296b63 	eorcs	r6, r9, r3, ror #22
     340:	65747865 	ldrbvs	r7, [r4, #-2149]!	; 0xfffff79b
     344:	73206e72 			; <UNDEFINED> instruction: 0x73206e72
     348:	63757274 	cmnvs	r5, #116, 4	; 0x40000007
     34c:	5f5f2074 	svcpl	0x005f2074
     350:	6b636f6c 	blvs	18dc108 <_Min_Stack_Size+0x18dbd08>
     354:	6c5f5f20 	mrrcvs	15, 2, r5, pc, cr0	; <UNPREDICTABLE>
     358:	5f6b636f 	svcpl	0x006b636f
     35c:	20232320 	eorcs	r2, r3, r0, lsr #6
     360:	6b636f6c 	blvs	18dc118 <_Min_Stack_Size+0x18dbd18>
     364:	6c63203b 	stclvs	0, cr2, [r3], #-236	; 0xffffff14
     368:	20737361 	rsbscs	r7, r3, r1, ror #6
     36c:	434f4c5f 	movtmi	r4, #64607	; 0xfc5f
     370:	20545f4b 	subscs	r5, r4, fp, asr #30
     374:	6b636f6c 	blvs	18dc12c <_Min_Stack_Size+0x18dbd2c>
     378:	26203d20 	strtcs	r3, [r0], -r0, lsr #26
     37c:	6f6c5f5f 	svcvs	0x006c5f5f
     380:	205f6b63 	subscs	r6, pc, r3, ror #22
     384:	6c202323 	stcvs	3, cr2, [r0], #-140	; 0xffffff74
     388:	006b636f 	rsbeq	r6, fp, pc, ror #6
     38c:	54505f5f 	ldrbpl	r5, [r0], #-3935	; 0xfffff0a1
     390:	46494452 			; <UNDEFINED> instruction: 0x46494452
     394:	414d5f46 	cmpmi	sp, r6, asr #30
     398:	205f5f58 	subscs	r5, pc, r8, asr pc	; <UNPREDICTABLE>
     39c:	66377830 			; <UNDEFINED> instruction: 0x66377830
     3a0:	66666666 	strbtvs	r6, [r6], -r6, ror #12
     3a4:	46006666 	strmi	r6, [r0], -r6, ror #12
     3a8:	4e45504f 	cdpmi	0, 4, cr5, cr5, cr15, {2}
     3ac:	58414d5f 	stmdapl	r1, {r0, r1, r2, r3, r4, r6, r8, sl, fp, lr}^
     3b0:	00303220 	eorseq	r3, r0, r0, lsr #4
     3b4:	4e4f4c5f 	mcrmi	12, 2, r4, cr15, cr15, {2}
     3b8:	4f445f47 	svcmi	0x00445f47
     3bc:	454c4255 	strbmi	r4, [ip, #-597]	; 0xfffffdab
     3c0:	6e6f6c20 	cdpvs	12, 6, cr6, cr15, cr0, {1}
     3c4:	6f642067 	svcvs	0x00642067
     3c8:	656c6275 	strbvs	r6, [ip, #-629]!	; 0xfffffd8b
     3cc:	54584500 	ldrbpl	r4, [r8], #-1280	; 0xfffffb00
     3d0:	495f3949 	ldmdbmi	pc, {r0, r3, r6, r8, fp, ip, sp}^	; <UNPREDICTABLE>
     3d4:	32205152 	eorcc	r5, r0, #-2147483628	; 0x80000014
     3d8:	5f5f0033 	svcpl	0x005f0033
     3dc:	4d544e49 	ldclmi	14, cr4, [r4, #-292]	; 0xfffffedc
     3e0:	435f5841 	cmpmi	pc, #4259840	; 0x410000
     3e4:	20296328 	eorcs	r6, r9, r8, lsr #6
     3e8:	23232063 			; <UNDEFINED> instruction: 0x23232063
     3ec:	004c4c20 	subeq	r4, ip, r0, lsr #24
     3f0:	4e49555f 	mcrmi	5, 2, r5, cr9, cr15, {2}
     3f4:	5f323354 	svcpl	0x00323354
     3f8:	45445f54 	strbmi	r5, [r4, #-3924]	; 0xfffff0ac
     3fc:	52414c43 	subpl	r4, r1, #17152	; 0x4300
     400:	00204445 	eoreq	r4, r0, r5, asr #8
     404:	4e495f5f 	mcrmi	15, 2, r5, cr9, cr15, {2}
     408:	58414d54 	stmdapl	r1, {r2, r4, r6, r8, sl, fp, lr}^
     40c:	58414d5f 	stmdapl	r1, {r0, r1, r2, r3, r4, r6, r8, sl, fp, lr}^
     410:	30205f5f 	eorcc	r5, r0, pc, asr pc
     414:	66663778 			; <UNDEFINED> instruction: 0x66663778
     418:	66666666 	strbtvs	r6, [r6], -r6, ror #12
     41c:	66666666 	strbtvs	r6, [r6], -r6, ror #12
     420:	66666666 	strbtvs	r6, [r6], -r6, ror #12
     424:	004c4c66 	subeq	r4, ip, r6, ror #24
     428:	4155515f 	cmpmi	r5, pc, asr r1
     42c:	4f4c5f44 	svcmi	0x004c5f44
     430:	524f5757 	subpl	r5, pc, #22806528	; 0x15c0000
     434:	00302044 	eorseq	r2, r0, r4, asr #32
     438:	51545f5f 	cmppl	r4, pc, asr pc
     43c:	4942495f 	stmdbmi	r2, {r0, r1, r2, r3, r4, r6, r8, fp, lr}^
     440:	205f5f54 	subscs	r5, pc, r4, asr pc	; <UNPREDICTABLE>
     444:	45530030 	ldrbmi	r0, [r3, #-48]	; 0xffffffd0
     448:	535f4b45 	cmppl	pc, #70656	; 0x11400
     44c:	30205445 	eorcc	r5, r0, r5, asr #8
     450:	465f5f00 	ldrbmi	r5, [pc], -r0, lsl #30
     454:	3436544c 	ldrtcc	r5, [r6], #-1100	; 0xfffffbb4
     458:	4345445f 	movtmi	r4, #21599	; 0x545f
     45c:	4c414d49 	mcrrmi	13, 4, r4, r1, cr9
     460:	4749445f 	smlsldmi	r4, r9, pc, r4	; <UNPREDICTABLE>
     464:	31205f5f 			; <UNDEFINED> instruction: 0x31205f5f
     468:	564e0037 			; <UNDEFINED> instruction: 0x564e0037
     46c:	495f4349 	ldmdbmi	pc, {r0, r3, r6, r8, r9, lr}^	; <UNPREDICTABLE>
     470:	30524543 	subscc	r4, r2, r3, asr #10
     474:	76282a20 	strtvc	r2, [r8], -r0, lsr #20
     478:	74616c6f 	strbtvc	r6, [r1], #-3183	; 0xfffff391
     47c:	20656c69 	rsbcs	r6, r5, r9, ror #24
     480:	746e6975 	strbtvc	r6, [lr], #-2421	; 0xfffff68b
     484:	745f3233 	ldrbvc	r3, [pc], #-563	; 48c <_Min_Stack_Size+0x8c>
     488:	28292a20 	stmdacs	r9!, {r5, r9, fp, sp}
     48c:	4349564e 	movtmi	r5, #38478	; 0x964e
     490:	5341425f 	movtpl	r4, #4703	; 0x125f
     494:	202b2045 	eorcs	r2, fp, r5, asr #32
     498:	30387830 	eorscc	r7, r8, r0, lsr r8
     49c:	525f0029 	subspl	r0, pc, #41	; 0x29
     4a0:	544e4545 	strbpl	r4, [lr], #-1349	; 0xfffffabb
     4a4:	4749535f 	smlsldmi	r5, r9, pc, r3	; <UNPREDICTABLE>
     4a8:	5f4c414e 	svcpl	0x004c414e
     4ac:	455a4953 	ldrbmi	r4, [sl, #-2387]	; 0xfffff6ad
     4b0:	00343220 	eorseq	r3, r4, r0, lsr #4
     4b4:	52485450 	subpl	r5, r8, #80, 8	; 0x50000000
     4b8:	5f444145 	svcpl	0x00444145
     4bc:	45484e49 	strbmi	r4, [r8, #-3657]	; 0xfffff1b7
     4c0:	5f544952 	svcpl	0x00544952
     4c4:	45484353 	strbmi	r4, [r8, #-851]	; 0xfffffcad
     4c8:	00312044 	eorseq	r2, r1, r4, asr #32
     4cc:	616d4b5f 	cmnvs	sp, pc, asr fp
     4d0:	73282078 			; <UNDEFINED> instruction: 0x73282078
     4d4:	6f657a69 	svcvs	0x00657a69
     4d8:	73282066 			; <UNDEFINED> instruction: 0x73282066
     4dc:	5f657a69 	svcpl	0x00657a69
     4e0:	3c202974 			; <UNDEFINED> instruction: 0x3c202974
     4e4:	2933203c 	ldmdbcs	r3!, {r2, r3, r4, r5, sp}
     4e8:	45525f00 	ldrbmi	r5, [r2, #-3840]	; 0xfffff100
     4ec:	5f544e45 	svcpl	0x00544e45
     4f0:	43454843 	movtmi	r4, #22595	; 0x5843
     4f4:	49535f4b 	ldmdbmi	r3, {r0, r1, r3, r6, r8, r9, sl, fp, ip, lr}^
     4f8:	4c414e47 	mcrrmi	14, 4, r4, r1, cr7
     4fc:	4655425f 			; <UNDEFINED> instruction: 0x4655425f
     500:	72617628 	rsbvc	r7, r1, #40, 12	; 0x2800000
     504:	525f2029 	subspl	r2, pc, #41	; 0x29
     508:	544e4545 	strbpl	r4, [lr], #-1349	; 0xfffffabb
     50c:	4548435f 	strbmi	r4, [r8, #-863]	; 0xfffffca1
     510:	76284b43 	strtvc	r4, [r8], -r3, asr #22
     514:	202c7261 	eorcs	r7, ip, r1, ror #4
     518:	6769735f 			; <UNDEFINED> instruction: 0x6769735f
     51c:	5f6c616e 	svcpl	0x006c616e
     520:	2c667562 	cfstr64cs	mvdx7, [r6], #-392	; 0xfffffe78
     524:	61686320 	cmnvs	r8, r0, lsr #6
     528:	2c2a2072 	stccs	0, cr2, [sl], #-456	; 0xfffffe38
     52c:	45525f20 	ldrbmi	r5, [r2, #-3872]	; 0xfffff0e0
     530:	5f544e45 	svcpl	0x00544e45
     534:	4e474953 			; <UNDEFINED> instruction: 0x4e474953
     538:	535f4c41 	cmppl	pc, #16640	; 0x4100
     53c:	2c455a49 	mcrrcs	10, 4, r5, r5, cr9
     540:	5f002920 	svcpl	0x00002920
     544:	414c555f 	cmpmi	ip, pc, asr r5
     548:	4d554343 	ldclmi	3, cr4, [r5, #-268]	; 0xfffffef4
     54c:	4942465f 	stmdbmi	r2, {r0, r1, r2, r3, r4, r6, r9, sl, lr}^
     550:	205f5f54 	subscs	r5, pc, r4, asr pc	; <UNPREDICTABLE>
     554:	5f003233 	svcpl	0x00003233
     558:	4843575f 	stmdami	r3, {r0, r1, r2, r3, r4, r6, r8, r9, sl, ip, lr}^
     55c:	4d5f5241 	lfmmi	f5, 2, [pc, #-260]	; 460 <_Min_Stack_Size+0x60>
     560:	5f5f5841 	svcpl	0x005f5841
     564:	66783020 	ldrbtvs	r3, [r8], -r0, lsr #32
     568:	66666666 	strbtvs	r6, [r6], -r6, ror #12
     56c:	55666666 	strbpl	r6, [r6, #-1638]!	; 0xfffff99a
     570:	735f5f00 	cmpvc	pc, #0, 30
     574:	63746567 	cmnvs	r4, #432013312	; 0x19c00000
     578:	5f28725f 	svcpl	0x0028725f
     57c:	7274705f 	rsbsvc	r7, r4, #95	; 0x5f
     580:	705f5f2c 	subsvc	r5, pc, ip, lsr #30
     584:	5f5f2029 	svcpl	0x005f2029
     588:	74656773 	strbtvc	r6, [r5], #-1907	; 0xfffff88d
     58c:	61725f63 	cmnvs	r2, r3, ror #30
     590:	28725f77 	ldmdacs	r2!, {r0, r1, r2, r4, r5, r6, r8, r9, sl, fp, ip, lr}^
     594:	74705f5f 	ldrbtvc	r5, [r0], #-3935	; 0xfffff0a1
     598:	5f202c72 	svcpl	0x00202c72
     59c:	0029705f 	eoreq	r7, r9, pc, asr r0
     5a0:	4f435f5f 	svcmi	0x00435f5f
     5a4:	5441434e 	strbpl	r4, [r1], #-846	; 0xfffffcb2
     5a8:	792c7828 	stmdbvc	ip!, {r3, r5, fp, ip, sp, lr}
     5ac:	5f5f2029 	svcpl	0x005f2029
     5b0:	434e4f43 	movtmi	r4, #61251	; 0xef43
     5b4:	28315441 	ldmdacs	r1!, {r0, r6, sl, ip, lr}
     5b8:	29792c78 	ldmdbcs	r9!, {r3, r4, r5, r6, sl, fp, sp}^
     5bc:	49564e00 	ldmdbmi	r6, {r9, sl, fp, lr}^
     5c0:	52495f43 	subpl	r5, r9, #268	; 0x10c
     5c4:	455f3651 	ldrbmi	r3, [pc, #-1617]	; ffffff7b <_estack+0xdfffaf7b>
     5c8:	30495458 	subcc	r5, r9, r8, asr r4
     5cc:	5349445f 	movtpl	r4, #37983	; 0x945f
     5d0:	454c4241 	strbmi	r4, [ip, #-577]	; 0xfffffdbf
     5d4:	564e2820 	strbpl	r2, [lr], -r0, lsr #16
     5d8:	495f4349 	ldmdbmi	pc, {r0, r3, r6, r8, r9, lr}^	; <UNPREDICTABLE>
     5dc:	30524543 	subscc	r4, r2, r3, asr #10
     5e0:	203d7c20 	eorscs	r7, sp, r0, lsr #24
     5e4:	363c3c31 			; <UNDEFINED> instruction: 0x363c3c31
     5e8:	5f5f0029 	svcpl	0x005f0029
     5ec:	43554e47 	cmpmi	r5, #1136	; 0x470
     5f0:	454b494c 	strbmi	r4, [fp, #-2380]	; 0xfffff6b4
     5f4:	545f5f5f 	ldrbpl	r5, [pc], #-3935	; 5fc <_Min_Stack_Size+0x1fc>
     5f8:	4f455059 	svcmi	0x00455059
     5fc:	00312046 	eorseq	r2, r1, r6, asr #32
     600:	6e695f5f 	mcrvs	15, 3, r5, cr9, cr15, {2}
     604:	5f303274 	svcpl	0x00303274
     608:	5047005f 	subpl	r0, r7, pc, asr r0
     60c:	5f444f49 	svcpl	0x00444f49
     610:	45534142 	ldrbmi	r4, [r3, #-322]	; 0xfffffebe
     614:	65502820 	ldrbvs	r2, [r0, #-2080]	; 0xfffff7e0
     618:	68706972 	ldmdavs	r0!, {r1, r4, r5, r6, r8, fp, sp, lr}^
     61c:	6c617265 	sfmvs	f7, 2, [r1], #-404	; 0xfffffe6c
     620:	41425f73 	hvcmi	9715	; 0x25f3
     624:	2b204553 	blcs	811b78 <_Min_Stack_Size+0x811778>
     628:	30783020 	rsbscc	r3, r8, r0, lsr #32
     62c:	31313030 	teqcc	r1, r0, lsr r0
     630:	55303034 	ldrpl	r3, [r0, #-52]!	; 0xffffffcc
     634:	5f00294c 	svcpl	0x0000294c
     638:	424e535f 	submi	r5, lr, #2080374785	; 0x7c000001
     63c:	78302046 	ldmdavc	r0!, {r1, r2, r6, sp}
     640:	32303030 	eorscc	r3, r0, #48	; 0x30
     644:	535f5f00 	cmppl	pc, #0, 30
     648:	4f455a49 	svcmi	0x00455a49
     64c:	4f4c5f46 	svcmi	0x004c5f46
     650:	4c5f474e 	mrrcmi	7, 4, r4, pc, cr14	; <UNPREDICTABLE>
     654:	5f474e4f 	svcpl	0x00474e4f
     658:	0038205f 	eorseq	r2, r8, pc, asr r0
     65c:	4f495047 	svcmi	0x00495047
     660:	444f4d5f 	strbmi	r4, [pc], #-3423	; 668 <_Min_Stack_Size+0x268>
     664:	554f5f45 	strbpl	r5, [pc, #-3909]	; fffff727 <_estack+0xdfffa727>
     668:	54555054 	ldrbpl	r5, [r5], #-84	; 0xffffffac
     66c:	2050505f 	subscs	r5, r0, pc, asr r0
     670:	30307830 	eorscc	r7, r0, r0, lsr r8
     674:	30303030 	eorscc	r3, r0, r0, lsr r0
     678:	00753430 	rsbseq	r3, r5, r0, lsr r4
     67c:	42445f5f 	submi	r5, r4, #380	; 0x17c
     680:	414d5f4c 	cmpmi	sp, ip, asr #30
     684:	30315f58 	eorscc	r5, r1, r8, asr pc
     688:	5058455f 	subspl	r4, r8, pc, asr r5
     68c:	33205f5f 			; <UNDEFINED> instruction: 0x33205f5f
     690:	5f003830 	svcpl	0x00003830
     694:	5343525f 	movtpl	r5, #12895	; 0x325f
     698:	535f4449 	cmppl	pc, #1224736768	; 0x49000000
     69c:	4352554f 	cmpmi	r2, #331350016	; 0x13c00000
     6a0:	29732845 	ldmdbcs	r3!, {r0, r2, r6, fp, sp}^
     6a4:	72747320 	rsbsvc	r7, r4, #32, 6	; 0x80000000
     6a8:	20746375 	rsbscs	r6, r4, r5, ror r3
     6ac:	61685f5f 	cmnvs	r8, pc, asr pc
     6b0:	5f006b63 	svcpl	0x00006b63
     6b4:	4152465f 	cmpmi	r2, pc, asr r6
     6b8:	4d5f5443 	cfldrdmi	mvd5, [pc, #-268]	; 5b4 <_Min_Stack_Size+0x1b4>
     6bc:	5f5f4e49 	svcpl	0x005f4e49
     6c0:	302d2820 	eorcc	r2, sp, r0, lsr #16
     6c4:	2d52352e 	cfldr64cs	mvdx3, [r2, #-184]	; 0xffffff48
     6c8:	52352e30 	eorspl	r2, r5, #48, 28	; 0x300
     6cc:	5f5f0029 	svcpl	0x005f0029
     6d0:	49534f50 	ldmdbmi	r3, {r4, r6, r8, r9, sl, fp, lr}^
     6d4:	49565f58 	ldmdbmi	r6, {r3, r4, r6, r8, r9, sl, fp, ip, lr}^
     6d8:	4c424953 	mcrrmi	9, 5, r4, r2, cr3	; <UNPREDICTABLE>
     6dc:	30322045 	eorscc	r2, r2, r5, asr #32
     6e0:	39303830 	ldmdbcc	r0!, {r4, r5, fp, ip, sp}
     6e4:	555f5f00 	ldrbpl	r5, [pc, #-3840]	; fffff7ec <_estack+0xdfffa7ec>
     6e8:	43434153 	movtmi	r4, #12627	; 0x3153
     6ec:	4d5f4d55 	ldclmi	13, cr4, [pc, #-340]	; 5a0 <_Min_Stack_Size+0x1a0>
     6f0:	5f5f5841 	svcpl	0x005f5841
     6f4:	46583020 	ldrbmi	r3, [r8], -r0, lsr #32
     6f8:	50464646 	subpl	r4, r6, r6, asr #12
     6fc:	4855382d 	ldmdami	r5, {r0, r2, r3, r5, fp, ip, sp}^
     700:	5f5f004b 	svcpl	0x005f004b
     704:	41524653 	cmpmi	r2, r3, asr r6
     708:	465f5443 	ldrbmi	r5, [pc], -r3, asr #8
     70c:	5f544942 	svcpl	0x00544942
     710:	0037205f 	eorseq	r2, r7, pc, asr r0
     714:	4e495f5f 	mcrmi	15, 2, r5, cr9, cr15, {2}
     718:	58414d54 	stmdapl	r1, {r2, r4, r6, r8, sl, fp, lr}^
     71c:	4449575f 	strbmi	r5, [r9], #-1887	; 0xfffff8a1
     720:	5f5f4854 	svcpl	0x005f4854
     724:	00343620 	eorseq	r3, r4, r0, lsr #12
     728:	4545525f 	strbmi	r5, [r5, #-607]	; 0xfffffda1
     72c:	4d5f544e 	cfldrdmi	mvd5, [pc, #-312]	; 5fc <_Min_Stack_Size+0x1fc>
     730:	54525342 	ldrbpl	r5, [r2], #-834	; 0xfffffcbe
     734:	5343574f 	movtpl	r5, #14159	; 0x374f
     738:	4154535f 	cmpmi	r4, pc, asr r3
     73c:	70284554 	eorvc	r4, r8, r4, asr r5
     740:	20297274 	eorcs	r7, r9, r4, ror r2
     744:	74702828 	ldrbtvc	r2, [r0], #-2088	; 0xfffff7d8
     748:	3e2d2972 			; <UNDEFINED> instruction: 0x3e2d2972
     74c:	73696d5f 	cmnvc	r9, #6080	; 0x17c0
     750:	5f3e2d63 	svcpl	0x003e2d63
     754:	7273626d 	rsbsvc	r6, r3, #-805306362	; 0xd0000006
     758:	63776f74 	cmnvs	r7, #116, 30	; 0x1d0
     75c:	74735f73 	ldrbtvc	r5, [r3], #-3955	; 0xfffff08d
     760:	29657461 	stmdbcs	r5!, {r0, r5, r6, sl, ip, sp, lr}^
     764:	415f5f00 	cmpmi	pc, r0, lsl #30
     768:	465f4d52 			; <UNDEFINED> instruction: 0x465f4d52
     76c:	55544145 	ldrbpl	r4, [r4, #-325]	; 0xfffffebb
     770:	425f4552 	subsmi	r4, pc, #343932928	; 0x14800000
     774:	5f363146 	svcpl	0x00363146
     778:	4c414353 	mcrrmi	3, 5, r4, r1, cr3
     77c:	415f5241 	cmpmi	pc, r1, asr #4
     780:	48544952 	ldmdami	r4, {r1, r4, r6, r8, fp, lr}^
     784:	4954454d 	ldmdbmi	r4, {r0, r2, r3, r6, r8, sl, lr}^
     788:	5f5f0043 	svcpl	0x005f0043
     78c:	495f5153 	ldmdbmi	pc, {r0, r1, r4, r6, r8, ip, lr}^	; <UNPREDICTABLE>
     790:	5f544942 	svcpl	0x00544942
     794:	0030205f 	eorseq	r2, r0, pc, asr r0
     798:	524f5f5f 	subpl	r5, pc, #380	; 0x17c
     79c:	5f524544 	svcpl	0x00524544
     7a0:	5f504450 	svcpl	0x00504450
     7a4:	49444e45 	stmdbmi	r4, {r0, r2, r6, r9, sl, fp, lr}^
     7a8:	5f5f4e41 	svcpl	0x005f4e41
     7ac:	31343320 	teqcc	r4, r0, lsr #6
     7b0:	5f5f0032 	svcpl	0x005f0032
     7b4:	455a4953 	ldrbmi	r4, [sl, #-2387]	; 0xfffff6ad
     7b8:	5059545f 	subspl	r5, r9, pc, asr r4
     7bc:	205f5f45 	subscs	r5, pc, r5, asr #30
     7c0:	69736e75 	ldmdbvs	r3!, {r0, r2, r4, r5, r6, r9, sl, fp, sp, lr}^
     7c4:	64656e67 	strbtvs	r6, [r5], #-3687	; 0xfffff199
     7c8:	746e6920 	strbtvc	r6, [lr], #-2336	; 0xfffff6e0
     7cc:	43475f00 	movtmi	r5, #32512	; 0x7f00
     7d0:	52575f43 	subspl	r5, r7, #268	; 0x10c
     7d4:	535f5041 	cmppl	pc, #65	; 0x41
     7d8:	4e494454 	mcrmi	4, 2, r4, cr9, cr4, {2}
     7dc:	20485f54 	subcs	r5, r8, r4, asr pc
     7e0:	465f5f00 	ldrbmi	r5, [pc], -r0, lsl #30
     7e4:	485f544c 	ldmdami	pc, {r2, r3, r6, sl, ip, lr}^	; <UNPREDICTABLE>
     7e8:	445f5341 	ldrbmi	r5, [pc], #-833	; 7f0 <_Min_Stack_Size+0x3f0>
     7ec:	524f4e45 	subpl	r4, pc, #1104	; 0x450
     7f0:	205f5f4d 	subscs	r5, pc, sp, asr #30
     7f4:	5f5f0031 	svcpl	0x005f0031
     7f8:	38544e49 	ldmdacc	r4, {r0, r3, r6, r9, sl, fp, lr}^
     7fc:	5059545f 	subspl	r5, r9, pc, asr r4
     800:	205f5f45 	subscs	r5, pc, r5, asr #30
     804:	6e676973 			; <UNDEFINED> instruction: 0x6e676973
     808:	63206465 			; <UNDEFINED> instruction: 0x63206465
     80c:	00726168 	rsbseq	r6, r2, r8, ror #2
     810:	52415f5f 	subpl	r5, r1, #380	; 0x17c
     814:	52415f4d 	subpl	r5, r1, #308	; 0x134
     818:	505f4843 	subspl	r4, pc, r3, asr #16
     81c:	49464f52 	stmdbmi	r6, {r1, r4, r6, r8, r9, sl, fp, lr}^
     820:	3720454c 	strcc	r4, [r0, -ip, asr #10]!
     824:	5f5f0037 	svcpl	0x005f0037
     828:	43415355 	movtmi	r5, #4949	; 0x1355
     82c:	5f4d5543 	svcpl	0x004d5543
     830:	5f4e494d 	svcpl	0x004e494d
     834:	2e30205f 	mrccs	0, 1, r2, cr0, cr15, {2}
     838:	4b485530 	blmi	1215d00 <_Min_Stack_Size+0x1215900>
     83c:	465f5f00 	ldrbmi	r5, [pc], -r0, lsl #30
     840:	3233544c 	eorscc	r5, r3, #76, 8	; 0x4c000000
     844:	4345445f 	movtmi	r4, #21599	; 0x545f
     848:	4c414d49 	mcrrmi	13, 4, r4, r1, cr9
     84c:	4749445f 	smlsldmi	r4, r9, pc, r4	; <UNPREDICTABLE>
     850:	39205f5f 	stmdbcc	r0!, {r0, r1, r2, r3, r4, r6, r8, r9, sl, fp, ip, lr}
     854:	72747300 	rsbsvc	r7, r4, #0, 6
     858:	66646f74 	uqsub16vs	r6, r4, r4
     85c:	72747320 	rsbsvc	r7, r4, #32, 6	; 0x80000000
     860:	00666f74 	rsbeq	r6, r6, r4, ror pc
     864:	444c5f5f 	strbmi	r5, [ip], #-3935	; 0xfffff0a1
     868:	4d5f4c42 	ldclmi	12, cr4, [pc, #-264]	; 768 <_Min_Stack_Size+0x368>
     86c:	455f4e49 	ldrbmi	r4, [pc, #-3657]	; fffffa2b <_estack+0xdfffaa2b>
     870:	5f5f5058 	svcpl	0x005f5058
     874:	312d2820 			; <UNDEFINED> instruction: 0x312d2820
     878:	29313230 	ldmdbcs	r1!, {r4, r5, r9, ip, sp}
     87c:	45525f00 	ldrbmi	r5, [r2, #-3840]	; 0xfffff100
     880:	5f544e45 	svcpl	0x00544e45
     884:	54494e49 	strbpl	r4, [r9], #-3657	; 0xfffff1b7
     888:	4e41525f 	mcrmi	2, 2, r5, cr1, cr15, {2}
     88c:	28383444 	ldmdacs	r8!, {r2, r6, sl, ip, sp}
     890:	29726176 	ldmdbcs	r2!, {r1, r2, r4, r5, r6, r8, sp, lr}^
     894:	206f6420 	rsbcs	r6, pc, r0, lsr #8
     898:	7473207b 	ldrbtvc	r2, [r3], #-123	; 0xffffff85
     89c:	74637572 	strbtvc	r7, [r3], #-1394	; 0xfffffa8e
     8a0:	65725f20 	ldrbvs	r5, [r2, #-3872]!	; 0xfffff0e0
     8a4:	20746e65 	rsbscs	r6, r4, r5, ror #28
     8a8:	20725f2a 	rsbscs	r5, r2, sl, lsr #30
     8ac:	7628203d 			; <UNDEFINED> instruction: 0x7628203d
     8b0:	3b297261 	blcc	a5d23c <_Min_Stack_Size+0xa5ce3c>
     8b4:	2d725f20 	ldclcs	15, cr5, [r2, #-128]!	; 0xffffff80
     8b8:	34725f3e 	ldrbtcc	r5, [r2], #-3902	; 0xfffff0c2
     8bc:	5f3e2d38 	svcpl	0x003e2d38
     8c0:	64656573 	strbtvs	r6, [r5], #-1395	; 0xfffffa8d
     8c4:	205d305b 	subscs	r3, sp, fp, asr r0
     8c8:	525f203d 	subspl	r2, pc, #61	; 0x3d
     8cc:	34444e41 	strbcc	r4, [r4], #-3649	; 0xfffff1bf
     8d0:	45535f38 	ldrbmi	r5, [r3, #-3896]	; 0xfffff0c8
     8d4:	305f4445 	subscc	r4, pc, r5, asr #8
     8d8:	725f203b 	subsvc	r2, pc, #59	; 0x3b
     8dc:	725f3e2d 	subsvc	r3, pc, #720	; 0x2d0
     8e0:	3e2d3834 	mcrcc	8, 1, r3, cr13, cr4, {1}
     8e4:	6565735f 	strbvs	r7, [r5, #-863]!	; 0xfffffca1
     8e8:	5d315b64 	vldmdbpl	r1!, {d5-<overflow reg d54>}
     8ec:	5f203d20 	svcpl	0x00203d20
     8f0:	444e4152 	strbmi	r4, [lr], #-338	; 0xfffffeae
     8f4:	535f3834 	cmppl	pc, #52, 16	; 0x340000
     8f8:	5f444545 	svcpl	0x00444545
     8fc:	5f203b31 	svcpl	0x00203b31
     900:	5f3e2d72 	svcpl	0x003e2d72
     904:	2d383472 	cfldrscs	mvf3, [r8, #-456]!	; 0xfffffe38
     908:	65735f3e 	ldrbvs	r5, [r3, #-3902]!	; 0xfffff0c2
     90c:	325b6465 	subscc	r6, fp, #1694498816	; 0x65000000
     910:	203d205d 	eorscs	r2, sp, sp, asr r0
     914:	4e41525f 	mcrmi	2, 2, r5, cr1, cr15, {2}
     918:	5f383444 	svcpl	0x00383444
     91c:	44454553 	strbmi	r4, [r5], #-1363	; 0xfffffaad
     920:	203b325f 	eorscs	r3, fp, pc, asr r2
     924:	3e2d725f 	mcrcc	2, 1, r7, cr13, cr15, {2}
     928:	3834725f 	ldmdacc	r4!, {r0, r1, r2, r3, r4, r6, r9, ip, sp, lr}
     92c:	6d5f3e2d 	ldclvs	14, cr3, [pc, #-180]	; 880 <_Min_Stack_Size+0x480>
     930:	5b746c75 	blpl	1d1bb0c <_Min_Stack_Size+0x1d1b70c>
     934:	3d205d30 	stccc	13, cr5, [r0, #-192]!	; 0xffffff40
     938:	41525f20 	cmpmi	r2, r0, lsr #30
     93c:	3834444e 	ldmdacc	r4!, {r1, r2, r3, r6, sl, lr}
     940:	4c554d5f 	mrrcmi	13, 5, r4, r5, cr15
     944:	3b305f54 	blcc	c1869c <_Min_Stack_Size+0xc1829c>
     948:	2d725f20 	ldclcs	15, cr5, [r2, #-128]!	; 0xffffff80
     94c:	34725f3e 	ldrbtcc	r5, [r2], #-3902	; 0xfffff0c2
     950:	5f3e2d38 	svcpl	0x003e2d38
     954:	746c756d 	strbtvc	r7, [ip], #-1389	; 0xfffffa93
     958:	205d315b 	subscs	r3, sp, fp, asr r1
     95c:	525f203d 	subspl	r2, pc, #61	; 0x3d
     960:	34444e41 	strbcc	r4, [r4], #-3649	; 0xfffff1bf
     964:	554d5f38 	strbpl	r5, [sp, #-3896]	; 0xfffff0c8
     968:	315f544c 	cmpcc	pc, ip, asr #8
     96c:	725f203b 	subsvc	r2, pc, #59	; 0x3b
     970:	725f3e2d 	subsvc	r3, pc, #720	; 0x2d0
     974:	3e2d3834 	mcrcc	8, 1, r3, cr13, cr4, {1}
     978:	6c756d5f 	ldclvs	13, cr6, [r5], #-380	; 0xfffffe84
     97c:	5d325b74 	vldmdbpl	r2!, {d5-<overflow reg d62>}
     980:	5f203d20 	svcpl	0x00203d20
     984:	444e4152 	strbmi	r4, [lr], #-338	; 0xfffffeae
     988:	4d5f3834 	ldclmi	8, cr3, [pc, #-208]	; 8c0 <_Min_Stack_Size+0x4c0>
     98c:	5f544c55 	svcpl	0x00544c55
     990:	5f203b32 	svcpl	0x00203b32
     994:	5f3e2d72 	svcpl	0x003e2d72
     998:	2d383472 	cfldrscs	mvf3, [r8, #-456]!	; 0xfffffe38
     99c:	64615f3e 	strbtvs	r5, [r1], #-3902	; 0xfffff0c2
     9a0:	203d2064 	eorscs	r2, sp, r4, rrx
     9a4:	4e41525f 	mcrmi	2, 2, r5, cr1, cr15, {2}
     9a8:	5f383444 	svcpl	0x00383444
     9ac:	3b444441 	blcc	1111ab8 <_Min_Stack_Size+0x11116b8>
     9b0:	2d725f20 	ldclcs	15, cr5, [r2, #-128]!	; 0xffffff80
     9b4:	34725f3e 	ldrbtcc	r5, [r2], #-3902	; 0xfffff0c2
     9b8:	5f3e2d38 	svcpl	0x003e2d38
     9bc:	646e6172 	strbtvs	r6, [lr], #-370	; 0xfffffe8e
     9c0:	78656e5f 	stmdavc	r5!, {r0, r1, r2, r3, r4, r6, r9, sl, fp, sp, lr}^
     9c4:	203d2074 	eorscs	r2, sp, r4, ror r0
     9c8:	7d203b31 	fstmdbxvc	r0!, {d3-d26}	;@ Deprecated
     9cc:	69687720 	stmdbvs	r8!, {r5, r8, r9, sl, ip, sp, lr}^
     9d0:	2820656c 	stmdacs	r0!, {r2, r3, r5, r6, r8, sl, sp, lr}
     9d4:	5f002930 	svcpl	0x00002930
     9d8:	42444c5f 	submi	r4, r4, #24320	; 0x5f00
     9dc:	414d5f4c 	cmpmi	sp, ip, asr #30
     9e0:	445f544e 	ldrbmi	r5, [pc], #-1102	; 9e8 <_Min_Stack_Size+0x5e8>
     9e4:	5f5f4749 	svcpl	0x005f4749
     9e8:	00333520 	eorseq	r3, r3, r0, lsr #10
     9ec:	4349564e 	movtmi	r5, #38478	; 0x964e
     9f0:	5152495f 	cmppl	r2, pc, asr r9
     9f4:	455f3332 	ldrbmi	r3, [pc, #-818]	; 6ca <_Min_Stack_Size+0x2ca>
     9f8:	39495458 	stmdbcc	r9, {r3, r4, r6, sl, ip, lr}^
     9fc:	455f355f 	ldrbmi	r3, [pc, #-1375]	; 4a5 <_Min_Stack_Size+0xa5>
     a00:	4c42414e 	stfmie	f4, [r2], {78}	; 0x4e
     a04:	4e282045 	cdpmi	0, 2, cr2, cr8, cr5, {2}
     a08:	5f434956 	svcpl	0x00434956
     a0c:	52455349 	subpl	r5, r5, #603979777	; 0x24000001
     a10:	3d7c2030 	ldclcc	0, cr2, [ip, #-192]!	; 0xffffff40
     a14:	3c3c3120 	ldfccs	f3, [ip], #-128	; 0xffffff80
     a18:	00293332 	eoreq	r3, r9, r2, lsr r3
     a1c:	5f544e49 	svcpl	0x00544e49
     a20:	54534146 	ldrbpl	r4, [r3], #-326	; 0xfffffeba
     a24:	4d5f3631 	ldclmi	6, cr3, [pc, #-196]	; 968 <_Min_Stack_Size+0x568>
     a28:	28204e49 	stmdacs	r0!, {r0, r3, r6, r9, sl, fp, lr}
     a2c:	495f5f2d 	ldmdbmi	pc, {r0, r2, r3, r5, r8, r9, sl, fp, ip, lr}^	; <UNPREDICTABLE>
     a30:	465f544e 	ldrbmi	r5, [pc], -lr, asr #8
     a34:	31545341 	cmpcc	r4, r1, asr #6
     a38:	414d5f36 	cmpmi	sp, r6, lsr pc
     a3c:	205f5f58 	subscs	r5, pc, r8, asr pc	; <UNPREDICTABLE>
     a40:	2931202d 	ldmdbcs	r1!, {r0, r2, r3, r5, sp}
     a44:	49504700 	ldmdbmi	r0, {r8, r9, sl, lr}^
     a48:	49505f4f 	ldmdbmi	r0, {r0, r1, r2, r3, r6, r8, r9, sl, fp, ip, lr}^
     a4c:	20395f4e 	eorscs	r5, r9, lr, asr #30
     a50:	69752828 	ldmdbvs	r5!, {r3, r5, fp, sp}^
     a54:	3631746e 	ldrtcc	r7, [r1], -lr, ror #8
     a58:	3029745f 	eorcc	r7, r9, pc, asr r4
     a5c:	30323078 	eorscc	r3, r2, r8, ror r0
     a60:	5f002930 	svcpl	0x00002930
     a64:	4e49555f 	mcrmi	5, 2, r5, cr9, cr15, {2}
     a68:	435f3854 	cmpmi	pc, #84, 16	; 0x540000
     a6c:	20296328 	eorcs	r6, r9, r8, lsr #6
     a70:	5f5f0063 	svcpl	0x005f0063
     a74:	31544e49 	cmpcc	r4, r9, asr #28
     a78:	59545f36 	ldmdbpl	r4, {r1, r2, r4, r5, r8, r9, sl, fp, ip, lr}^
     a7c:	5f5f4550 	svcpl	0x005f4550
     a80:	6f687320 	svcvs	0x00687320
     a84:	69207472 	stmdbvs	r0!, {r1, r4, r5, r6, sl, ip, sp, lr}
     a88:	5f00746e 	svcpl	0x0000746e
     a8c:	696c615f 	stmdbvs	ip!, {r0, r1, r2, r3, r4, r6, r8, sp, lr}^
     a90:	64656e67 	strbtvs	r6, [r5], #-3687	; 0xfffff199
     a94:	20297828 	eorcs	r7, r9, r8, lsr #16
     a98:	74615f5f 	strbtvc	r5, [r1], #-3935	; 0xfffff0a1
     a9c:	62697274 	rsbvs	r7, r9, #116, 4	; 0x40000007
     aa0:	5f657475 	svcpl	0x00657475
     aa4:	5f28285f 	svcpl	0x0028285f
     aa8:	696c615f 	stmdbvs	ip!, {r0, r1, r2, r3, r4, r6, r8, sp, lr}^
     aac:	64656e67 	strbtvs	r6, [r5], #-3687	; 0xfffff199
     ab0:	78285f5f 	stmdavc	r8!, {r0, r1, r2, r3, r4, r6, r8, r9, sl, fp, ip, lr}
     ab4:	00292929 	eoreq	r2, r9, r9, lsr #18
     ab8:	4c465f5f 	mcrrmi	15, 5, r5, r6, cr15
     abc:	5f343654 	svcpl	0x00343654
     ac0:	5f58414d 	svcpl	0x0058414d
     ac4:	2e31205f 	mrccs	0, 1, r2, cr1, cr15, {2}
     ac8:	36373937 			; <UNDEFINED> instruction: 0x36373937
     acc:	33313339 	teqcc	r1, #-469762048	; 0xe4000000
     ad0:	32363834 	eorscc	r3, r6, #52, 16	; 0x340000
     ad4:	37353133 			; <UNDEFINED> instruction: 0x37353133
     ad8:	30332b65 	eorscc	r2, r3, r5, ror #22
     adc:	34364638 	ldrtcc	r4, [r6], #-1592	; 0xfffff9c8
     ae0:	54505f00 	ldrbpl	r5, [r0], #-3840	; 0xfffff100
     ae4:	41455248 	cmpmi	r5, r8, asr #4
     ae8:	4f435f44 	svcmi	0x00435f44
     aec:	495f444e 	ldmdbmi	pc, {r1, r2, r3, r6, sl, lr}^	; <UNPREDICTABLE>
     af0:	4954494e 	ldmdbmi	r4, {r1, r2, r3, r6, r8, fp, lr}^
     af4:	5a494c41 	bpl	1253c00 <_Min_Stack_Size+0x1253800>
     af8:	28205245 	stmdacs	r0!, {r0, r2, r6, r9, ip, lr}
     afc:	68747028 	ldmdavs	r4!, {r3, r5, ip, sp, lr}^
     b00:	64616572 	strbtvs	r6, [r1], #-1394	; 0xfffffa8e
     b04:	6e6f635f 	mcrvs	3, 3, r6, cr15, cr15, {2}
     b08:	29745f64 	ldmdbcs	r4!, {r2, r5, r6, r8, r9, sl, fp, ip, lr}^
     b0c:	46783020 	ldrbtmi	r3, [r8], -r0, lsr #32
     b10:	46464646 	strbmi	r4, [r6], -r6, asr #12
     b14:	29464646 	stmdbcs	r6, {r1, r2, r6, r9, sl, lr}^
     b18:	49504700 	ldmdbmi	r0, {r8, r9, sl, lr}^
     b1c:	2820424f 	stmdacs	r0!, {r0, r1, r2, r3, r6, r9, lr}
     b20:	49504728 	ldmdbmi	r0, {r3, r5, r8, r9, sl, lr}^
     b24:	20745f4f 	rsbscs	r5, r4, pc, asr #30
     b28:	5047292a 	subpl	r2, r7, sl, lsr #18
     b2c:	5f424f49 	svcpl	0x00424f49
     b30:	45534142 	ldrbmi	r4, [r3, #-322]	; 0xfffffebe
     b34:	53520029 	cmppl	r2, #41	; 0x29
     b38:	49504720 	ldmdbmi	r0, {r5, r8, r9, sl, lr}^
     b3c:	49505f4f 	ldmdbmi	r0, {r0, r1, r2, r3, r6, r8, r9, sl, fp, ip, lr}^
     b40:	00385f4e 	eorseq	r5, r8, lr, asr #30
     b44:	4545525f 	strbmi	r5, [r5, #-607]	; 0xfffffda1
     b48:	575f544e 	ldrbpl	r5, [pc, -lr, asr #8]
     b4c:	54525343 	ldrbpl	r5, [r2], #-835	; 0xfffffcbd
     b50:	53424d4f 	movtpl	r4, #11599	; 0x2d4f
     b54:	4154535f 	cmpmi	r4, pc, asr r3
     b58:	70284554 	eorvc	r4, r8, r4, asr r5
     b5c:	20297274 	eorcs	r7, r9, r4, ror r2
     b60:	74702828 	ldrbtvc	r2, [r0], #-2088	; 0xfffff7d8
     b64:	3e2d2972 			; <UNDEFINED> instruction: 0x3e2d2972
     b68:	73696d5f 	cmnvc	r9, #6080	; 0x17c0
     b6c:	5f3e2d63 	svcpl	0x003e2d63
     b70:	72736377 	rsbsvc	r6, r3, #-603979775	; 0xdc000001
     b74:	626d6f74 	rsbvs	r6, sp, #116, 30	; 0x1d0
     b78:	74735f73 	ldrbtvc	r5, [r3], #-3955	; 0xfffff08d
     b7c:	29657461 	stmdbcs	r5!, {r0, r5, r6, sl, ip, sp, lr}^
     b80:	49504700 	ldmdbmi	r0, {r8, r9, sl, lr}^
     b84:	49505f4f 	ldmdbmi	r0, {r0, r1, r2, r3, r6, r8, r9, sl, fp, ip, lr}^
     b88:	20345f4e 	eorscs	r5, r4, lr, asr #30
     b8c:	69752828 	ldmdbvs	r5!, {r3, r5, fp, sp}^
     b90:	3631746e 	ldrtcc	r7, [r1], -lr, ror #8
     b94:	3029745f 	eorcc	r7, r9, pc, asr r4
     b98:	31303078 	teqcc	r0, r8, ror r0
     b9c:	5f002930 	svcpl	0x00002930
     ba0:	626e755f 	rsbvs	r7, lr, #398458880	; 0x17c00000
     ba4:	646e756f 	strbtvs	r7, [lr], #-1391	; 0xfffffa91
     ba8:	00206465 	eoreq	r6, r0, r5, ror #8
     bac:	4e495f5f 	mcrmi	15, 2, r5, cr9, cr15, {2}
     bb0:	22203854 	eorcs	r3, r0, #84, 16	; 0x540000
     bb4:	00226868 	eoreq	r6, r2, r8, ror #16
     bb8:	43475f5f 	movtmi	r5, #32607	; 0x7f5f
     bbc:	41485f43 	cmpmi	r8, r3, asr #30
     bc0:	535f4556 	cmppl	pc, #360710144	; 0x15800000
     bc4:	5f434e59 	svcpl	0x00434e59
     bc8:	504d4f43 	subpl	r4, sp, r3, asr #30
     bcc:	5f455241 	svcpl	0x00455241
     bd0:	5f444e41 	svcpl	0x00444e41
     bd4:	50415753 	subpl	r5, r1, r3, asr r7
     bd8:	3120315f 			; <UNDEFINED> instruction: 0x3120315f
     bdc:	544e4900 	strbpl	r4, [lr], #-2304	; 0xfffff700
     be0:	41454c5f 	cmpmi	r5, pc, asr ip
     be4:	36315453 			; <UNDEFINED> instruction: 0x36315453
     be8:	58414d5f 	stmdapl	r1, {r0, r1, r2, r3, r4, r6, r8, sl, fp, lr}^
     bec:	5f5f2820 	svcpl	0x005f2820
     bf0:	5f544e49 	svcpl	0x00544e49
     bf4:	5341454c 	movtpl	r4, #5452	; 0x154c
     bf8:	5f363154 	svcpl	0x00363154
     bfc:	5f58414d 	svcpl	0x0058414d
     c00:	5f00295f 	svcpl	0x0000295f
     c04:	53474953 	movtpl	r4, #31059	; 0x7953
     c08:	545f5445 	ldrbpl	r5, [pc], #-1093	; c10 <_Min_Stack_Size+0x810>
     c0c:	4345445f 	movtmi	r4, #21599	; 0x545f
     c10:	4552414c 	ldrbmi	r4, [r2, #-332]	; 0xfffffeb4
     c14:	5f002044 	svcpl	0x00002044
     c18:	4e49555f 	mcrmi	5, 2, r5, cr9, cr15, {2}
     c1c:	454c5f54 	strbmi	r5, [ip, #-3924]	; 0xfffff0ac
     c20:	31545341 	cmpcc	r4, r1, asr #6
     c24:	414d5f36 	cmpmi	sp, r6, lsr pc
     c28:	205f5f58 	subscs	r5, pc, r8, asr pc	; <UNPREDICTABLE>
     c2c:	66667830 			; <UNDEFINED> instruction: 0x66667830
     c30:	5f006666 	svcpl	0x00006666
     c34:	4454535f 	ldrbmi	r5, [r4], #-863	; 0xfffffca1
     c38:	4f485f43 	svcmi	0x00485f43
     c3c:	44455453 	strbmi	r5, [r5], #-1107	; 0xfffffbad
     c40:	31205f5f 			; <UNDEFINED> instruction: 0x31205f5f
     c44:	555f5f00 	ldrbpl	r5, [pc, #-3840]	; fffffd4c <_estack+0xdfffad4c>
     c48:	52464c4c 	subpl	r4, r6, #76, 24	; 0x4c00
     c4c:	5f544341 	svcpl	0x00544341
     c50:	54494246 	strbpl	r4, [r9], #-582	; 0xfffffdba
     c54:	36205f5f 	qsaxcc	r5, r0, pc	; <UNPREDICTABLE>
     c58:	2e2e0034 	mcrcs	0, 1, r0, cr14, cr4, {1}
     c5c:	4c41482f 	mcrrmi	8, 2, r4, r1, cr15
     c60:	44434c2f 	strbmi	r4, [r3], #-3119	; 0xfffff3d1
     c64:	64636c2f 	strbtvs	r6, [r3], #-3119	; 0xfffff3d1
     c68:	5f00632e 	svcpl	0x0000632e
     c6c:	4c42444c 	cfstrdmi	mvd4, [r2], {76}	; 0x4c
     c70:	5f51455f 	svcpl	0x0051455f
     c74:	204c4244 	subcs	r4, ip, r4, asr #4
     c78:	545f0031 	ldrbpl	r0, [pc], #-49	; c80 <_Min_Stack_Size+0x880>
     c7c:	52454d49 	subpl	r4, r5, #4672	; 0x1240
     c80:	445f545f 	ldrbmi	r5, [pc], #-1119	; c88 <_Min_Stack_Size+0x888>
     c84:	414c4345 	cmpmi	ip, r5, asr #6
     c88:	20444552 	subcs	r4, r4, r2, asr r5
     c8c:	495f5f00 	ldmdbmi	pc, {r8, r9, sl, fp, ip, lr}^	; <UNPREDICTABLE>
     c90:	465f544e 	ldrbmi	r5, [pc], -lr, asr #8
     c94:	36545341 	ldrbcc	r5, [r4], -r1, asr #6
     c98:	59545f34 	ldmdbpl	r4, {r2, r4, r5, r8, r9, sl, fp, ip, lr}^
     c9c:	5f5f4550 	svcpl	0x005f4550
     ca0:	6e6f6c20 	cdpvs	12, 6, cr6, cr15, cr0, {1}
     ca4:	6f6c2067 	svcvs	0x006c2067
     ca8:	6920676e 	stmdbvs	r0!, {r1, r2, r3, r5, r6, r8, r9, sl, sp, lr}
     cac:	5f00746e 	svcpl	0x0000746e
     cb0:	4d52415f 	ldfmie	f4, [r2, #-380]	; 0xfffffe84
     cb4:	4145465f 	cmpmi	r5, pc, asr r6
     cb8:	45525554 	ldrbmi	r5, [r2, #-1364]	; 0xfffffaac
     cbc:	504f435f 	subpl	r4, pc, pc, asr r3	; <UNPREDICTABLE>
     cc0:	20434f52 	subcs	r4, r3, r2, asr pc
     cc4:	5f003531 	svcpl	0x00003531
     cc8:	5449425f 	strbpl	r4, [r9], #-607	; 0xfffffda1
     ccc:	5059545f 	subspl	r5, r9, pc, asr r4
     cd0:	445f5345 	ldrbmi	r5, [pc], #-837	; cd8 <_Min_Stack_Size+0x8d8>
     cd4:	4e494645 	cdpmi	6, 4, cr4, cr9, cr5, {2}
     cd8:	5f5f4445 	svcpl	0x005f4445
     cdc:	47003120 	strmi	r3, [r0, -r0, lsr #2]
     ce0:	5f4f4950 	svcpl	0x004f4950
     ce4:	5f5f0074 	svcpl	0x005f0074
     ce8:	455a4953 	ldrbmi	r4, [sl, #-2387]	; 0xfffff6ad
     cec:	5f5f545f 	svcpl	0x005f545f
     cf0:	54500020 	ldrbpl	r0, [r0], #-32	; 0xffffffe0
     cf4:	46494452 			; <UNDEFINED> instruction: 0x46494452
     cf8:	414d5f46 	cmpmi	sp, r6, asr #30
     cfc:	5f282058 	svcpl	0x00282058
     d00:	5254505f 	subspl	r5, r4, #95	; 0x5f
     d04:	46464944 	strbmi	r4, [r6], -r4, asr #18
     d08:	58414d5f 	stmdapl	r1, {r0, r1, r2, r3, r4, r6, r8, sl, fp, lr}^
     d0c:	00295f5f 	eoreq	r5, r9, pc, asr pc
     d10:	4c465f5f 	mcrrmi	15, 5, r5, r6, cr15
     d14:	5f323354 	svcpl	0x00323354
     d18:	5f58414d 	svcpl	0x0058414d
     d1c:	455f3031 	ldrbmi	r3, [pc, #-49]	; cf3 <_Min_Stack_Size+0x8f3>
     d20:	5f5f5058 	svcpl	0x005f5058
     d24:	00383320 	eorseq	r3, r8, r0, lsr #6
     d28:	46464f5f 			; <UNDEFINED> instruction: 0x46464f5f
     d2c:	445f545f 	ldrbmi	r5, [pc], #-1119	; d34 <_Min_Stack_Size+0x934>
     d30:	414c4345 	cmpmi	ip, r5, asr #6
     d34:	20444552 	subcs	r4, r4, r2, asr r5
     d38:	4c4e5f00 	mcrrmi	15, 0, r5, lr, cr0
     d3c:	5f4b4e49 	svcpl	0x004b4e49
     d40:	45445f54 	strbmi	r5, [r4, #-3924]	; 0xfffff0ac
     d44:	52414c43 	subpl	r4, r1, #17152	; 0x4300
     d48:	00204445 	eoreq	r4, r0, r5, asr #8
     d4c:	4545525f 	strbmi	r5, [r5, #-607]	; 0xfffffda1
     d50:	435f544e 	cmpmi	pc, #1308622848	; 0x4e000000
     d54:	4b434548 	blmi	10d227c <_Min_Stack_Size+0x10d1e7c>
     d58:	284d545f 	stmdacs	sp, {r0, r1, r2, r3, r4, r6, sl, ip, lr}^
     d5c:	29726176 	ldmdbcs	r2!, {r1, r2, r4, r5, r6, r8, sp, lr}^
     d60:	45525f20 	ldrbmi	r5, [r2, #-3872]	; 0xfffff0e0
     d64:	5f544e45 	svcpl	0x00544e45
     d68:	43454843 	movtmi	r4, #22595	; 0x5843
     d6c:	6176284b 	cmnvs	r6, fp, asr #16
     d70:	5f202c72 	svcpl	0x00202c72
     d74:	61636f6c 	cmnvs	r3, ip, ror #30
     d78:	6d69746c 	cfstrdvs	mvd7, [r9, #-432]!	; 0xfffffe50
     d7c:	75625f65 	strbvc	r5, [r2, #-3941]!	; 0xfffff09b
     d80:	73202c66 			; <UNDEFINED> instruction: 0x73202c66
     d84:	63757274 	cmnvs	r5, #116, 4	; 0x40000007
     d88:	5f5f2074 	svcpl	0x005f2074
     d8c:	2a206d74 	bcs	81c364 <_Min_Stack_Size+0x81bf64>
     d90:	6973202c 	ldmdbvs	r3!, {r2, r3, r5, sp}^
     d94:	666f657a 			; <UNDEFINED> instruction: 0x666f657a
     d98:	28282a20 	stmdacs	r8!, {r5, r9, fp, sp}
     d9c:	29726176 	ldmdbcs	r2!, {r1, r2, r4, r5, r6, r8, sp, lr}^
     da0:	6c5f3e2d 	mrrcvs	14, 2, r3, pc, cr13	; <UNPREDICTABLE>
     da4:	6c61636f 	stclvs	3, cr6, [r1], #-444	; 0xfffffe44
     da8:	656d6974 	strbvs	r6, [sp, #-2420]!	; 0xfffff68c
     dac:	6675625f 			; <UNDEFINED> instruction: 0x6675625f
     db0:	29202c29 	stmdbcs	r0!, {r0, r3, r5, sl, fp, sp}
     db4:	645f5f00 	ldrbvs	r5, [pc], #-3840	; dbc <_Min_Stack_Size+0x9bc>
     db8:	72646461 	rsbvc	r6, r4, #1627389952	; 0x61000000
     dbc:	645f745f 	ldrbvs	r7, [pc], #-1119	; dc4 <_Min_Stack_Size+0x9c4>
     dc0:	6e696665 	cdpvs	6, 6, cr6, cr9, cr5, {3}
     dc4:	00206465 	eoreq	r6, r0, r5, ror #8
     dc8:	53555f5f 	cmppl	r5, #380	; 0x17c
     dcc:	43415246 	movtmi	r5, #4678	; 0x1246
     dd0:	414d5f54 	cmpmi	sp, r4, asr pc
     dd4:	205f5f58 	subscs	r5, pc, r8, asr pc	; <UNPREDICTABLE>
     dd8:	46465830 			; <UNDEFINED> instruction: 0x46465830
     ddc:	55382d50 	ldrpl	r2, [r8, #-3408]!	; 0xfffff2b0
     de0:	4c005248 	sfmmi	f5, 4, [r0], {72}	; 0x48
     de4:	435f4443 	cmpmi	pc, #1124073472	; 0x43000000
     de8:	4f535255 	svcmi	0x00535255
     dec:	4f4d5f52 	svcmi	0x004d5f52
     df0:	535f4556 	cmppl	pc, #360710144	; 0x15800000
     df4:	54464948 	strbpl	r4, [r6], #-2376	; 0xfffff6b8
     df8:	46454c5f 			; <UNDEFINED> instruction: 0x46454c5f
     dfc:	78302054 	ldmdavc	r0!, {r2, r4, r6, sp}
     e00:	4c003031 	stcmi	0, cr3, [r0], {49}	; 0x31
     e04:	525f4443 	subspl	r4, pc, #1124073472	; 0x43000000
     e08:	49505f53 	ldmdbmi	r0, {r0, r1, r4, r6, r8, r9, sl, fp, ip, lr}^
     e0c:	0030204e 	eorseq	r2, r0, lr, asr #32
     e10:	49555f5f 	ldmdbmi	r5, {r0, r1, r2, r3, r4, r6, r8, r9, sl, fp, ip, lr}^
     e14:	5450544e 	ldrbpl	r5, [r0], #-1102	; 0xfffffbb2
     e18:	414d5f52 	cmpmi	sp, r2, asr pc
     e1c:	205f5f58 	subscs	r5, pc, r8, asr pc	; <UNPREDICTABLE>
     e20:	66667830 			; <UNDEFINED> instruction: 0x66667830
     e24:	66666666 	strbtvs	r6, [r6], -r6, ror #12
     e28:	00556666 	subseq	r6, r5, r6, ror #12
     e2c:	4c465f5f 	mcrrmi	15, 5, r5, r6, cr15
     e30:	5f323354 	svcpl	0x00323354
     e34:	5f474944 	svcpl	0x00474944
     e38:	0036205f 	eorseq	r2, r6, pc, asr r0
     e3c:	656e5f5f 	strbvs	r5, [lr, #-3935]!	; 0xfffff0a1
     e40:	775f6465 	ldrbvc	r6, [pc, -r5, ror #8]
     e44:	72616863 	rsbvc	r6, r1, #6488064	; 0x630000
     e48:	5f00745f 	svcpl	0x0000745f
     e4c:	544c465f 	strbpl	r4, [ip], #-1631	; 0xfffff9a1
     e50:	4d5f3233 	lfmmi	f3, 2, [pc, #-204]	; d8c <_Min_Stack_Size+0x98c>
     e54:	455f4e49 	ldrbmi	r4, [pc, #-3657]	; 13 <_Min_Heap_Size-0x1ed>
     e58:	5f5f5058 	svcpl	0x005f5058
     e5c:	312d2820 			; <UNDEFINED> instruction: 0x312d2820
     e60:	00293532 	eoreq	r3, r9, r2, lsr r5
     e64:	65725f5f 	ldrbvs	r5, [r2, #-3935]!	; 0xfffff0a1
     e68:	746c7573 	strbtvc	r7, [ip], #-1395	; 0xfffffa8d
     e6c:	6573755f 	ldrbvs	r7, [r3, #-1375]!	; 0xfffffaa1
     e70:	6568635f 	strbvs	r6, [r8, #-863]!	; 0xfffffca1
     e74:	5f206b63 	svcpl	0x00206b63
     e78:	7474615f 	ldrbtvc	r6, [r4], #-351	; 0xfffffea1
     e7c:	75626972 	strbvc	r6, [r2, #-2418]!	; 0xfffff68e
     e80:	5f5f6574 	svcpl	0x005f6574
     e84:	5f5f2828 	svcpl	0x005f2828
     e88:	6e726177 	mrcvs	1, 3, r6, cr2, cr7, {3}
     e8c:	756e755f 	strbvc	r7, [lr, #-1375]!	; 0xfffffaa1
     e90:	5f646573 	svcpl	0x00646573
     e94:	75736572 	ldrbvc	r6, [r3, #-1394]!	; 0xfffffa8e
     e98:	5f5f746c 	svcpl	0x005f746c
     e9c:	52002929 	andpl	r2, r0, #671744	; 0xa4000
     ea0:	475f4343 	ldrbmi	r4, [pc, -r3, asr #6]
     ea4:	434f4950 	movtmi	r4, #63824	; 0xf950
     ea8:	4b4c435f 	blmi	1311c2c <_Min_Stack_Size+0x131182c>
     eac:	284e455f 	stmdacs	lr, {r0, r1, r2, r3, r4, r6, r8, sl, lr}^
     eb0:	52282029 	eorpl	r2, r8, #41	; 0x29
     eb4:	3e2d4343 	cdpcc	3, 2, cr4, cr13, cr3, {2}
     eb8:	32425041 	subcc	r5, r2, #65	; 0x41
     ebc:	20524e45 	subscs	r4, r2, r5, asr #28
     ec0:	31203d7c 			; <UNDEFINED> instruction: 0x31203d7c
     ec4:	203c3c20 	eorscs	r3, ip, r0, lsr #24
     ec8:	5f002934 	svcpl	0x00002934
     ecc:	5f445342 	svcpl	0x00445342
     ed0:	44525450 	ldrbmi	r5, [r2], #-1104	; 0xfffffbb0
     ed4:	5f464649 	svcpl	0x00464649
     ed8:	00205f54 	eoreq	r5, r0, r4, asr pc
     edc:	31544e49 	cmpcc	r4, r9, asr #28
     ee0:	414d5f36 	cmpmi	sp, r6, lsr pc
     ee4:	5f282058 	svcpl	0x00282058
     ee8:	544e495f 	strbpl	r4, [lr], #-2399	; 0xfffff6a1
     eec:	4d5f3631 	ldclmi	6, cr3, [pc, #-196]	; e30 <_Min_Stack_Size+0xa30>
     ef0:	5f5f5841 	svcpl	0x005f5841
     ef4:	4d5f0029 	ldclmi	0, cr0, [pc, #-164]	; e58 <_Min_Stack_Size+0xa58>
     ef8:	5f45444f 	svcpl	0x0045444f
     efc:	45445f54 	strbmi	r5, [r4, #-3924]	; 0xfffff0ac
     f00:	52414c43 	subpl	r4, r1, #17152	; 0x4300
     f04:	00204445 	eoreq	r4, r0, r5, asr #8
     f08:	4c555f5f 	mrrcmi	15, 5, r5, r5, cr15	; <UNPREDICTABLE>
     f0c:	43415246 	movtmi	r5, #4678	; 0x1246
     f10:	42465f54 	submi	r5, r6, #84, 30	; 0x150
     f14:	5f5f5449 	svcpl	0x005f5449
     f18:	00323320 	eorseq	r3, r2, r0, lsr #6
     f1c:	4349564e 	movtmi	r5, #38478	; 0x964e
     f20:	5152495f 	cmppl	r2, pc, asr r9
     f24:	58455f39 	stmdapl	r5, {r0, r3, r4, r5, r8, r9, sl, fp, ip, lr}^
     f28:	5f334954 	svcpl	0x00334954
     f2c:	41534944 	cmpmi	r3, r4, asr #18
     f30:	20454c42 	subcs	r4, r5, r2, asr #24
     f34:	49564e28 	ldmdbmi	r6, {r3, r5, r9, sl, fp, lr}^
     f38:	43495f43 	movtmi	r5, #40771	; 0x9f43
     f3c:	20305245 	eorscs	r5, r0, r5, asr #4
     f40:	31203d7c 			; <UNDEFINED> instruction: 0x31203d7c
     f44:	29393c3c 	ldmdbcs	r9!, {r2, r3, r4, r5, sl, fp, ip, sp}
     f48:	49504700 	ldmdbmi	r0, {r8, r9, sl, lr}^
     f4c:	49505f4f 	ldmdbmi	r0, {r0, r1, r2, r3, r6, r8, r9, sl, fp, ip, lr}^
     f50:	554e5f4e 	strbpl	r5, [lr, #-3918]	; 0xfffff0b2
     f54:	5245424d 	subpl	r4, r5, #-805306364	; 0xd0000004
     f58:	465f5f00 	ldrbmi	r5, [pc], -r0, lsl #30
     f5c:	3436544c 	ldrtcc	r5, [r6], #-1100	; 0xfffffbb4
     f60:	4e494d5f 	mcrmi	13, 2, r4, cr9, cr15, {2}
     f64:	5f30315f 	svcpl	0x0030315f
     f68:	5f505845 	svcpl	0x00505845
     f6c:	2d28205f 	stccs	0, cr2, [r8, #-380]!	; 0xfffffe84
     f70:	29373033 	ldmdbcs	r7!, {r0, r1, r4, r5, ip, sp}
     f74:	735f5f00 	cmpvc	pc, #0, 30
     f78:	5f657a69 	svcpl	0x00657a69
     f7c:	5f002074 	svcpl	0x00002074
     f80:	756f625f 	strbvc	r6, [pc, #-607]!	; d29 <_Min_Stack_Size+0x929>
     f84:	6465646e 	strbtvs	r6, [r5], #-1134	; 0xfffffb92
     f88:	5f5f0020 	svcpl	0x005f0020
     f8c:	5f746e69 	svcpl	0x00746e69
     f90:	74736166 	ldrbtvc	r6, [r3], #-358	; 0xfffffe9a
     f94:	745f3233 	ldrbvc	r3, [pc], #-563	; f9c <_Min_Stack_Size+0xb9c>
     f98:	6665645f 			; <UNDEFINED> instruction: 0x6665645f
     f9c:	64656e69 	strbtvs	r6, [r5], #-3689	; 0xfffff197
     fa0:	5f003120 	svcpl	0x00003120
     fa4:	544e495f 	strbpl	r4, [lr], #-2399	; 0xfffff6a1
     fa8:	5341465f 	movtpl	r4, #5727	; 0x165f
     fac:	5f343654 	svcpl	0x00343654
     fb0:	54444957 	strbpl	r4, [r4], #-2391	; 0xfffff6a9
     fb4:	205f5f48 	subscs	r5, pc, r8, asr #30
     fb8:	4c003436 	cfstrsmi	mvf3, [r0], {54}	; 0x36
     fbc:	455f4443 	ldrbmi	r4, [pc, #-1091]	; b81 <_Min_Stack_Size+0x781>
     fc0:	5245544e 	subpl	r5, r5, #1308622848	; 0x4e000000
     fc4:	4f4d5f59 	svcmi	0x004d5f59
     fc8:	445f4544 	ldrbmi	r4, [pc], #-1348	; fd0 <_Min_Stack_Size+0xbd0>
     fcc:	535f4345 	cmppl	pc, #335544321	; 0x14000001
     fd0:	54464948 	strbpl	r4, [r6], #-2376	; 0xfffff6b8
     fd4:	46464f5f 			; <UNDEFINED> instruction: 0x46464f5f
     fd8:	30783020 	rsbscc	r3, r8, r0, lsr #32
     fdc:	5f5f0034 	svcpl	0x005f0034
     fe0:	746e695f 	strbtvc	r6, [lr], #-2399	; 0xfffff6a1
     fe4:	6863775f 	stmdavs	r3!, {r0, r1, r2, r3, r4, r6, r8, r9, sl, ip, sp, lr}^
     fe8:	745f7261 	ldrbvc	r7, [pc], #-609	; ff0 <_Min_Stack_Size+0xbf0>
     fec:	0020685f 	eoreq	r6, r0, pc, asr r8
     ff0:	53706d74 	cmnpl	r0, #116, 26	; 0x1d00
     ff4:	006e6769 	rsbeq	r6, lr, r9, ror #14
     ff8:	4f495047 	svcmi	0x00495047
     ffc:	5445525f 	strbpl	r5, [r5], #-607	; 0xfffffda1
    1000:	5f4e5255 	svcpl	0x004e5255
    1004:	4b434f4c 	blmi	10d4d3c <_Min_Stack_Size+0x10d493c>
    1008:	5252455f 	subspl	r4, r2, #398458880	; 0x17c00000
    100c:	3020524f 	eorcc	r5, r0, pc, asr #4
    1010:	544e4900 	strbpl	r4, [lr], #-2304	; 0xfffff700
    1014:	435f3631 	cmpmi	pc, #51380224	; 0x3100000
    1018:	20297828 	eorcs	r7, r9, r8, lsr #16
    101c:	4e495f5f 	mcrmi	15, 2, r5, cr9, cr15, {2}
    1020:	5f363154 	svcpl	0x00363154
    1024:	29782843 	ldmdbcs	r8!, {r0, r1, r6, fp, sp}^
    1028:	535f5f00 	cmppl	pc, #0, 30
    102c:	30205257 	eorcc	r5, r0, r7, asr r2
    1030:	30303078 	eorscc	r3, r0, r8, ror r0
    1034:	65640038 	strbvs	r0, [r4, #-56]!	; 0xffffffc8
    1038:	0079616c 	rsbseq	r6, r9, ip, ror #2
    103c:	4f435f5f 	svcmi	0x00435f5f
    1040:	5441434e 	strbpl	r4, [r1], #-846	; 0xfffffcb2
    1044:	2c782831 	ldclcs	8, cr2, [r8], #-196	; 0xffffff3c
    1048:	78202979 	stmdavc	r0!, {r0, r3, r4, r5, r6, r8, fp, sp}
    104c:	20232320 	eorcs	r2, r3, r0, lsr #6
    1050:	545f0079 	ldrbpl	r0, [pc], #-121	; 1058 <_Min_Stack_Size+0xc58>
    1054:	5a49535f 	bpl	1255dd8 <_Min_Stack_Size+0x12559d8>
    1058:	5f002045 	svcpl	0x00002045
    105c:	4c42445f 	cfstrdmi	mvd4, [r2], {95}	; 0x5f
    1060:	4e494d5f 	mcrmi	13, 2, r4, cr9, cr15, {2}
    1064:	5f30315f 	svcpl	0x0030315f
    1068:	5f505845 	svcpl	0x00505845
    106c:	2d28205f 	stccs	0, cr2, [r8, #-380]!	; 0xfffffe84
    1070:	29373033 	ldmdbcs	r7!, {r0, r1, r4, r5, ip, sp}
    1074:	555f5f00 	ldrbpl	r5, [pc, #-3840]	; 17c <_Min_Heap_Size-0x84>
    1078:	465f5153 			; <UNDEFINED> instruction: 0x465f5153
    107c:	5f544942 	svcpl	0x00544942
    1080:	3233205f 	eorscc	r2, r3, #95	; 0x5f
    1084:	4f5f5f00 	svcmi	0x005f5f00
    1088:	52454452 	subpl	r4, r5, #1375731712	; 0x52000000
    108c:	4749425f 	smlsldmi	r4, r9, pc, r2	; <UNPREDICTABLE>
    1090:	444e455f 	strbmi	r4, [lr], #-1375	; 0xfffffaa1
    1094:	5f4e4149 	svcpl	0x004e4149
    1098:	3334205f 	teqcc	r4, #95	; 0x5f
    109c:	5f003132 	svcpl	0x00003132
    10a0:	5548545f 	strbpl	r5, [r8, #-1119]	; 0xfffffba1
    10a4:	495f424d 	ldmdbmi	pc, {r0, r2, r3, r6, r9, lr}^	; <UNPREDICTABLE>
    10a8:	5245544e 	subpl	r5, r5, #1308622848	; 0x4e000000
    10ac:	4b524f57 	blmi	1494e10 <_Min_Stack_Size+0x1494a10>
    10b0:	31205f5f 			; <UNDEFINED> instruction: 0x31205f5f
    10b4:	535f5f00 	cmppl	pc, #0, 30
    10b8:	42465f51 	submi	r5, r6, #324	; 0x144
    10bc:	5f5f5449 	svcpl	0x005f5449
    10c0:	00313320 	eorseq	r3, r1, r0, lsr #6
    10c4:	4f495047 	svcmi	0x00495047
    10c8:	444f4d5f 	strbmi	r4, [pc], #-3423	; 10d0 <_Min_Stack_Size+0xcd0>
    10cc:	4e495f45 	cdpmi	15, 4, cr5, cr9, cr5, {2}
    10d0:	5f545550 	svcpl	0x00545550
    10d4:	30204450 	eorcc	r4, r0, r0, asr r4
    10d8:	30303078 	eorscc	r3, r0, r8, ror r0
    10dc:	30303030 	eorscc	r3, r0, r0, lsr r0
    10e0:	5f007533 	svcpl	0x00007533
    10e4:	44494c45 	strbmi	r4, [r9], #-3141	; 0xfffff3bb
    10e8:	454c4241 	strbmi	r4, [ip, #-577]	; 0xfffffdbf
    10ec:	4c4e495f 	mcrrmi	9, 5, r4, lr, cr15	; <UNPREDICTABLE>
    10f0:	20454e49 	subcs	r4, r5, r9, asr #28
    10f4:	74617473 	strbtvc	r7, [r1], #-1139	; 0xfffffb8d
    10f8:	5f206369 	svcpl	0x00206369
    10fc:	6c6e695f 			; <UNDEFINED> instruction: 0x6c6e695f
    1100:	5f656e69 	svcpl	0x00656e69
    1104:	5f5f005f 	svcpl	0x005f005f
    1108:	52545353 	subspl	r5, r4, #1275068417	; 0x4c000001
    110c:	30783020 	rsbscc	r3, r8, r0, lsr #32
    1110:	00303032 	eorseq	r3, r0, r2, lsr r0
    1114:	4e49555f 	mcrmi	5, 2, r5, cr9, cr15, {2}
    1118:	5f363154 	svcpl	0x00363154
    111c:	45445f54 	strbmi	r5, [r4, #-3924]	; 0xfffff0ac
    1120:	52414c43 	subpl	r4, r1, #17152	; 0x4300
    1124:	00204445 	eoreq	r4, r0, r5, asr #8
    1128:	59454b5f 	stmdbpl	r5, {r0, r1, r2, r3, r4, r6, r8, r9, fp, lr}^
    112c:	445f545f 	ldrbmi	r5, [pc], #-1119	; 1134 <_Min_Stack_Size+0xd34>
    1130:	414c4345 	cmpmi	ip, r5, asr #6
    1134:	20444552 	subcs	r4, r4, r2, asr r5
    1138:	6e5f5f00 	cdpvs	15, 5, cr5, cr15, cr0, {0}
    113c:	6c686f74 	stclvs	15, cr6, [r8], #-464	; 0xfffffe30
    1140:	29785f28 	ldmdbcs	r8!, {r3, r5, r8, r9, sl, fp, ip, lr}^
    1144:	625f5f20 	subsvs	r5, pc, #32, 30	; 0x80
    1148:	70617773 	rsbvc	r7, r1, r3, ror r7
    114c:	5f283233 	svcpl	0x00283233
    1150:	5f002978 	svcpl	0x00002978
    1154:	5148555f 	cmppl	r8, pc, asr r5
    1158:	4942465f 	stmdbmi	r2, {r0, r1, r2, r3, r4, r6, r9, sl, lr}^
    115c:	205f5f54 	subscs	r5, pc, r4, asr pc	; <UNPREDICTABLE>
    1160:	47003631 	smladxmi	r0, r1, r6, r3
    1164:	5f4f4950 	svcpl	0x004f4950
    1168:	5f4e4950 	svcpl	0x004e4950
    116c:	28282038 	stmdacs	r8!, {r3, r4, r5, sp}
    1170:	746e6975 	strbtvc	r6, [lr], #-2421	; 0xfffff68b
    1174:	745f3631 	ldrbvc	r3, [pc], #-1585	; 117c <_Min_Stack_Size+0xd7c>
    1178:	30783029 	rsbscc	r3, r8, r9, lsr #32
    117c:	29303031 	ldmdbcs	r0!, {r0, r4, r5, ip, sp}
    1180:	544e4900 	strbpl	r4, [lr], #-2304	; 0xfffff700
    1184:	41454c5f 	cmpmi	r5, pc, asr ip
    1188:	34365453 	ldrtcc	r5, [r6], #-1107	; 0xfffffbad
    118c:	58414d5f 	stmdapl	r1, {r0, r1, r2, r3, r4, r6, r8, sl, fp, lr}^
    1190:	5f5f2820 	svcpl	0x005f2820
    1194:	5f544e49 	svcpl	0x00544e49
    1198:	5341454c 	movtpl	r4, #5452	; 0x154c
    119c:	5f343654 	svcpl	0x00343654
    11a0:	5f58414d 	svcpl	0x0058414d
    11a4:	5f00295f 	svcpl	0x0000295f
    11a8:	4e454552 	mcrmi	5, 2, r4, cr5, cr2, {2}
    11ac:	4d455f54 	stclmi	15, cr5, [r5, #-336]	; 0xfffffeb0
    11b0:	45475245 	strbmi	r5, [r7, #-581]	; 0xfffffdbb
    11b4:	5f59434e 	svcpl	0x0059434e
    11b8:	455a4953 	ldrbmi	r4, [sl, #-2387]	; 0xfffff6ad
    11bc:	00353220 	eorseq	r3, r5, r0, lsr #4
    11c0:	6474735f 	ldrbtvs	r7, [r4], #-863	; 0xfffffca1
    11c4:	5f727265 	svcpl	0x00727265
    11c8:	29782872 	ldmdbcs	r8!, {r1, r4, r5, r6, fp, sp}^
    11cc:	78282820 	stmdavc	r8!, {r5, fp, sp}
    11d0:	5f3e2d29 	svcpl	0x003e2d29
    11d4:	65647473 	strbvs	r7, [r4, #-1139]!	; 0xfffffb8d
    11d8:	00297272 	eoreq	r7, r9, r2, ror r2
    11dc:	54505f5f 	ldrbpl	r5, [r0], #-3935	; 0xfffff0a1
    11e0:	46494452 			; <UNDEFINED> instruction: 0x46494452
    11e4:	49575f46 	ldmdbmi	r7, {r1, r2, r6, r8, r9, sl, fp, ip, lr}^
    11e8:	5f485444 	svcpl	0x00485444
    11ec:	3233205f 	eorscc	r2, r3, #95	; 0x5f
    11f0:	775f5f00 	ldrbvc	r5, [pc, -r0, lsl #30]
    11f4:	5f6b6165 	svcpl	0x006b6165
    11f8:	65666572 	strbvs	r6, [r6, #-1394]!	; 0xfffffa8e
    11fc:	636e6572 	cmnvs	lr, #478150656	; 0x1c800000
    1200:	79732865 	ldmdbvc	r3!, {r0, r2, r5, r6, fp, sp}^
    1204:	6c612c6d 	stclvs	12, cr2, [r1], #-436	; 0xfffffe4c
    1208:	29736169 	ldmdbcs	r3!, {r0, r3, r5, r6, r8, sp, lr}^
    120c:	615f5f20 	cmpvs	pc, r0, lsr #30
    1210:	5f5f6d73 	svcpl	0x005f6d73
    1214:	772e2228 	strvc	r2, [lr, -r8, lsr #4]!
    1218:	206b6165 	rsbcs	r6, fp, r5, ror #2
    121c:	61232022 			; <UNDEFINED> instruction: 0x61232022
    1220:	7361696c 	cmnvc	r1, #108, 18	; 0x1b0000
    1224:	5f203b29 	svcpl	0x00203b29
    1228:	6d73615f 	ldfvse	f6, [r3, #-380]!	; 0xfffffe84
    122c:	22285f5f 	eorcs	r5, r8, #380	; 0x17c
    1230:	7571652e 	ldrbvc	r6, [r1, #-1326]!	; 0xfffffad2
    1234:	23202220 			; <UNDEFINED> instruction: 0x23202220
    1238:	61696c61 	cmnvs	r9, r1, ror #24
    123c:	2c222073 	stccs	0, cr2, [r2], #-460	; 0xfffffe34
    1240:	23202220 			; <UNDEFINED> instruction: 0x23202220
    1244:	296d7973 	stmdbcs	sp!, {r0, r1, r4, r5, r6, r8, fp, ip, sp, lr}^
    1248:	535f5f00 	cmppl	pc, #0, 30
    124c:	30204452 	eorcc	r4, r0, r2, asr r4
    1250:	30303078 	eorscc	r3, r0, r8, ror r0
    1254:	5f4c0034 	svcpl	0x004c0034
    1258:	6e706d74 	mrcvs	13, 3, r6, cr0, cr4, {3}
    125c:	46206d61 	strtmi	r6, [r0], -r1, ror #26
    1260:	4e454c49 	cdpmi	12, 4, cr4, cr5, cr9, {2}
    1264:	5f454d41 	svcpl	0x00454d41
    1268:	0058414d 	subseq	r4, r8, sp, asr #2
    126c:	49555f5f 	ldmdbmi	r5, {r0, r1, r2, r3, r4, r6, r8, r9, sl, fp, ip, lr}^
    1270:	465f544e 	ldrbmi	r5, [pc], -lr, asr #8
    1274:	38545341 	ldmdacc	r4, {r0, r6, r8, r9, ip, lr}^
    1278:	58414d5f 	stmdapl	r1, {r0, r1, r2, r3, r4, r6, r8, sl, fp, lr}^
    127c:	30205f5f 	eorcc	r5, r0, pc, asr pc
    1280:	66666678 			; <UNDEFINED> instruction: 0x66666678
    1284:	66666666 	strbtvs	r6, [r6], -r6, ror #12
    1288:	5f005566 	svcpl	0x00005566
    128c:	7361685f 	cmnvc	r1, #6225920	; 0x5f0000
    1290:	7478655f 	ldrbtvc	r6, [r8], #-1375	; 0xfffffaa1
    1294:	69736e65 	ldmdbvs	r3!, {r0, r2, r5, r6, r9, sl, fp, sp, lr}^
    1298:	5f206e6f 	svcpl	0x00206e6f
    129c:	7361685f 	cmnvc	r1, #6225920	; 0x5f0000
    12a0:	6165665f 	cmnvs	r5, pc, asr r6
    12a4:	65727574 	ldrbvs	r7, [r2, #-1396]!	; 0xfffffa8c
    12a8:	4c5f5f00 	mrrcmi	15, 0, r5, pc, cr0	; <UNPREDICTABLE>
    12ac:	55434341 	strbpl	r4, [r3, #-833]	; 0xfffffcbf
    12b0:	42495f4d 	submi	r5, r9, #308	; 0x134
    12b4:	5f5f5449 	svcpl	0x005f5449
    12b8:	00323320 	eorseq	r3, r2, r0, lsr #6
    12bc:	69755f5f 	ldmdbvs	r5!, {r0, r1, r2, r3, r4, r6, r8, r9, sl, fp, ip, lr}^
    12c0:	5f38746e 	svcpl	0x0038746e
    12c4:	5f5f0074 	svcpl	0x005f0074
    12c8:	495f4148 	ldmdbmi	pc, {r3, r6, r8, lr}^	; <UNPREDICTABLE>
    12cc:	5f544942 	svcpl	0x00544942
    12d0:	0038205f 	eorseq	r2, r8, pc, asr r0
    12d4:	454e5f5f 	strbmi	r5, [lr, #-3935]	; 0xfffff0a1
    12d8:	42494c57 	submi	r4, r9, #22272	; 0x5700
    12dc:	5f5f485f 	svcpl	0x005f485f
    12e0:	5f003120 	svcpl	0x00003120
    12e4:	544e495f 	strbpl	r4, [lr], #-2399	; 0xfffff6a1
    12e8:	5341465f 	movtpl	r4, #5727	; 0x165f
    12ec:	5f363154 	svcpl	0x00363154
    12f0:	54444957 	strbpl	r4, [r4], #-2391	; 0xfffff6a9
    12f4:	205f5f48 	subscs	r5, pc, r8, asr #30
    12f8:	4c003233 	sfmmi	f3, 4, [r0], {51}	; 0x33
    12fc:	445f4443 	ldrbmi	r4, [pc], #-1091	; 1304 <_Min_Stack_Size+0xf04>
    1300:	4c505349 	mrrcmi	3, 4, r5, r0, cr9
    1304:	4f5f5941 	svcmi	0x005f5941
    1308:	4e555f4e 	cdpmi	15, 5, cr5, cr5, cr14, {2}
    130c:	4c524544 	cfldr64mi	mvdx4, [r2], {68}	; 0x44
    1310:	5f454e49 	svcpl	0x00454e49
    1314:	5f46464f 	svcpl	0x0046464f
    1318:	53525543 	cmppl	r2, #281018368	; 0x10c00000
    131c:	4f5f524f 	svcmi	0x005f524f
    1320:	7830204e 	ldmdavc	r0!, {r1, r2, r3, r6, sp}
    1324:	5f004430 	svcpl	0x00004430
    1328:	4e454552 	mcrmi	5, 2, r4, cr5, cr2, {2}
    132c:	424d5f54 	submi	r5, sp, #84, 30	; 0x150
    1330:	574f5452 	smlsldpl	r5, pc, r2, r4	; <UNPREDICTABLE>
    1334:	54535f43 	ldrbpl	r5, [r3], #-3907	; 0xfffff0bd
    1338:	28455441 	stmdacs	r5, {r0, r6, sl, ip, lr}^
    133c:	29727470 	ldmdbcs	r2!, {r4, r5, r6, sl, ip, sp, lr}^
    1340:	70282820 	eorvc	r2, r8, r0, lsr #16
    1344:	2d297274 	sfmcs	f7, 4, [r9, #-464]!	; 0xfffffe30
    1348:	696d5f3e 	stmdbvs	sp!, {r1, r2, r3, r4, r5, r8, r9, sl, fp, ip, lr}^
    134c:	3e2d6373 	mcrcc	3, 1, r6, cr13, cr3, {3}
    1350:	72626d5f 	rsbvc	r6, r2, #6080	; 0x17c0
    1354:	63776f74 	cmnvs	r7, #116, 30	; 0x1d0
    1358:	6174735f 	cmnvs	r4, pc, asr r3
    135c:	00296574 	eoreq	r6, r9, r4, ror r5
    1360:	454c5f5f 	strbmi	r5, [ip, #-3935]	; 0xfffff0a1
    1364:	33545341 	cmpcc	r4, #67108865	; 0x4000001
    1368:	6c222032 	stcvs	0, cr2, [r2], #-200	; 0xffffff38
    136c:	5f5f0022 	svcpl	0x005f0022
    1370:	52464c4c 	subpl	r4, r6, #76, 24	; 0x4c00
    1374:	5f544341 	svcpl	0x00544341
    1378:	5f4e494d 	svcpl	0x004e494d
    137c:	2d28205f 	stccs	0, cr2, [r8, #-380]!	; 0xfffffe84
    1380:	4c352e30 	ldcmi	14, cr2, [r5], #-192	; 0xffffff40
    1384:	302d524c 	eorcc	r5, sp, ip, asr #4
    1388:	4c4c352e 	cfstr64mi	mvdx3, [ip], {46}	; 0x2e
    138c:	5f002952 	svcpl	0x00002952
    1390:	544e495f 	strbpl	r4, [lr], #-2399	; 0xfffff6a1
    1394:	5f525450 	svcpl	0x00525450
    1398:	5f58414d 	svcpl	0x0058414d
    139c:	7830205f 	ldmdavc	r0!, {r0, r1, r2, r3, r4, r6, sp}
    13a0:	66666637 			; <UNDEFINED> instruction: 0x66666637
    13a4:	66666666 	strbtvs	r6, [r6], -r6, ror #12
    13a8:	525f5f00 	subspl	r5, pc, #0, 30
    13ac:	5f444e41 	svcpl	0x00444e41
    13b0:	2058414d 	subscs	r4, r8, sp, asr #2
    13b4:	66377830 			; <UNDEFINED> instruction: 0x66377830
    13b8:	66666666 	strbtvs	r6, [r6], -r6, ror #12
    13bc:	46006666 	strmi	r6, [r0], -r6, ror #12
    13c0:	53495f44 	movtpl	r5, #40772	; 0x9f44
    13c4:	28544553 	ldmdacs	r4, {r0, r1, r4, r6, r8, sl, lr}^
    13c8:	29702c6e 	ldmdbcs	r0!, {r1, r2, r3, r5, r6, sl, fp, sp}^
    13cc:	28282820 	stmdacs	r8!, {r5, fp, sp}
    13d0:	3e2d2970 			; <UNDEFINED> instruction: 0x3e2d2970
    13d4:	64665f5f 	strbtvs	r5, [r6], #-3935	; 0xfffff0a1
    13d8:	69625f73 	stmdbvs	r2!, {r0, r1, r4, r5, r6, r8, r9, sl, fp, ip, lr}^
    13dc:	285b7374 	ldmdacs	fp, {r2, r4, r5, r6, r8, r9, ip, sp, lr}^
    13e0:	5f2f296e 	svcpl	0x002f296e
    13e4:	4244464e 	submi	r4, r4, #81788928	; 0x4e00000
    13e8:	5d535449 	cfldrdpl	mvd5, [r3, #-292]	; 0xfffffedc
    13ec:	5f202620 	svcpl	0x00202620
    13f0:	7364665f 	cmnvc	r4, #99614720	; 0x5f00000
    13f4:	6d5f7465 	cfldrdvs	mvd7, [pc, #-404]	; 1268 <_Min_Stack_Size+0xe68>
    13f8:	286b7361 	stmdacs	fp!, {r0, r5, r6, r8, r9, ip, sp, lr}^
    13fc:	2029296e 	eorcs	r2, r9, lr, ror #18
    1400:	30203d21 	eorcc	r3, r0, r1, lsr #26
    1404:	5f5f0029 	svcpl	0x005f0029
    1408:	544e4955 	strbpl	r4, [lr], #-2389	; 0xfffff6ab
    140c:	5341465f 	movtpl	r4, #5727	; 0x165f
    1410:	5f363154 	svcpl	0x00363154
    1414:	5f58414d 	svcpl	0x0058414d
    1418:	7830205f 	ldmdavc	r0!, {r0, r1, r2, r3, r4, r6, sp}
    141c:	66666666 	strbtvs	r6, [r6], -r6, ror #12
    1420:	66666666 	strbtvs	r6, [r6], -r6, ror #12
    1424:	4e490055 	mcrmi	0, 2, r0, cr9, cr5, {2}
    1428:	454c5f54 	strbmi	r5, [ip, #-3924]	; 0xfffff0ac
    142c:	36545341 	ldrbcc	r5, [r4], -r1, asr #6
    1430:	494d5f34 	stmdbmi	sp, {r2, r4, r5, r8, r9, sl, fp, ip, lr}^
    1434:	2d28204e 	stccs	0, cr2, [r8, #-312]!	; 0xfffffec8
    1438:	4e495f5f 	mcrmi	15, 2, r5, cr9, cr15, {2}
    143c:	454c5f54 	strbmi	r5, [ip, #-3924]	; 0xfffff0ac
    1440:	36545341 	ldrbcc	r5, [r4], -r1, asr #6
    1444:	414d5f34 	cmpmi	sp, r4, lsr pc
    1448:	205f5f58 	subscs	r5, pc, r8, asr pc	; <UNPREDICTABLE>
    144c:	2931202d 	ldmdbcs	r1!, {r0, r2, r3, r5, sp}
    1450:	495f5f00 	ldmdbmi	pc, {r8, r9, sl, fp, ip, lr}^	; <UNPREDICTABLE>
    1454:	5450544e 	ldrbpl	r5, [r0], #-1102	; 0xfffffbb2
    1458:	59545f52 	ldmdbpl	r4, {r1, r4, r6, r8, r9, sl, fp, ip, lr}^
    145c:	5f5f4550 	svcpl	0x005f4550
    1460:	746e6920 	strbtvc	r6, [lr], #-2336	; 0xfffff6e0
    1464:	475f5f00 	ldrbmi	r5, [pc, -r0, lsl #30]
    1468:	4c43554e 	cfstr64mi	mvdx5, [r3], {78}	; 0x4e
    146c:	5f454b49 	svcpl	0x00454b49
    1470:	4c495542 	cfstr64mi	mvdx5, [r9], {66}	; 0x42
    1474:	5f4e4954 	svcpl	0x004e4954
    1478:	534e4f43 	movtpl	r4, #61251	; 0xef43
    147c:	544e4154 	strbpl	r4, [lr], #-340	; 0xfffffeac
    1480:	3120505f 	qsubcc	r5, pc, r0	; <UNPREDICTABLE>
    1484:	45525f00 	ldrbmi	r5, [r2, #-3840]	; 0xfffff100
    1488:	5f544e45 	svcpl	0x00544e45
    148c:	43454843 	movtmi	r4, #22595	; 0x5843
    1490:	6176284b 	cmnvs	r6, fp, asr #16
    1494:	68772c72 	ldmdavs	r7!, {r1, r4, r5, r6, sl, fp, sp}^
    1498:	742c7461 	strtvc	r7, [ip], #-1121	; 0xfffffb9f
    149c:	2c657079 	stclcs	0, cr7, [r5], #-484	; 0xfffffe1c
    14a0:	657a6973 	ldrbvs	r6, [sl, #-2419]!	; 0xfffff68d
    14a4:	696e692c 	stmdbvs	lr!, {r2, r3, r5, r8, fp, sp, lr}^
    14a8:	64202974 	strtvs	r2, [r0], #-2420	; 0xfffff68c
    14ac:	207b206f 	rsbscs	r2, fp, pc, rrx
    14b0:	75727473 	ldrbvc	r7, [r2, #-1139]!	; 0xfffffb8d
    14b4:	5f207463 	svcpl	0x00207463
    14b8:	6e656572 	mcrvs	5, 3, r6, cr5, cr2, {3}
    14bc:	5f2a2074 	svcpl	0x002a2074
    14c0:	203d2072 	eorscs	r2, sp, r2, ror r0
    14c4:	72617628 	rsbvc	r7, r1, #40, 12	; 0x2800000
    14c8:	69203b29 	stmdbvs	r0!, {r0, r3, r5, r8, r9, fp, ip, sp}
    14cc:	5f282066 	svcpl	0x00282066
    14d0:	773e2d72 			; <UNDEFINED> instruction: 0x773e2d72
    14d4:	20746168 	rsbscs	r6, r4, r8, ror #2
    14d8:	4e203d3d 	mcrmi	13, 1, r3, cr0, cr13, {1}
    14dc:	294c4c55 	stmdbcs	ip, {r0, r2, r4, r6, sl, fp, lr}^
    14e0:	5f207b20 	svcpl	0x00207b20
    14e4:	773e2d72 			; <UNDEFINED> instruction: 0x773e2d72
    14e8:	20746168 	rsbscs	r6, r4, r8, ror #2
    14ec:	7428203d 	strtvc	r2, [r8], #-61	; 0xffffffc3
    14f0:	29657079 	stmdbcs	r5!, {r0, r3, r4, r5, r6, ip, sp, lr}^
    14f4:	6c6c616d 	stfvse	f6, [ip], #-436	; 0xfffffe4c
    14f8:	7328636f 			; <UNDEFINED> instruction: 0x7328636f
    14fc:	29657a69 	stmdbcs	r5!, {r0, r3, r5, r6, r9, fp, ip, sp, lr}^
    1500:	5f5f203b 	svcpl	0x005f203b
    1504:	6e656572 	mcrvs	5, 3, r6, cr5, cr2, {3}
    1508:	73615f74 	cmnvc	r1, #116, 30	; 0x1d0
    150c:	74726573 	ldrbtvc	r6, [r2], #-1395	; 0xfffffa8d
    1510:	2d725f28 	ldclcs	15, cr5, [r2, #-160]!	; 0xffffff60
    1514:	6168773e 	cmnvs	r8, lr, lsr r7
    1518:	203b2974 	eorscs	r2, fp, r4, ror r9
    151c:	74696e69 	strbtvc	r6, [r9], #-3689	; 0xfffff197
    1520:	207d203b 	rsbscs	r2, sp, fp, lsr r0
    1524:	6877207d 	ldmdavs	r7!, {r0, r2, r3, r4, r5, r6, sp}^
    1528:	20656c69 	rsbcs	r6, r5, r9, ror #24
    152c:	00293028 	eoreq	r3, r9, r8, lsr #32
    1530:	6e6f4e5f 	mcrvs	14, 3, r4, cr15, cr15, {2}
    1534:	6c6c756e 	cfstr64vs	mvdx7, [ip], #-440	; 0xfffffe48
    1538:	5f5f0020 	svcpl	0x005f0020
    153c:	43554e47 	cmpmi	r5, #1136	; 0x470
    1540:	4552505f 	ldrbmi	r5, [r2, #-95]	; 0xffffffa1
    1544:	28514552 	ldmdacs	r1, {r1, r4, r6, r8, sl, lr}^
    1548:	2c6a616d 	stfcse	f6, [sl], #-436	; 0xfffffe4c
    154c:	296e696d 	stmdbcs	lr!, {r0, r2, r3, r5, r6, r8, fp, sp, lr}^
    1550:	5f282820 	svcpl	0x00282820
    1554:	554e475f 	strbpl	r4, [lr, #-1887]	; 0xfffff8a1
    1558:	205f5f43 	subscs	r5, pc, r3, asr #30
    155c:	31203c3c 			; <UNDEFINED> instruction: 0x31203c3c
    1560:	2b202936 	blcs	80ba40 <_Min_Stack_Size+0x80b640>
    1564:	475f5f20 	ldrbmi	r5, [pc, -r0, lsr #30]
    1568:	5f43554e 	svcpl	0x0043554e
    156c:	4f4e494d 	svcmi	0x004e494d
    1570:	205f5f52 	subscs	r5, pc, r2, asr pc	; <UNPREDICTABLE>
    1574:	28203d3e 	stmdacs	r0!, {r1, r2, r3, r4, r5, r8, sl, fp, ip, sp}
    1578:	6a616d28 	bvs	185ca20 <_Min_Stack_Size+0x185c620>
    157c:	3c3c2029 	ldccc	0, cr2, [ip], #-164	; 0xffffff5c
    1580:	29363120 	ldmdbcs	r6!, {r5, r8, ip, sp}
    1584:	28202b20 	stmdacs	r0!, {r5, r8, r9, fp, sp}
    1588:	296e696d 	stmdbcs	lr!, {r0, r2, r3, r5, r6, r8, fp, sp, lr}^
    158c:	545f0029 	ldrbpl	r0, [pc], #-41	; 1594 <_Min_Stack_Size+0x1194>
    1590:	4843575f 	stmdami	r3, {r0, r1, r2, r3, r4, r6, r8, r9, sl, ip, lr}^
    1594:	00205241 	eoreq	r5, r0, r1, asr #4
    1598:	444c5f5f 	strbmi	r5, [ip], #-3935	; 0xfffff0a1
    159c:	485f4c42 	ldmdami	pc, {r1, r6, sl, fp, lr}^	; <UNPREDICTABLE>
    15a0:	515f5341 	cmppl	pc, r1, asr #6
    15a4:	54454955 	strbpl	r4, [r5], #-2389	; 0xfffff6ab
    15a8:	4e414e5f 	mcrmi	14, 2, r4, cr1, cr15, {2}
    15ac:	31205f5f 			; <UNDEFINED> instruction: 0x31205f5f
    15b0:	4e495f00 	cdpmi	15, 4, cr5, cr9, cr0, {0}
    15b4:	52545054 	subspl	r5, r4, #84	; 0x54
    15b8:	445f545f 	ldrbmi	r5, [pc], #-1119	; 15c0 <_Min_Stack_Size+0x11c0>
    15bc:	414c4345 	cmpmi	ip, r5, asr #6
    15c0:	20444552 	subcs	r4, r4, r2, asr r5
    15c4:	465f5f00 	ldrbmi	r5, [pc], -r0, lsl #30
    15c8:	3233544c 	eorscc	r5, r3, #76, 8	; 0x4c000000
    15cc:	41485f58 	cmpmi	r8, r8, asr pc
    15d0:	4e495f53 	mcrmi	15, 2, r5, cr9, cr3, {2}
    15d4:	494e4946 	stmdbmi	lr, {r1, r2, r6, r8, fp, lr}^
    15d8:	5f5f5954 	svcpl	0x005f5954
    15dc:	49003120 	stmdbmi	r0, {r5, r8, ip, sp}
    15e0:	465f544e 	ldrbmi	r5, [pc], -lr, asr #8
    15e4:	33545341 	cmpcc	r4, #67108865	; 0x4000001
    15e8:	494d5f32 	stmdbmi	sp, {r1, r4, r5, r8, r9, sl, fp, ip, lr}^
    15ec:	2d28204e 	stccs	0, cr2, [r8, #-312]!	; 0xfffffec8
    15f0:	4e495f5f 	mcrmi	15, 2, r5, cr9, cr15, {2}
    15f4:	41465f54 	cmpmi	r6, r4, asr pc
    15f8:	32335453 	eorscc	r5, r3, #1392508928	; 0x53000000
    15fc:	58414d5f 	stmdapl	r1, {r0, r1, r2, r3, r4, r6, r8, sl, fp, lr}^
    1600:	2d205f5f 	stccs	15, cr5, [r0, #-380]!	; 0xfffffe84
    1604:	00293120 	eoreq	r3, r9, r0, lsr #2
    1608:	5359535f 	cmppl	r9, #2080374785	; 0x7c000001
    160c:	5a49535f 	bpl	1256390 <_Min_Stack_Size+0x1255f90>
    1610:	5f545f45 	svcpl	0x00545f45
    1614:	4c002048 	stcmi	0, cr2, [r0], {72}	; 0x48
    1618:	445f4443 	ldrbmi	r4, [pc], #-1091	; 1620 <_Min_Stack_Size+0x1220>
    161c:	4c505349 	mrrcmi	3, 4, r5, r0, cr9
    1620:	4f5f5941 	svcmi	0x005f5941
    1624:	435f4646 	cmpmi	pc, #73400320	; 0x4600000
    1628:	4f535255 	svcmi	0x00535255
    162c:	464f5f52 			; <UNDEFINED> instruction: 0x464f5f52
    1630:	78302046 	ldmdavc	r0!, {r1, r2, r6, sp}
    1634:	44003830 	strmi	r3, [r0], #-2096	; 0xfffff7d0
    1638:	47554245 	ldrbmi	r4, [r5, -r5, asr #4]
    163c:	74003120 	strvc	r3, [r0], #-288	; 0xfffffee0
    1640:	7246706d 	subvc	r7, r6, #109	; 0x6d
    1644:	5f006361 	svcpl	0x00006361
    1648:	636f6c5f 	cmnvs	pc, #24320	; 0x5f00
    164c:	655f736b 	ldrbvs	r7, [pc, #-875]	; 12e9 <_Min_Stack_Size+0xee9>
    1650:	756c6378 	strbvc	r6, [ip, #-888]!	; 0xfffffc88
    1654:	65766973 	ldrbvs	r6, [r6, #-2419]!	; 0xfffff68d
    1658:	2e2e2e28 	cdpcs	14, 2, cr2, cr14, cr8, {1}
    165c:	5f5f2029 	svcpl	0x005f2029
    1660:	6b636f6c 	blvs	18dd418 <_Min_Stack_Size+0x18dd018>
    1664:	6e6e615f 	mcrvs	1, 3, r6, cr14, cr15, {2}
    1668:	7461746f 	strbtvc	r7, [r1], #-1135	; 0xfffffb91
    166c:	78652865 	stmdavc	r5!, {r0, r2, r5, r6, fp, sp}^
    1670:	73756c63 	cmnvc	r5, #25344	; 0x6300
    1674:	5f657669 	svcpl	0x00657669
    1678:	6b636f6c 	blvs	18dd430 <_Min_Stack_Size+0x18dd030>
    167c:	6e75665f 	mrcvs	6, 3, r6, cr5, cr15, {2}
    1680:	6f697463 	svcvs	0x00697463
    1684:	5f5f286e 	svcpl	0x005f286e
    1688:	415f4156 	cmpmi	pc, r6, asr r1	; <UNPREDICTABLE>
    168c:	5f534752 	svcpl	0x00534752
    1690:	0029295f 	eoreq	r2, r9, pc, asr r9
    1694:	43415f5f 	movtmi	r5, #8031	; 0x1f5f
    1698:	5f4d5543 	svcpl	0x004d5543
    169c:	54494246 	strbpl	r4, [r9], #-582	; 0xfffffdba
    16a0:	31205f5f 			; <UNDEFINED> instruction: 0x31205f5f
    16a4:	5f5f0035 	svcpl	0x005f0035
    16a8:	6b636f6c 	blvs	18dd460 <_Min_Stack_Size+0x18dd060>
    16ac:	6c65725f 	sfmvs	f7, 2, [r5], #-380	; 0xfffffe84
    16b0:	65736165 	ldrbvs	r6, [r3, #-357]!	; 0xfffffe9b
    16b4:	636f6c28 	cmnvs	pc, #40, 24	; 0x2800
    16b8:	5f20296b 	svcpl	0x0020296b
    16bc:	7465725f 	strbtvc	r7, [r5], #-607	; 0xfffffda1
    16c0:	65677261 	strbvs	r7, [r7, #-609]!	; 0xfffffd9f
    16c4:	6f6c5f74 	svcvs	0x006c5f74
    16c8:	725f6b63 	subsvc	r6, pc, #101376	; 0x18c00
    16cc:	61656c65 	cmnvs	r5, r5, ror #24
    16d0:	6c286573 	cfstr32vs	mvfx6, [r8], #-460	; 0xfffffe34
    16d4:	296b636f 	stmdbcs	fp!, {r0, r1, r2, r3, r5, r6, r8, r9, sp, lr}^
    16d8:	555f5f00 	ldrbpl	r5, [pc, #-3840]	; 7e0 <_Min_Stack_Size+0x3e0>
    16dc:	55434341 	strbpl	r4, [r3, #-833]	; 0xfffffcbf
    16e0:	42495f4d 	submi	r5, r9, #308	; 0x134
    16e4:	5f5f5449 	svcpl	0x005f5449
    16e8:	00363120 	eorseq	r3, r6, r0, lsr #2
    16ec:	6f6c5f5f 	svcvs	0x006c5f5f
    16f0:	695f6b63 	ldmdbvs	pc, {r0, r1, r5, r6, r8, r9, fp, sp, lr}^	; <UNPREDICTABLE>
    16f4:	2874696e 	ldmdacs	r4!, {r1, r2, r3, r5, r6, r8, fp, sp, lr}^
    16f8:	6b636f6c 	blvs	18dd4b0 <_Min_Stack_Size+0x18dd0b0>
    16fc:	5f5f2029 	svcpl	0x005f2029
    1700:	61746572 	cmnvs	r4, r2, ror r5
    1704:	74656772 	strbtvc	r6, [r5], #-1906	; 0xfffff88e
    1708:	636f6c5f 	cmnvs	pc, #24320	; 0x5f00
    170c:	6e695f6b 	cdpvs	15, 6, cr5, cr9, cr11, {3}
    1710:	26287469 	strtcs	r7, [r8], -r9, ror #8
    1714:	6b636f6c 	blvs	18dd4cc <_Min_Stack_Size+0x18dd0cc>
    1718:	5f5f0029 	svcpl	0x005f0029
    171c:	5f544e49 	svcpl	0x00544e49
    1720:	54534146 	ldrbpl	r4, [r3], #-326	; 0xfffffeba
    1724:	4d5f3436 	cfldrdmi	mvd3, [pc, #-216]	; 1654 <_Min_Stack_Size+0x1254>
    1728:	5f5f5841 	svcpl	0x005f5841
    172c:	37783020 	ldrbcc	r3, [r8, -r0, lsr #32]!
    1730:	66666666 	strbtvs	r6, [r6], -r6, ror #12
    1734:	66666666 	strbtvs	r6, [r6], -r6, ror #12
    1738:	66666666 	strbtvs	r6, [r6], -r6, ror #12
    173c:	4c666666 	stclmi	6, cr6, [r6], #-408	; 0xfffffe68
    1740:	5f5f004c 	svcpl	0x005f004c
    1744:	33544c46 	cmpcc	r4, #17920	; 0x4600
    1748:	445f5832 	ldrbmi	r5, [pc], #-2098	; 1750 <_Min_Stack_Size+0x1350>
    174c:	4d494345 	stclmi	3, cr4, [r9, #-276]	; 0xfffffeec
    1750:	445f4c41 	ldrbmi	r4, [pc], #-3137	; 1758 <_Min_Stack_Size+0x1358>
    1754:	5f5f4749 	svcpl	0x005f4749
    1758:	00373120 	eorseq	r3, r7, r0, lsr #2
    175c:	42445f5f 	submi	r5, r4, #380	; 0x17c
    1760:	494d5f4c 	stmdbmi	sp, {r2, r3, r6, r8, r9, sl, fp, ip, lr}^
    1764:	205f5f4e 	subscs	r5, pc, lr, asr #30
    1768:	6f642828 	svcvs	0x00642828
    176c:	656c6275 	strbvs	r6, [ip, #-629]!	; 0xfffffd8b
    1770:	322e3229 	eorcc	r3, lr, #-1879048190	; 0x90000002
    1774:	37303532 			; <UNDEFINED> instruction: 0x37303532
    1778:	38353833 	ldmdacc	r5!, {r0, r1, r4, r5, fp, ip, sp}
    177c:	32373035 	eorscc	r3, r7, #53	; 0x35
    1780:	65343130 	ldrvs	r3, [r4, #-304]!	; 0xfffffed0
    1784:	3830332d 	ldmdacc	r0!, {r0, r2, r3, r5, r8, r9, ip, sp}
    1788:	5f00294c 	svcpl	0x0000294c
    178c:	544c465f 	strbpl	r4, [ip], #-1631	; 0xfffff9a1
    1790:	5f583233 	svcpl	0x00583233
    1794:	5f534148 	svcpl	0x00534148
    1798:	45495551 	strbmi	r5, [r9, #-1361]	; 0xfffffaaf
    179c:	414e5f54 	cmpmi	lr, r4, asr pc
    17a0:	205f5f4e 	subscs	r5, pc, lr, asr #30
    17a4:	5f5f0031 	svcpl	0x005f0031
    17a8:	6c6c756e 	cfstr64vs	mvdx7, [ip], #-440	; 0xfffffe48
    17ac:	6e65735f 	mcrvs	3, 3, r7, cr5, cr15, {2}
    17b0:	656e6974 	strbvs	r6, [lr, #-2420]!	; 0xfffff68c
    17b4:	5f5f206c 	svcpl	0x005f206c
    17b8:	72747461 	rsbsvc	r7, r4, #1627389952	; 0x61000000
    17bc:	74756269 	ldrbtvc	r6, [r5], #-617	; 0xfffffd97
    17c0:	285f5f65 	ldmdacs	pc, {r0, r2, r5, r6, r8, r9, sl, fp, ip, lr}^	; <UNPREDICTABLE>
    17c4:	735f5f28 	cmpvc	pc, #40, 30	; 0xa0
    17c8:	69746e65 	ldmdbvs	r4!, {r0, r2, r5, r6, r9, sl, fp, sp, lr}^
    17cc:	5f6c656e 	svcpl	0x006c656e
    17d0:	0029295f 	eoreq	r2, r9, pc, asr r9
    17d4:	46555f5f 	usaxmi	r5, r5, pc	; <UNPREDICTABLE>
    17d8:	54434152 	strbpl	r4, [r3], #-338	; 0xfffffeae
    17dc:	5350455f 	cmppl	r0, #398458880	; 0x17c00000
    17e0:	4e4f4c49 	cdpmi	12, 4, cr4, cr15, cr9, {2}
    17e4:	30205f5f 	eorcc	r5, r0, pc, asr pc
    17e8:	2d503178 	ldfcse	f3, [r0, #-480]	; 0xfffffe20
    17ec:	52553631 	subspl	r3, r5, #51380224	; 0x3100000
    17f0:	5f5f5f00 	svcpl	0x005f5f00
    17f4:	5f746e69 	svcpl	0x00746e69
    17f8:	7361656c 	cmnvc	r1, #108, 10	; 0x1b000000
    17fc:	5f363174 	svcpl	0x00363174
    1800:	65645f74 	strbvs	r5, [r4, #-3956]!	; 0xfffff08c
    1804:	656e6966 	strbvs	r6, [lr, #-2406]!	; 0xfffff69a
    1808:	00312064 	eorseq	r2, r1, r4, rrx
    180c:	52415f5f 	subpl	r5, r1, #380	; 0x17c
    1810:	52415f4d 	subpl	r5, r1, #308	; 0x134
    1814:	375f4843 	ldrbcc	r4, [pc, -r3, asr #16]
    1818:	205f5f4d 	subscs	r5, pc, sp, asr #30
    181c:	4e5f0031 	mrcmi	0, 2, r0, cr15, cr1, {1}
    1820:	616c6c75 	smcvs	50885	; 0xc6c5
    1824:	20656c62 	rsbcs	r6, r5, r2, ror #24
    1828:	495f5f00 	ldmdbmi	pc, {r8, r9, sl, fp, ip, lr}^	; <UNPREDICTABLE>
    182c:	465f544e 	ldrbmi	r5, [pc], -lr, asr #8
    1830:	38545341 	ldmdacc	r4, {r0, r6, r8, r9, ip, lr}^
    1834:	5059545f 	subspl	r5, r9, pc, asr r4
    1838:	205f5f45 	subscs	r5, pc, r5, asr #30
    183c:	00746e69 	rsbseq	r6, r4, r9, ror #28
    1840:	494f4e5f 	stmdbmi	pc, {r0, r1, r2, r3, r4, r6, r9, sl, fp, lr}^	; <UNPREDICTABLE>
    1844:	4e494c4e 	cdpmi	12, 4, cr4, cr9, cr14, {2}
    1848:	5f5f2045 	svcpl	0x005f2045
    184c:	72747461 	rsbsvc	r7, r4, #1627389952	; 0x61000000
    1850:	74756269 	ldrbtvc	r6, [r5], #-617	; 0xfffffd97
    1854:	205f5f65 	subscs	r5, pc, r5, ror #30
    1858:	5f5f2828 	svcpl	0x005f2828
    185c:	6e696f6e 	cdpvs	15, 6, cr6, cr9, cr14, {3}
    1860:	656e696c 	strbvs	r6, [lr, #-2412]!	; 0xfffff694
    1864:	29295f5f 	stmdbcs	r9!, {r0, r1, r2, r3, r4, r6, r8, r9, sl, fp, ip, lr}
    1868:	555f5f00 	ldrbpl	r5, [pc, #-3840]	; 970 <_Min_Stack_Size+0x570>
    186c:	465f4144 	ldrbmi	r4, [pc], -r4, asr #2
    1870:	5f544942 	svcpl	0x00544942
    1874:	3233205f 	eorscc	r2, r3, #95	; 0x5f
    1878:	735f5f00 	cmpvc	pc, #0, 30
    187c:	5f657a69 	svcpl	0x00657a69
    1880:	205f5f74 	subscs	r5, pc, r4, ror pc	; <UNPREDICTABLE>
    1884:	465f5f00 	ldrbmi	r5, [pc], -r0, lsl #30
    1888:	3436544c 	ldrtcc	r5, [r6], #-1100	; 0xfffffbb4
    188c:	58414d5f 	stmdapl	r1, {r0, r1, r2, r3, r4, r6, r8, sl, fp, lr}^
    1890:	5f30315f 	svcpl	0x0030315f
    1894:	5f505845 	svcpl	0x00505845
    1898:	3033205f 	eorscc	r2, r3, pc, asr r0
    189c:	5f5f0038 	svcpl	0x005f0038
    18a0:	43415355 	movtmi	r5, #4949	; 0x1355
    18a4:	5f4d5543 	svcpl	0x004d5543
    18a8:	49535045 	ldmdbmi	r3, {r0, r2, r6, ip, lr}^
    18ac:	5f4e4f4c 	svcpl	0x004e4f4c
    18b0:	7830205f 	ldmdavc	r0!, {r0, r1, r2, r3, r4, r6, sp}
    18b4:	382d5031 	stmdacc	sp!, {r0, r4, r5, ip, lr}
    18b8:	004b4855 	subeq	r4, fp, r5, asr r8
    18bc:	49555f5f 	ldmdbmi	r5, {r0, r1, r2, r3, r4, r6, r8, r9, sl, fp, ip, lr}^
    18c0:	414d544e 	cmpmi	sp, lr, asr #8
    18c4:	28435f58 	stmdacs	r3, {r3, r4, r6, r8, r9, sl, fp, ip, lr}^
    18c8:	63202963 			; <UNDEFINED> instruction: 0x63202963
    18cc:	20232320 	eorcs	r2, r3, r0, lsr #6
    18d0:	004c4c55 	subeq	r4, ip, r5, asr ip
    18d4:	49535f5f 	ldmdbmi	r3, {r0, r1, r2, r3, r4, r6, r8, r9, sl, fp, ip, lr}^
    18d8:	464f455a 			; <UNDEFINED> instruction: 0x464f455a
    18dc:	494f505f 	stmdbmi	pc, {r0, r1, r2, r3, r4, r6, ip, lr}^	; <UNPREDICTABLE>
    18e0:	5245544e 	subpl	r5, r5, #1308622848	; 0x4e000000
    18e4:	34205f5f 	strtcc	r5, [r0], #-3935	; 0xfffff0a1
    18e8:	495f5f00 	ldmdbmi	pc, {r8, r9, sl, fp, ip, lr}^	; <UNPREDICTABLE>
    18ec:	4c5f544e 	cfldrdmi	mvd5, [pc], {78}	; 0x4e
    18f0:	54534145 	ldrbpl	r4, [r3], #-325	; 0xfffffebb
    18f4:	59545f38 	ldmdbpl	r4, {r3, r4, r5, r8, r9, sl, fp, ip, lr}^
    18f8:	5f5f4550 	svcpl	0x005f4550
    18fc:	67697320 	strbvs	r7, [r9, -r0, lsr #6]!
    1900:	2064656e 	rsbcs	r6, r4, lr, ror #10
    1904:	72616863 	rsbvc	r6, r1, #6488064	; 0x630000
    1908:	45525f00 	ldrbmi	r5, [r2, #-3840]	; 0xfffff100
    190c:	5f544e45 	svcpl	0x00544e45
    1910:	54525453 	ldrbpl	r5, [r2], #-1107	; 0xfffffbad
    1914:	4c5f4b4f 	mrrcmi	11, 4, r4, pc, cr15	; <UNPREDICTABLE>
    1918:	28545341 	ldmdacs	r4, {r0, r6, r8, r9, ip, lr}^
    191c:	29727470 	ldmdbcs	r2!, {r4, r5, r6, sl, ip, sp, lr}^
    1920:	70282820 	eorvc	r2, r8, r0, lsr #16
    1924:	2d297274 	sfmcs	f7, 4, [r9, #-464]!	; 0xfffffe30
    1928:	696d5f3e 	stmdbvs	sp!, {r1, r2, r3, r4, r5, r8, r9, sl, fp, ip, lr}^
    192c:	3e2d6373 	mcrcc	3, 1, r6, cr13, cr3, {3}
    1930:	7274735f 	rsbsvc	r7, r4, #2080374785	; 0x7c000001
    1934:	5f6b6f74 	svcpl	0x006b6f74
    1938:	7473616c 	ldrbtvc	r6, [r3], #-364	; 0xfffffe94
    193c:	54500029 	ldrbpl	r0, [r0], #-41	; 0xffffffd7
    1940:	41455248 	cmpmi	r5, r8, asr #4
    1944:	43535f44 	cmpmi	r3, #68, 30	; 0x110
    1948:	5f45504f 	svcpl	0x0045504f
    194c:	54535953 	ldrbpl	r5, [r3], #-2387	; 0xfffff6ad
    1950:	31204d45 			; <UNDEFINED> instruction: 0x31204d45
    1954:	415f5f00 	cmpmi	pc, r0, lsl #30
    1958:	4e5f4d52 	mrcmi	13, 2, r4, cr15, cr2, {2}
    195c:	5f4e4f45 	svcpl	0x004e4f45
    1960:	4955005f 	ldmdbmi	r5, {r0, r1, r2, r3, r4, r6}^
    1964:	5450544e 	ldrbpl	r5, [r0], #-1102	; 0xfffffbb2
    1968:	414d5f52 	cmpmi	sp, r2, asr pc
    196c:	5f282058 	svcpl	0x00282058
    1970:	4e49555f 	mcrmi	5, 2, r5, cr9, cr15, {2}
    1974:	52545054 	subspl	r5, r4, #84	; 0x54
    1978:	58414d5f 	stmdapl	r1, {r0, r1, r2, r3, r4, r6, r8, sl, fp, lr}^
    197c:	00295f5f 	eoreq	r5, r9, pc, asr pc
    1980:	4c465f5f 	mcrrmi	15, 5, r5, r6, cr15
    1984:	5f323354 	svcpl	0x00323354
    1988:	5f58414d 	svcpl	0x0058414d
    198c:	5f505845 	svcpl	0x00505845
    1990:	3231205f 	eorscc	r2, r1, #95	; 0x5f
    1994:	49420038 	stmdbmi	r2, {r3, r4, r5}^
    1998:	4e455f47 	cdpmi	15, 4, cr5, cr5, cr7, {2}
    199c:	4e414944 	vmlsmi.f16	s9, s2, s8	; <UNPREDICTABLE>
    19a0:	49425f20 	stmdbmi	r2, {r5, r8, r9, sl, fp, ip, lr}^
    19a4:	4e455f47 	cdpmi	15, 4, cr5, cr5, cr7, {2}
    19a8:	4e414944 	vmlsmi.f16	s9, s2, s8	; <UNPREDICTABLE>
    19ac:	59535f00 	ldmdbpl	r3, {r8, r9, sl, fp, ip, lr}^
    19b0:	4c5f5f53 	mrrcmi	15, 5, r5, pc, cr3	; <UNPREDICTABLE>
    19b4:	4c41434f 	mcrrmi	3, 4, r4, r1, cr15
    19b8:	20485f45 	subcs	r5, r8, r5, asr #30
    19bc:	555f5f00 	ldrbpl	r5, [pc, #-3840]	; ac4 <_Min_Stack_Size+0x6c4>
    19c0:	4d544e49 	ldclmi	14, cr4, [r4, #-292]	; 0xfffffedc
    19c4:	545f5841 	ldrbpl	r5, [pc], #-2113	; 19cc <_Min_Stack_Size+0x15cc>
    19c8:	5f455059 	svcpl	0x00455059
    19cc:	6f6c205f 	svcvs	0x006c205f
    19d0:	6c20676e 	stcvs	7, cr6, [r0], #-440	; 0xfffffe48
    19d4:	20676e6f 	rsbcs	r6, r7, pc, ror #28
    19d8:	69736e75 	ldmdbvs	r3!, {r0, r2, r4, r5, r6, r9, sl, fp, sp, lr}^
    19dc:	64656e67 	strbtvs	r6, [r5], #-3687	; 0xfffff199
    19e0:	746e6920 	strbtvc	r6, [lr], #-2336	; 0xfffff6e0
    19e4:	555f5f00 	ldrbpl	r5, [pc, #-3840]	; aec <_Min_Stack_Size+0x6ec>
    19e8:	52464c4c 	subpl	r4, r6, #76, 24	; 0x4c00
    19ec:	5f544341 	svcpl	0x00544341
    19f0:	5f58414d 	svcpl	0x0058414d
    19f4:	5830205f 	ldmdapl	r0!, {r0, r1, r2, r3, r4, r6, sp}
    19f8:	46464646 	strbmi	r4, [r6], -r6, asr #12
    19fc:	46464646 	strbmi	r4, [r6], -r6, asr #12
    1a00:	46464646 	strbmi	r4, [r6], -r6, asr #12
    1a04:	46464646 	strbmi	r4, [r6], -r6, asr #12
    1a08:	34362d50 	ldrtcc	r2, [r6], #-3408	; 0xfffff2b0
    1a0c:	524c4c55 	subpl	r4, ip, #21760	; 0x5500
    1a10:	74656700 	strbtvc	r6, [r5], #-1792	; 0xfffff900
    1a14:	72616863 	rsbvc	r6, r1, #6488064	; 0x630000
    1a18:	6c6e755f 	cfstr64vs	mvdx7, [lr], #-380	; 0xfffffe84
    1a1c:	656b636f 	strbvs	r6, [fp, #-879]!	; 0xfffffc91
    1a20:	20292864 	eorcs	r2, r9, r4, ror #16
    1a24:	7465675f 	strbtvc	r6, [r5], #-1887	; 0xfffff8a1
    1a28:	72616863 	rsbvc	r6, r1, #6488064	; 0x630000
    1a2c:	6c6e755f 	cfstr64vs	mvdx7, [lr], #-380	; 0xfffffe84
    1a30:	656b636f 	strbvs	r6, [fp, #-879]!	; 0xfffffc91
    1a34:	00292864 	eoreq	r2, r9, r4, ror #16
    1a38:	52485450 	subpl	r5, r8, #80, 8	; 0x50000000
    1a3c:	5f444145 	svcpl	0x00444145
    1a40:	41455243 	cmpmi	r5, r3, asr #4
    1a44:	445f4554 	ldrbmi	r4, [pc], #-1364	; 1a4c <_Min_Stack_Size+0x164c>
    1a48:	43415445 	movtmi	r5, #5189	; 0x1445
    1a4c:	20444548 	subcs	r4, r4, r8, asr #10
    1a50:	5f5f0030 	svcpl	0x005f0030
    1a54:	746e695f 	strbtvc	r6, [lr], #-2399	; 0xfffff6a1
    1a58:	7274705f 	rsbsvc	r7, r4, #95	; 0x5f
    1a5c:	66666964 	strbtvs	r6, [r6], -r4, ror #18
    1a60:	685f745f 	ldmdavs	pc, {r0, r1, r2, r3, r4, r6, sl, ip, sp, lr}^	; <UNPREDICTABLE>
    1a64:	535f0020 	cmppl	pc, #32
    1a68:	5f5f5359 	svcpl	0x005f5359
    1a6c:	454d4954 	strbmi	r4, [sp, #-2388]	; 0xfffff6ac
    1a70:	43455053 	movtmi	r5, #20563	; 0x5053
    1a74:	205f485f 	subscs	r4, pc, pc, asr r8	; <UNPREDICTABLE>
    1a78:	49535f00 	ldmdbmi	r3, {r8, r9, sl, fp, ip, lr}^
    1a7c:	545f455a 	ldrbpl	r4, [pc], #-1370	; 1a84 <_Min_Stack_Size+0x1684>
    1a80:	4345445f 	movtmi	r4, #21599	; 0x545f
    1a84:	4552414c 	ldrbmi	r4, [r2, #-332]	; 0xfffffeb4
    1a88:	5f002044 	svcpl	0x00002044
    1a8c:	4148435f 	cmpmi	r8, pc, asr r3
    1a90:	5f323352 	svcpl	0x00323352
    1a94:	45505954 	ldrbmi	r5, [r0, #-2388]	; 0xfffff6ac
    1a98:	6c205f5f 	stcvs	15, cr5, [r0], #-380	; 0xfffffe84
    1a9c:	20676e6f 	rsbcs	r6, r7, pc, ror #28
    1aa0:	69736e75 	ldmdbvs	r3!, {r0, r2, r4, r5, r6, r9, sl, fp, sp, lr}^
    1aa4:	64656e67 	strbtvs	r6, [r5], #-3687	; 0xfffff199
    1aa8:	746e6920 	strbtvc	r6, [lr], #-2336	; 0xfffff6e0
    1aac:	415f5f00 	cmpmi	pc, r0, lsl #30
    1ab0:	465f4d52 			; <UNDEFINED> instruction: 0x465f4d52
    1ab4:	55544145 	ldrbpl	r4, [r4, #-325]	; 0xfffffebb
    1ab8:	465f4552 			; <UNDEFINED> instruction: 0x465f4552
    1abc:	5f363150 	svcpl	0x00363150
    1ac0:	54434556 	strbpl	r4, [r3], #-1366	; 0xfffffaaa
    1ac4:	415f524f 	cmpmi	pc, pc, asr #4
    1ac8:	48544952 	ldmdami	r4, {r1, r4, r6, r8, fp, lr}^
    1acc:	4954454d 	ldmdbmi	r4, {r0, r2, r3, r6, r8, sl, lr}^
    1ad0:	5f5f0043 	svcpl	0x005f0043
    1ad4:	494c4156 	stmdbmi	ip, {r1, r2, r4, r6, r8, lr}^
    1ad8:	5f205453 	svcpl	0x00205453
    1adc:	756e675f 	strbvc	r6, [lr, #-1887]!	; 0xfffff8a1
    1ae0:	61765f63 	cmnvs	r6, r3, ror #30
    1ae4:	73696c5f 	cmnvc	r9, #24320	; 0x5f00
    1ae8:	505f0074 	subspl	r0, pc, r4, ror r0	; <UNPREDICTABLE>
    1aec:	5849534f 	stmdapl	r9, {r0, r1, r2, r3, r6, r8, r9, ip, lr}^
    1af0:	535f435f 	cmppl	pc, #2080374785	; 0x7c000001
    1af4:	4352554f 	cmpmi	r2, #331350016	; 0x13c00000
    1af8:	30322045 	eorscc	r2, r2, r5, asr #32
    1afc:	39303830 	ldmdbcc	r0!, {r4, r5, fp, ip, sp}
    1b00:	5f5f004c 	svcpl	0x005f004c
    1b04:	535f4343 	cmppl	pc, #201326593	; 0xc000001
    1b08:	4f505055 	svcmi	0x00505055
    1b0c:	5f535452 	svcpl	0x00535452
    1b10:	414e5944 	cmpmi	lr, r4, asr #18
    1b14:	5f43494d 	svcpl	0x0043494d
    1b18:	41525241 	cmpmi	r2, r1, asr #4
    1b1c:	4e495f59 	mcrmi	15, 2, r5, cr9, cr9, {2}
    1b20:	31205449 			; <UNDEFINED> instruction: 0x31205449
    1b24:	555f5f00 	ldrbpl	r5, [pc, #-3840]	; c2c <_Min_Stack_Size+0x82c>
    1b28:	5f544e49 	svcpl	0x00544e49
    1b2c:	54534146 	ldrbpl	r4, [r3], #-326	; 0xfffffeba
    1b30:	4d5f3233 	lfmmi	f3, 2, [pc, #-204]	; 1a6c <_Min_Stack_Size+0x166c>
    1b34:	5f5f5841 	svcpl	0x005f5841
    1b38:	66783020 	ldrbtvs	r3, [r8], -r0, lsr #32
    1b3c:	66666666 	strbtvs	r6, [r6], -r6, ror #12
    1b40:	55666666 	strbpl	r6, [r6, #-1638]!	; 0xfffff99a
    1b44:	465f5f00 	ldrbmi	r5, [pc], -r0, lsl #30
    1b48:	4d5f544c 	cfldrdmi	mvd5, [pc, #-304]	; 1a20 <_Min_Stack_Size+0x1620>
    1b4c:	455f5841 	ldrbmi	r5, [pc, #-2113]	; 1313 <_Min_Stack_Size+0xf13>
    1b50:	5f5f5058 	svcpl	0x005f5058
    1b54:	38323120 	ldmdacc	r2!, {r5, r8, ip, sp}
    1b58:	535f5f00 	cmppl	pc, #0, 30
    1b5c:	4f455a49 	svcmi	0x00455a49
    1b60:	4f4c5f46 	svcmi	0x004c5f46
    1b64:	5f5f474e 	svcpl	0x005f474e
    1b68:	5f003420 	svcpl	0x00003420
    1b6c:	7028505f 	eorvc	r5, r8, pc, asr r0
    1b70:	6f746f72 	svcvs	0x00746f72
    1b74:	70202973 	eorvc	r2, r0, r3, ror r9
    1b78:	6f746f72 	svcvs	0x00746f72
    1b7c:	434c0073 	movtmi	r0, #49267	; 0xc073
    1b80:	42385f44 	eorsmi	r5, r8, #68, 30	; 0x110
    1b84:	4d5f5449 	cfldrdmi	mvd5, [pc, #-292]	; 1a68 <_Min_Stack_Size+0x1668>
    1b88:	5f45444f 	svcpl	0x0045444f
    1b8c:	494c5f32 	stmdbmi	ip, {r1, r4, r5, r8, r9, sl, fp, ip, lr}^
    1b90:	3020454e 	eorcc	r4, r0, lr, asr #10
    1b94:	00383378 	eorseq	r3, r8, r8, ror r3
    1b98:	69647473 	stmdbvs	r4!, {r0, r1, r4, r5, r6, sl, ip, sp, lr}^
    1b9c:	5f28206e 	svcpl	0x0028206e
    1ba0:	4e454552 	mcrmi	5, 2, r4, cr5, cr2, {2}
    1ba4:	5f3e2d54 	svcpl	0x003e2d54
    1ba8:	69647473 	stmdbvs	r4!, {r0, r1, r4, r5, r6, sl, ip, sp, lr}^
    1bac:	5f00296e 	svcpl	0x0000296e
    1bb0:	7274735f 	rsbsvc	r7, r4, #2080374785	; 0x7c000001
    1bb4:	6e6f6d66 	cdpvs	13, 6, cr6, cr15, cr6, {3}
    1bb8:	656b696c 	strbvs	r6, [fp, #-2412]!	; 0xfffff694
    1bbc:	746d6628 	strbtvc	r6, [sp], #-1576	; 0xfffff9d8
    1bc0:	2c677261 	sfmcs	f7, 2, [r7], #-388	; 0xfffffe7c
    1bc4:	73726966 	cmnvc	r2, #1671168	; 0x198000
    1bc8:	72617674 	rsbvc	r7, r1, #116, 12	; 0x7400000
    1bcc:	29677261 	stmdbcs	r7!, {r0, r5, r6, r9, ip, sp, lr}^
    1bd0:	615f5f20 	cmpvs	pc, r0, lsr #30
    1bd4:	69727474 	ldmdbvs	r2!, {r2, r4, r5, r6, sl, ip, sp, lr}^
    1bd8:	65747562 	ldrbvs	r7, [r4, #-1378]!	; 0xfffffa9e
    1bdc:	28285f5f 	stmdacs	r8!, {r0, r1, r2, r3, r4, r6, r8, r9, sl, fp, ip, lr}
    1be0:	6f665f5f 	svcvs	0x00665f5f
    1be4:	74616d72 	strbtvc	r6, [r1], #-3442	; 0xfffff28e
    1be8:	28205f5f 	stmdacs	r0!, {r0, r1, r2, r3, r4, r6, r8, r9, sl, fp, ip, lr}
    1bec:	74735f5f 	ldrbtvc	r5, [r3], #-3935	; 0xfffff0a1
    1bf0:	6f6d6672 	svcvs	0x006d6672
    1bf4:	2c5f5f6e 	mrrccs	15, 6, r5, pc, cr14	; <UNPREDICTABLE>
    1bf8:	746d6620 	strbtvc	r6, [sp], #-1568	; 0xfffff9e0
    1bfc:	2c677261 	sfmcs	f7, 2, [r7], #-388	; 0xfffffe7c
    1c00:	72696620 	rsbvc	r6, r9, #32, 12	; 0x2000000
    1c04:	61767473 	cmnvs	r6, r3, ror r4
    1c08:	67726172 			; <UNDEFINED> instruction: 0x67726172
    1c0c:	00292929 	eoreq	r2, r9, r9, lsr #18
    1c10:	4b454553 	blmi	1153164 <_Min_Stack_Size+0x1152d64>
    1c14:	5255435f 	subspl	r4, r5, #2080374785	; 0x7c000001
    1c18:	5f003120 	svcpl	0x00003120
    1c1c:	4e454552 	mcrmi	5, 2, r4, cr5, cr2, {2}
    1c20:	504d5f54 	subpl	r5, sp, r4, asr pc
    1c24:	5345525f 	movtpl	r5, #21087	; 0x525f
    1c28:	5f544c55 	svcpl	0x00544c55
    1c2c:	7470284b 	ldrbtvc	r2, [r0], #-2123	; 0xfffff7b5
    1c30:	28202972 	stmdacs	r0!, {r1, r4, r5, r6, r8, fp, sp}
    1c34:	72747028 	rsbsvc	r7, r4, #40	; 0x28
    1c38:	5f3e2d29 	svcpl	0x003e2d29
    1c3c:	3e2d706d 	cdpcc	0, 2, cr7, cr13, cr13, {3}
    1c40:	7365725f 	cmnvc	r5, #-268435451	; 0xf0000005
    1c44:	5f746c75 	svcpl	0x00746c75
    1c48:	4c00296b 			; <UNDEFINED> instruction: 0x4c00296b
    1c4c:	445f4443 	ldrbmi	r4, [pc], #-1091	; 1c54 <_Min_Stack_Size+0x1854>
    1c50:	4c505349 	mrrcmi	3, 4, r5, r0, cr9
    1c54:	4f5f5941 	svcmi	0x005f5941
    1c58:	4e555f4e 	cdpmi	15, 5, cr5, cr5, cr14, {2}
    1c5c:	4c524544 	cfldr64mi	mvdx4, [r2], {68}	; 0x44
    1c60:	5f454e49 	svcpl	0x00454e49
    1c64:	435f4e4f 	cmpmi	pc, #1264	; 0x4f0
    1c68:	4f535255 	svcmi	0x00535255
    1c6c:	464f5f52 			; <UNDEFINED> instruction: 0x464f5f52
    1c70:	78302046 	ldmdavc	r0!, {r1, r2, r6, sp}
    1c74:	5f004530 	svcpl	0x00004530
    1c78:	5a49535f 	bpl	12569fc <_Min_Stack_Size+0x12565fc>
    1c7c:	5f464f45 	svcpl	0x00464f45
    1c80:	42554f44 	subsmi	r4, r5, #68, 30	; 0x110
    1c84:	5f5f454c 	svcpl	0x005f454c
    1c88:	5f003820 	svcpl	0x00003820
    1c8c:	544e495f 	strbpl	r4, [lr], #-2399	; 0xfffff6a1
    1c90:	41454c5f 	cmpmi	r5, pc, asr ip
    1c94:	32335453 	eorscc	r5, r3, #1392508928	; 0x53000000
    1c98:	4449575f 	strbmi	r5, [r9], #-1887	; 0xfffff8a1
    1c9c:	5f5f4854 	svcpl	0x005f4854
    1ca0:	00323320 	eorseq	r3, r2, r0, lsr #6
    1ca4:	4f4c435f 	svcmi	0x004c435f
    1ca8:	545f4b43 	ldrbpl	r4, [pc], #-2883	; 1cb0 <_Min_Stack_Size+0x18b0>
    1cac:	6e75205f 	mrcvs	0, 3, r2, cr5, cr15, {2}
    1cb0:	6e676973 			; <UNDEFINED> instruction: 0x6e676973
    1cb4:	6c206465 	cfstrsvs	mvf6, [r0], #-404	; 0xfffffe6c
    1cb8:	00676e6f 	rsbeq	r6, r7, pc, ror #28
    1cbc:	4d49545f 	cfstrdmi	mvd5, [r9, #-380]	; 0xfffffe84
    1cc0:	5f545f45 	svcpl	0x00545f45
    1cc4:	695f5f20 	ldmdbvs	pc, {r5, r8, r9, sl, fp, ip, lr}^	; <UNPREDICTABLE>
    1cc8:	6c5f746e 	cfldrdvs	mvd7, [pc], {110}	; 0x6e
    1ccc:	74736165 	ldrbtvc	r6, [r3], #-357	; 0xfffffe9b
    1cd0:	745f3436 	ldrbvc	r3, [pc], #-1078	; 1cd8 <_Min_Stack_Size+0x18d8>
    1cd4:	72747300 	rsbsvc	r7, r4, #0, 6
    1cd8:	69706d63 	ldmdbvs	r0!, {r0, r1, r5, r6, r8, sl, fp, sp, lr}^
    1cdc:	72747320 	rsbsvc	r7, r4, #32, 6	; 0x80000000
    1ce0:	65736163 	ldrbvs	r6, [r3, #-355]!	; 0xfffffe9d
    1ce4:	00706d63 	rsbseq	r6, r0, r3, ror #26
    1ce8:	31544e49 	cmpcc	r4, r9, asr #28
    1cec:	494d5f36 	stmdbmi	sp, {r1, r2, r4, r5, r8, r9, sl, fp, ip, lr}^
    1cf0:	2d28204e 	stccs	0, cr2, [r8, #-312]!	; 0xfffffec8
    1cf4:	4e495f5f 	mcrmi	15, 2, r5, cr9, cr15, {2}
    1cf8:	5f363154 	svcpl	0x00363154
    1cfc:	5f58414d 	svcpl	0x0058414d
    1d00:	202d205f 	eorcs	r2, sp, pc, asr r0
    1d04:	5f002931 	svcpl	0x00002931
    1d08:	5341465f 	movtpl	r4, #5727	; 0x165f
    1d0c:	20363154 	eorscs	r3, r6, r4, asr r1
    1d10:	45525f00 	ldrbmi	r5, [r2, #-3840]	; 0xfffff100
    1d14:	5f544e45 	svcpl	0x00544e45
    1d18:	444e4152 	strbmi	r4, [lr], #-338	; 0xfffffeae
    1d1c:	535f3834 	cmppl	pc, #52, 16	; 0x340000
    1d20:	28444545 	stmdacs	r4, {r0, r2, r6, r8, sl, lr}^
    1d24:	29727470 	ldmdbcs	r2!, {r4, r5, r6, sl, ip, sp, lr}^
    1d28:	70282820 	eorvc	r2, r8, r0, lsr #16
    1d2c:	2d297274 	sfmcs	f7, 4, [r9, #-464]!	; 0xfffffe30
    1d30:	34725f3e 	ldrbtcc	r5, [r2], #-3902	; 0xfffff0c2
    1d34:	5f3e2d38 	svcpl	0x003e2d38
    1d38:	64656573 	strbtvs	r6, [r5], #-1395	; 0xfffffa8d
    1d3c:	5f5f0029 	svcpl	0x005f0029
    1d40:	4752414c 	ldrbmi	r4, [r2, -ip, asr #2]
    1d44:	4c494645 	mcrrmi	6, 4, r4, r9, cr5
    1d48:	49565f45 	ldmdbmi	r6, {r0, r2, r6, r8, r9, sl, fp, ip, lr}^
    1d4c:	4c424953 	mcrrmi	9, 5, r4, r2, cr3	; <UNPREDICTABLE>
    1d50:	00302045 	eorseq	r2, r0, r5, asr #32
    1d54:	6e695f5f 	mcrvs	15, 3, r5, cr9, cr15, {2}
    1d58:	61665f74 	smcvs	26100	; 0x65f4
    1d5c:	5f387473 	svcpl	0x00387473
    1d60:	65645f74 	strbvs	r5, [r4, #-3956]!	; 0xfffff08c
    1d64:	656e6966 	strbvs	r6, [lr, #-2406]!	; 0xfffff69a
    1d68:	00312064 	eorseq	r2, r1, r4, rrx
    1d6c:	454e5f5f 	strbmi	r5, [lr, #-3935]	; 0xfffff0a1
    1d70:	42494c57 	submi	r4, r9, #22272	; 0x5700
    1d74:	34205f5f 	strtcc	r5, [r0], #-3935	; 0xfffff0a1
    1d78:	49584500 	ldmdbmi	r8, {r8, sl, lr}^
    1d7c:	55535f54 	ldrbpl	r5, [r3, #-3924]	; 0xfffff0ac
    1d80:	53454343 	movtpl	r4, #21315	; 0x5343
    1d84:	00302053 	eorseq	r2, r0, r3, asr r0
    1d88:	49545845 	ldmdbmi	r4, {r0, r2, r6, fp, ip, lr}^
    1d8c:	52495f36 	subpl	r5, r9, #54, 30	; 0xd8
    1d90:	33322051 	teqcc	r2, #81	; 0x51
    1d94:	555f5f00 	ldrbpl	r5, [pc, #-3840]	; e9c <_Min_Stack_Size+0xa9c>
    1d98:	465f4154 			; <UNDEFINED> instruction: 0x465f4154
    1d9c:	5f544942 	svcpl	0x00544942
    1da0:	3436205f 	ldrtcc	r2, [r6], #-95	; 0xffffffa1
    1da4:	415f5f00 	cmpmi	pc, r0, lsl #30
    1da8:	414e4d53 	cmpmi	lr, r3, asr sp
    1dac:	6328454d 			; <UNDEFINED> instruction: 0x6328454d
    1db0:	656d616e 	strbvs	r6, [sp, #-366]!	; 0xfffffe92
    1db4:	5f5f2029 	svcpl	0x005f2029
    1db8:	52545358 	subspl	r5, r4, #88, 6	; 0x60000001
    1dbc:	20474e49 	subcs	r4, r7, r9, asr #28
    1dc0:	555f5f28 	ldrbpl	r5, [pc, #-3880]	; ea0 <_Min_Stack_Size+0xaa0>
    1dc4:	5f524553 	svcpl	0x00524553
    1dc8:	4542414c 	strbmi	r4, [r2, #-332]	; 0xfffffeb4
    1dcc:	52505f4c 	subspl	r5, r0, #76, 30	; 0x130
    1dd0:	58494645 	stmdapl	r9, {r0, r2, r6, r9, sl, lr}^
    1dd4:	20295f5f 	eorcs	r5, r9, pc, asr pc
    1dd8:	6d616e63 	stclvs	14, cr6, [r1, #-396]!	; 0xfffffe74
    1ddc:	5f5f0065 	svcpl	0x005f0065
    1de0:	5f544c46 	svcpl	0x00544c46
    1de4:	49434544 	stmdbmi	r3, {r2, r6, r8, sl, lr}^
    1de8:	5f4c414d 	svcpl	0x004c414d
    1dec:	5f474944 	svcpl	0x00474944
    1df0:	0039205f 	eorseq	r2, r9, pc, asr r0
    1df4:	5254535f 	subspl	r5, r4, #2080374785	; 0x7c000001
    1df8:	53474e49 	movtpl	r4, #32329	; 0x7e49
    1dfc:	205f485f 	subscs	r4, pc, pc, asr r8	; <UNPREDICTABLE>
    1e00:	4e495f00 	cdpmi	15, 4, cr5, cr9, cr0, {0}
    1e04:	5f545f4f 	svcpl	0x00545f4f
    1e08:	4c434544 	cfstr64mi	mvdx4, [r3], {68}	; 0x44
    1e0c:	44455241 	strbmi	r5, [r5], #-577	; 0xfffffdbf
    1e10:	5f5f0020 	svcpl	0x005f0020
    1e14:	5f544e49 	svcpl	0x00544e49
    1e18:	5341454c 	movtpl	r4, #5452	; 0x154c
    1e1c:	5f323354 	svcpl	0x00323354
    1e20:	5f58414d 	svcpl	0x0058414d
    1e24:	7830205f 	ldmdavc	r0!, {r0, r1, r2, r3, r4, r6, sp}
    1e28:	66666637 			; <UNDEFINED> instruction: 0x66666637
    1e2c:	66666666 	strbtvs	r6, [r6], -r6, ror #12
    1e30:	5047004c 	subpl	r0, r7, ip, asr #32
    1e34:	505f4f49 	subspl	r4, pc, r9, asr #30
    1e38:	315f4e49 	cmpcc	pc, r9, asr #28
    1e3c:	28282032 	stmdacs	r8!, {r1, r4, r5, sp}
    1e40:	746e6975 	strbtvc	r6, [lr], #-2421	; 0xfffff68b
    1e44:	745f3631 	ldrbvc	r3, [pc], #-1585	; 1e4c <_Min_Stack_Size+0x1a4c>
    1e48:	31783029 	cmncc	r8, r9, lsr #32
    1e4c:	29303030 	ldmdbcs	r0!, {r4, r5, ip, sp}
    1e50:	49475f00 	stmdbmi	r7, {r8, r9, sl, fp, ip, lr}^
    1e54:	5f545f44 	svcpl	0x00545f44
    1e58:	4c434544 	cfstr64mi	mvdx4, [r3], {68}	; 0x44
    1e5c:	44455241 	strbmi	r5, [r5], #-577	; 0xfffffdbf
    1e60:	4c5f0020 	mrrcmi	0, 2, r0, pc, cr0	; <UNPREDICTABLE>
    1e64:	5f4b434f 	svcpl	0x004b434f
    1e68:	55434552 	strbpl	r4, [r3, #-1362]	; 0xfffffaae
    1e6c:	56495352 			; <UNDEFINED> instruction: 0x56495352
    1e70:	20545f45 	subscs	r5, r4, r5, asr #30
    1e74:	434f4c5f 	movtmi	r4, #64607	; 0xfc5f
    1e78:	00545f4b 	subseq	r5, r4, fp, asr #30
    1e7c:	4d544e49 	ldclmi	14, cr4, [r4, #-292]	; 0xfffffedc
    1e80:	4d5f5841 	ldclmi	8, cr5, [pc, #-260]	; 1d84 <_Min_Stack_Size+0x1984>
    1e84:	28204e49 	stmdacs	r0!, {r0, r3, r6, r9, sl, fp, lr}
    1e88:	544e492d 	strbpl	r4, [lr], #-2349	; 0xfffff6d3
    1e8c:	5f58414d 	svcpl	0x0058414d
    1e90:	2058414d 	subscs	r4, r8, sp, asr #2
    1e94:	2931202d 	ldmdbcs	r1!, {r0, r2, r3, r5, sp}
    1e98:	48545000 	ldmdami	r4, {ip, lr}^
    1e9c:	44414552 	strbmi	r4, [r1], #-1362	; 0xfffffaae
    1ea0:	5058455f 	subspl	r4, r8, pc, asr r5
    1ea4:	4943494c 	stmdbmi	r3, {r2, r3, r6, r8, fp, lr}^
    1ea8:	43535f54 	cmpmi	r3, #84, 30	; 0x150
    1eac:	20444548 	subcs	r4, r4, r8, asr #10
    1eb0:	69500032 	ldmdbvs	r0, {r1, r4, r5}^
    1eb4:	6766436e 	strbvs	r4, [r6, -lr, ror #6]!
    1eb8:	41485f00 	cmpmi	r8, r0, lsl #30
    1ebc:	4c5f4556 	cfldr64mi	mvdx4, [pc], {86}	; 0x56
    1ec0:	5f474e4f 	svcpl	0x00474e4f
    1ec4:	42554f44 	subsmi	r4, r5, #68, 30	; 0x110
    1ec8:	3120454c 			; <UNDEFINED> instruction: 0x3120454c
    1ecc:	535f5f00 	cmppl	pc, #0, 30
    1ed0:	2046424d 	subcs	r4, r6, sp, asr #4
    1ed4:	30307830 	eorscc	r7, r0, r0, lsr r8
    1ed8:	47003038 	smladxmi	r0, r8, r0, r3
    1edc:	5f4f4950 	svcpl	0x004f4950
    1ee0:	45444f4d 	strbmi	r4, [r4, #-3917]	; 0xfffff0b3
    1ee4:	465f5f00 	ldrbmi	r5, [pc], -r0, lsl #30
    1ee8:	54434152 	strbpl	r4, [r3], #-338	; 0xfffffeae
    1eec:	4942465f 	stmdbmi	r2, {r0, r1, r2, r3, r4, r6, r9, sl, lr}^
    1ef0:	205f5f54 	subscs	r5, pc, r4, asr pc	; <UNPREDICTABLE>
    1ef4:	5f003531 	svcpl	0x00003531
    1ef8:	4957535f 	ldmdbmi	r7, {r0, r1, r2, r3, r4, r6, r8, r9, ip, lr}^
    1efc:	78302044 	ldmdavc	r0!, {r2, r6, sp}
    1f00:	30303032 	eorscc	r3, r0, r2, lsr r0
    1f04:	4c5f5f00 	mrrcmi	15, 0, r5, pc, cr0	; <UNPREDICTABLE>
    1f08:	4343414c 	movtmi	r4, #12620	; 0x314c
    1f0c:	455f4d55 	ldrbmi	r4, [pc, #-3413]	; 11bf <_Min_Stack_Size+0xdbf>
    1f10:	4c495350 	mcrrmi	3, 5, r5, r9, cr0
    1f14:	5f5f4e4f 	svcpl	0x005f4e4f
    1f18:	31783020 	cmncc	r8, r0, lsr #32
    1f1c:	31332d50 	teqcc	r3, r0, asr sp
    1f20:	004b4c4c 	subeq	r4, fp, ip, asr #24
    1f24:	4e475f5f 	mcrmi	15, 2, r5, cr7, cr15, {2}
    1f28:	505f4355 	subspl	r4, pc, r5, asr r3	; <UNPREDICTABLE>
    1f2c:	48435441 	stmdami	r3, {r0, r6, sl, ip, lr}^
    1f30:	4556454c 	ldrbmi	r4, [r6, #-1356]	; 0xfffffab4
    1f34:	205f5f4c 	subscs	r5, pc, ip, asr #30
    1f38:	5f5f0031 	svcpl	0x005f0031
    1f3c:	5f434347 	svcpl	0x00434347
    1f40:	4d4f5441 	cfstrdmi	mvd5, [pc, #-260]	; 1e44 <_Min_Stack_Size+0x1a44>
    1f44:	435f4349 	cmpmi	pc, #603979777	; 0x24000001
    1f48:	33524148 	cmpcc	r2, #72, 2
    1f4c:	5f545f32 	svcpl	0x00545f32
    1f50:	4b434f4c 	blmi	10d5c88 <_Min_Stack_Size+0x10d5888>
    1f54:	4552465f 	ldrbmi	r4, [r2, #-1631]	; 0xfffff9a1
    1f58:	00322045 	eorseq	r2, r2, r5, asr #32
    1f5c:	5f434352 	svcpl	0x00434352
    1f60:	4f495047 	svcmi	0x00495047
    1f64:	4c435f42 	mcrrmi	15, 4, r5, r3, cr2
    1f68:	4e455f4b 	cdpmi	15, 4, cr5, cr5, cr11, {2}
    1f6c:	28202928 	stmdacs	r0!, {r3, r5, r8, fp, sp}
    1f70:	2d434352 	stclcs	3, cr4, [r3, #-328]	; 0xfffffeb8
    1f74:	4250413e 	subsmi	r4, r0, #-2147483633	; 0x8000000f
    1f78:	524e4532 	subpl	r4, lr, #209715200	; 0xc800000
    1f7c:	203d7c20 	eorscs	r7, sp, r0, lsr #24
    1f80:	3c3c2031 	ldccc	0, cr2, [ip], #-196	; 0xffffff3c
    1f84:	00293320 	eoreq	r3, r9, r0, lsr #6
    1f88:	6f6c665f 	svcvs	0x006c665f
    1f8c:	69666b63 	stmdbvs	r6!, {r0, r1, r5, r6, r8, r9, fp, sp, lr}^
    1f90:	6628656c 	strtvs	r6, [r8], -ip, ror #10
    1f94:	28202970 	stmdacs	r0!, {r4, r5, r6, r8, fp, sp}
    1f98:	70662828 	rsbvc	r2, r6, r8, lsr #16
    1f9c:	5f3e2d29 	svcpl	0x003e2d29
    1fa0:	67616c66 	strbvs	r6, [r1, -r6, ror #24]!
    1fa4:	20262073 	eorcs	r2, r6, r3, ror r0
    1fa8:	53535f5f 	cmppl	r3, #380	; 0x17c
    1fac:	20295254 	eorcs	r5, r9, r4, asr r2
    1fb0:	2030203f 	eorscs	r2, r0, pc, lsr r0
    1fb4:	5f5f203a 	svcpl	0x005f203a
    1fb8:	6b636f6c 	blvs	18ddd70 <_Min_Stack_Size+0x18dd970>
    1fbc:	7163615f 	cmnvc	r3, pc, asr r1
    1fc0:	65726975 	ldrbvs	r6, [r2, #-2421]!	; 0xfffff68b
    1fc4:	6365725f 	cmnvs	r5, #-268435451	; 0xf0000005
    1fc8:	69737275 	ldmdbvs	r3!, {r0, r2, r4, r5, r6, r9, ip, sp, lr}^
    1fcc:	28286576 	stmdacs	r8!, {r1, r2, r4, r5, r6, r8, sl, sp, lr}
    1fd0:	2d297066 	stccs	0, cr7, [r9, #-408]!	; 0xfffffe68
    1fd4:	6f6c5f3e 	svcvs	0x006c5f3e
    1fd8:	29296b63 	stmdbcs	r9!, {r0, r1, r5, r6, r8, r9, fp, sp, lr}
    1fdc:	615f5f00 	cmpvs	pc, r0, lsl #30
    1fe0:	636f6c6c 	cmnvs	pc, #108, 24	; 0x6c00
    1fe4:	696c615f 	stmdbvs	ip!, {r0, r1, r2, r3, r4, r6, r8, sp, lr}^
    1fe8:	78286e67 	stmdavc	r8!, {r0, r1, r2, r5, r6, r9, sl, fp, sp, lr}
    1fec:	5f5f2029 	svcpl	0x005f2029
    1ff0:	72747461 	rsbsvc	r7, r4, #1627389952	; 0x61000000
    1ff4:	74756269 	ldrbtvc	r6, [r5], #-617	; 0xfffffd97
    1ff8:	285f5f65 	ldmdacs	pc, {r0, r2, r5, r6, r8, r9, sl, fp, ip, lr}^	; <UNPREDICTABLE>
    1ffc:	615f5f28 	cmpvs	pc, r8, lsr #30
    2000:	636f6c6c 	cmnvs	pc, #108, 24	; 0x6c00
    2004:	696c615f 	stmdbvs	ip!, {r0, r1, r2, r3, r4, r6, r8, sp, lr}^
    2008:	5f5f6e67 	svcpl	0x005f6e67
    200c:	29297828 	stmdbcs	r9!, {r3, r5, fp, ip, sp, lr}
    2010:	525f0029 	subspl	r0, pc, #41	; 0x29
    2014:	34444e41 	strbcc	r4, [r4], #-3649	; 0xfffff1bf
    2018:	45535f38 	ldrbmi	r5, [r3, #-3896]	; 0xfffff0c8
    201c:	325f4445 	subscc	r4, pc, #1157627904	; 0x45000000
    2020:	78302820 	ldmdavc	r0!, {r5, fp, sp}
    2024:	34333231 	ldrtcc	r3, [r3], #-561	; 0xfffffdcf
    2028:	5f5f0029 	svcpl	0x005f0029
    202c:	6465656e 	strbtvs	r6, [r5], #-1390	; 0xfffffa92
    2030:	765f5f5f 	usaxvc	r5, pc, pc	; <UNPREDICTABLE>
    2034:	696c5f61 	stmdbvs	ip!, {r0, r5, r6, r8, r9, sl, fp, ip, lr}^
    2038:	00207473 	eoreq	r7, r0, r3, ror r4
    203c:	72705f5f 	rsbsvc	r5, r0, #380	; 0x17c
    2040:	63696465 	cmnvs	r9, #1694498816	; 0x65000000
    2044:	72745f74 	rsbsvc	r5, r4, #116, 30	; 0x1d0
    2048:	65286575 	strvs	r6, [r8, #-1397]!	; 0xfffffa8b
    204c:	20297078 	eorcs	r7, r9, r8, ror r0
    2050:	75625f5f 	strbvc	r5, [r2, #-3935]!	; 0xfffff0a1
    2054:	69746c69 	ldmdbvs	r4!, {r0, r3, r5, r6, sl, fp, sp, lr}^
    2058:	78655f6e 	stmdavc	r5!, {r1, r2, r3, r5, r6, r8, r9, sl, fp, ip, lr}^
    205c:	74636570 	strbtvc	r6, [r3], #-1392	; 0xfffffa90
    2060:	78652828 	stmdavc	r5!, {r3, r5, fp, sp}^
    2064:	202c2970 	eorcs	r2, ip, r0, ror r9
    2068:	5f002931 	svcpl	0x00002931
    206c:	636f6c5f 	cmnvs	pc, #24320	; 0x5f00
    2070:	65725f6b 	ldrbvs	r5, [r2, #-3947]!	; 0xfffff095
    2074:	7361656c 	cmnvc	r1, #108, 10	; 0x1b000000
    2078:	65725f65 	ldrbvs	r5, [r2, #-3941]!	; 0xfffff09b
    207c:	73727563 	cmnvc	r2, #415236096	; 0x18c00000
    2080:	28657669 	stmdacs	r5!, {r0, r3, r5, r6, r9, sl, ip, sp, lr}^
    2084:	6b636f6c 	blvs	18dde3c <_Min_Stack_Size+0x18dda3c>
    2088:	5f5f2029 	svcpl	0x005f2029
    208c:	61746572 	cmnvs	r4, r2, ror r5
    2090:	74656772 	strbtvc	r6, [r5], #-1906	; 0xfffff88e
    2094:	636f6c5f 	cmnvs	pc, #24320	; 0x5f00
    2098:	65725f6b 	ldrbvs	r5, [r2, #-3947]!	; 0xfffff095
    209c:	7361656c 	cmnvc	r1, #108, 10	; 0x1b000000
    20a0:	65725f65 	ldrbvs	r5, [r2, #-3941]!	; 0xfffff09b
    20a4:	73727563 	cmnvc	r2, #415236096	; 0x18c00000
    20a8:	28657669 	stmdacs	r5!, {r0, r3, r5, r6, r9, sl, ip, sp, lr}^
    20ac:	6b636f6c 	blvs	18dde64 <_Min_Stack_Size+0x18dda64>
    20b0:	5f5f0029 	svcpl	0x005f0029
    20b4:	5f544c46 	svcpl	0x00544c46
    20b8:	5f474944 	svcpl	0x00474944
    20bc:	0036205f 	eorseq	r2, r6, pc, asr r0
    20c0:	5f755f5f 	svcpl	0x00755f5f
    20c4:	72616863 	rsbvc	r6, r1, #6488064	; 0x630000
    20c8:	6665645f 			; <UNDEFINED> instruction: 0x6665645f
    20cc:	64656e69 	strbtvs	r6, [r5], #-3689	; 0xfffff197
    20d0:	5f5f0020 	svcpl	0x005f0020
    20d4:	5f544e49 	svcpl	0x00544e49
    20d8:	54534146 	ldrbpl	r4, [r3], #-326	; 0xfffffeba
    20dc:	575f3233 	smmlarpl	pc, r3, r2, r3	; <UNPREDICTABLE>
    20e0:	48544449 	ldmdami	r4, {r0, r3, r6, sl, lr}^
    20e4:	33205f5f 			; <UNDEFINED> instruction: 0x33205f5f
    20e8:	5f5f0032 	svcpl	0x005f0032
    20ec:	72747461 	rsbsvc	r7, r4, #1627389952	; 0x61000000
    20f0:	74756269 	ldrbtvc	r6, [r5], #-617	; 0xfffffd97
    20f4:	6f665f65 	svcvs	0x00665f65
    20f8:	74616d72 	strbtvc	r6, [r1], #-3442	; 0xfffff28e
    20fc:	7274735f 	rsbsvc	r7, r4, #2080374785	; 0x7c000001
    2100:	6e6f6d66 	cdpvs	13, 6, cr6, cr15, cr6, {3}
    2104:	61285f5f 			; <UNDEFINED> instruction: 0x61285f5f
    2108:	2029622c 	eorcs	r6, r9, ip, lsr #4
    210c:	53425f00 	movtpl	r5, #12032	; 0x2f00
    2110:	49535f44 	ldmdbmi	r3, {r2, r6, r8, r9, sl, fp, ip, lr}^
    2114:	545f455a 	ldrbpl	r4, [pc], #-1370	; 211c <_Min_Stack_Size+0x1d1c>
    2118:	4645445f 			; <UNDEFINED> instruction: 0x4645445f
    211c:	44454e49 	strbmi	r4, [r5], #-3657	; 0xfffff1b7
    2120:	5f00205f 	svcpl	0x0000205f
    2124:	4e49555f 	mcrmi	5, 2, r5, cr9, cr15, {2}
    2128:	41465f54 	cmpmi	r6, r4, asr pc
    212c:	32335453 	eorscc	r5, r3, #1392508928	; 0x53000000
    2130:	5059545f 	subspl	r5, r9, pc, asr r4
    2134:	205f5f45 	subscs	r5, pc, r5, asr #30
    2138:	69736e75 	ldmdbvs	r3!, {r0, r2, r4, r5, r6, r9, sl, fp, sp, lr}^
    213c:	64656e67 	strbtvs	r6, [r5], #-3687	; 0xfffff199
    2140:	746e6920 	strbtvc	r6, [lr], #-2336	; 0xfffff6e0
    2144:	5f5f5f00 	svcpl	0x005f5f00
    2148:	5f746e69 	svcpl	0x00746e69
    214c:	657a6973 	ldrbvs	r6, [sl, #-2419]!	; 0xfffff68d
    2150:	685f745f 	ldmdavs	pc, {r0, r1, r2, r3, r4, r6, sl, ip, sp, lr}^	; <UNPREDICTABLE>
    2154:	5f5f0020 	svcpl	0x005f0020
    2158:	43445453 	movtmi	r5, #17491	; 0x4453
    215c:	4654555f 			; <UNDEFINED> instruction: 0x4654555f
    2160:	5f32335f 	svcpl	0x0032335f
    2164:	0031205f 	eorseq	r2, r1, pc, asr r0
    2168:	49535f5f 	ldmdbmi	r3, {r0, r1, r2, r3, r4, r6, r8, r9, sl, fp, ip, lr}^
    216c:	464f455a 			; <UNDEFINED> instruction: 0x464f455a
    2170:	4f4c465f 	svcmi	0x004c465f
    2174:	5f5f5441 	svcpl	0x005f5441
    2178:	5f003420 	svcpl	0x00003420
    217c:	544c465f 	strbpl	r4, [ip], #-1631	; 0xfffff9a1
    2180:	5f583233 	svcpl	0x00583233
    2184:	4f4e4544 	svcmi	0x004e4544
    2188:	4d5f4d52 	ldclmi	13, cr4, [pc, #-328]	; 2048 <_Min_Stack_Size+0x1c48>
    218c:	5f5f4e49 	svcpl	0x005f4e49
    2190:	392e3420 	stmdbcc	lr!, {r5, sl, ip, sp}
    2194:	35363034 	ldrcc	r3, [r6, #-52]!	; 0xffffffcc
    2198:	38353436 	ldmdacc	r5!, {r1, r2, r4, r5, sl, ip, sp}
    219c:	34323134 	ldrtcc	r3, [r2], #-308	; 0xfffffecc
    21a0:	65343536 	ldrvs	r3, [r4, #-1334]!	; 0xfffffaca
    21a4:	3432332d 	ldrtcc	r3, [r2], #-813	; 0xfffffcd3
    21a8:	78323346 	ldmdavc	r2!, {r1, r2, r6, r8, r9, ip, sp}
    21ac:	475f5f00 	ldrbmi	r5, [pc, -r0, lsl #30]
    21b0:	4c43554e 	cfstr64mi	mvdx5, [r3], {78}	; 0x4e
    21b4:	5f454b49 	svcpl	0x00454b49
    21b8:	4854414d 	ldmdami	r4, {r0, r2, r3, r6, r8, lr}^
    21bc:	4955425f 	ldmdbmi	r5, {r0, r1, r2, r3, r4, r6, r9, lr}^
    21c0:	4e49544c 	cdpmi	4, 4, cr5, cr9, cr12, {2}
    21c4:	4c45525f 	sfmmi	f5, 2, [r5], {95}	; 0x5f
    21c8:	2053504f 	subscs	r5, r3, pc, asr #32
    21cc:	465f5f00 	ldrbmi	r5, [pc], -r0, lsl #30
    21d0:	4d5f544c 	cfldrdmi	mvd5, [pc, #-304]	; 20a8 <_Min_Stack_Size+0x1ca8>
    21d4:	315f5841 	cmpcc	pc, r1, asr #16
    21d8:	58455f30 	stmdapl	r5, {r4, r5, r8, r9, sl, fp, ip, lr}^
    21dc:	205f5f50 	subscs	r5, pc, r0, asr pc	; <UNPREDICTABLE>
    21e0:	5f003833 	svcpl	0x00003833
    21e4:	544d505f 	strbpl	r5, [sp], #-95	; 0xffffffa1
    21e8:	67726128 	ldrbvs	r6, [r2, -r8, lsr #2]!
    21ec:	61202973 			; <UNDEFINED> instruction: 0x61202973
    21f0:	00736772 	rsbseq	r6, r3, r2, ror r7
    21f4:	5f4e495f 	svcpl	0x004e495f
    21f8:	54524f50 	ldrbpl	r4, [r2], #-3920	; 0xfffff0b0
    21fc:	445f545f 	ldrbmi	r5, [pc], #-1119	; 2204 <_Min_Stack_Size+0x1e04>
    2200:	414c4345 	cmpmi	ip, r5, asr #6
    2204:	20444552 	subcs	r4, r4, r2, asr r5
    2208:	465f5f00 	ldrbmi	r5, [pc], -r0, lsl #30
    220c:	54434152 	strbpl	r4, [r3], #-338	; 0xfffffeae
    2210:	58414d5f 	stmdapl	r1, {r0, r1, r2, r3, r4, r6, r8, sl, fp, lr}^
    2214:	30205f5f 	eorcc	r5, r0, pc, asr pc
    2218:	46463758 			; <UNDEFINED> instruction: 0x46463758
    221c:	312d5046 			; <UNDEFINED> instruction: 0x312d5046
    2220:	5f005235 	svcpl	0x00005235
    2224:	6f74685f 	svcvs	0x0074685f
    2228:	5f286c6e 	svcpl	0x00286c6e
    222c:	5f202978 	svcpl	0x00202978
    2230:	7773625f 			; <UNDEFINED> instruction: 0x7773625f
    2234:	32337061 	eorscc	r7, r3, #97	; 0x61
    2238:	29785f28 	ldmdbcs	r8!, {r3, r5, r8, r9, sl, fp, ip, lr}^
    223c:	495f5f00 	ldmdbmi	pc, {r8, r9, sl, fp, ip, lr}^	; <UNPREDICTABLE>
    2240:	465f544e 	ldrbmi	r5, [pc], -lr, asr #8
    2244:	33545341 	cmpcc	r4, #67108865	; 0x4000001
    2248:	414d5f32 	cmpmi	sp, r2, lsr pc
    224c:	205f5f58 	subscs	r5, pc, r8, asr pc	; <UNPREDICTABLE>
    2250:	66377830 			; <UNDEFINED> instruction: 0x66377830
    2254:	66666666 	strbtvs	r6, [r6], -r6, ror #12
    2258:	5f006666 	svcpl	0x00006666
    225c:	4f54415f 	svcmi	0x0054415f
    2260:	5f43494d 	svcpl	0x0043494d
    2264:	5f514553 	svcpl	0x00514553
    2268:	20545343 	subscs	r5, r4, r3, asr #6
    226c:	525f0035 	subspl	r0, pc, #53	; 0x35
    2270:	5f444145 	svcpl	0x00444145
    2274:	54495257 	strbpl	r5, [r9], #-599	; 0xfffffda9
    2278:	45525f45 	ldrbmi	r5, [r2, #-3909]	; 0xfffff0bb
    227c:	4e525554 	mrcmi	5, 2, r5, cr2, cr4, {2}
    2280:	5059545f 	subspl	r5, r9, pc, asr r4
    2284:	6e692045 	cdpvs	0, 6, cr2, cr9, cr5, {2}
    2288:	5f5f0074 	svcpl	0x005f0074
    228c:	74656773 	strbtvc	r6, [r5], #-1907	; 0xfffff88d
    2290:	61725f63 	cmnvs	r2, r3, ror #30
    2294:	28725f77 	ldmdacs	r2!, {r0, r1, r2, r4, r5, r6, r8, r9, sl, fp, ip, lr}^
    2298:	74705f5f 	ldrbtvc	r5, [r0], #-3935	; 0xfffff0a1
    229c:	5f5f2c72 	svcpl	0x005f2c72
    22a0:	28202966 	stmdacs	r0!, {r1, r2, r5, r6, r8, fp, sp}
    22a4:	5f282d2d 	svcpl	0x00282d2d
    22a8:	2d29665f 	stccs	6, cr6, [r9, #-380]!	; 0xfffffe84
    22ac:	20725f3e 	rsbscs	r5, r2, lr, lsr pc
    22b0:	2030203c 	eorscs	r2, r0, ip, lsr r0
    22b4:	5f5f203f 	svcpl	0x005f203f
    22b8:	65677273 	strbvs	r7, [r7, #-627]!	; 0xfffffd8d
    22bc:	28725f74 	ldmdacs	r2!, {r2, r4, r5, r6, r8, r9, sl, fp, ip, lr}^
    22c0:	74705f5f 	ldrbtvc	r5, [r0], #-3935	; 0xfffff0a1
    22c4:	5f202c72 	svcpl	0x00202c72
    22c8:	2029665f 	eorcs	r6, r9, pc, asr r6
    22cc:	6928203a 	stmdbvs	r8!, {r1, r3, r4, r5, sp}
    22d0:	2829746e 	stmdacs	r9!, {r1, r2, r3, r5, r6, sl, ip, sp, lr}
    22d4:	5f5f282a 	svcpl	0x005f282a
    22d8:	3e2d2966 	vnmulcc.f16	s4, s26, s13	; <UNPREDICTABLE>
    22dc:	2b2b705f 	blcs	ade460 <_Min_Stack_Size+0xade060>
    22e0:	5f002929 	svcpl	0x00002929
    22e4:	6566735f 	strbvs	r7, [r6, #-863]!	; 0xfffffca1
    22e8:	726f7272 	rsbvc	r7, pc, #536870919	; 0x20000007
    22ec:	20297028 	eorcs	r7, r9, r8, lsr #32
    22f0:	6e692828 	cdpvs	8, 6, cr2, cr9, cr8, {1}
    22f4:	28282974 	stmdacs	r8!, {r2, r4, r5, r6, r8, fp, sp}
    22f8:	2d297028 	stccs	0, cr7, [r9, #-160]!	; 0xffffff60
    22fc:	6c665f3e 	stclvs	15, cr5, [r6], #-248	; 0xffffff08
    2300:	20736761 	rsbscs	r6, r3, r1, ror #14
    2304:	5f5f2026 	svcpl	0x005f2026
    2308:	52524553 	subspl	r4, r2, #348127232	; 0x14c00000
    230c:	3d212029 	stccc	0, cr2, [r1, #-164]!	; 0xffffff5c
    2310:	29293020 	stmdbcs	r9!, {r5, ip, sp}
    2314:	45445f00 	strbmi	r5, [r4, #-3840]	; 0xfffff100
    2318:	5f545f56 	svcpl	0x00545f56
    231c:	4c434544 	cfstr64mi	mvdx4, [r3], {68}	; 0x44
    2320:	44455241 	strbmi	r5, [r5], #-577	; 0xfffffdbf
    2324:	555f0020 	ldrbpl	r0, [pc, #-32]	; 230c <_Min_Stack_Size+0x1f0c>
    2328:	38544e49 	ldmdacc	r4, {r0, r3, r6, r9, sl, fp, lr}^
    232c:	445f545f 	ldrbmi	r5, [pc], #-1119	; 2334 <_Min_Stack_Size+0x1f34>
    2330:	414c4345 	cmpmi	ip, r5, asr #6
    2334:	20444552 	subcs	r4, r4, r2, asr r5
    2338:	6e5f5f00 	cdpvs	15, 5, cr5, cr15, cr0, {0}
    233c:	5f646565 	svcpl	0x00646565
    2340:	746e6977 	strbtvc	r6, [lr], #-2423	; 0xfffff689
    2344:	5200745f 	andpl	r7, r0, #1593835520	; 0x5f000000
    2348:	415f4343 	cmpmi	pc, r3, asr #6
    234c:	5f4f4946 	svcpl	0x004f4946
    2350:	5f4b4c43 	svcpl	0x004b4c43
    2354:	29284e45 	stmdbcs	r8!, {r0, r2, r6, r9, sl, fp, lr}
    2358:	43522820 	cmpmi	r2, #32, 16	; 0x200000
    235c:	413e2d43 	teqmi	lr, r3, asr #26
    2360:	45324250 	ldrmi	r4, [r2, #-592]!	; 0xfffffdb0
    2364:	7c20524e 	sfmvc	f5, 4, [r0], #-312	; 0xfffffec8
    2368:	2031203d 	eorscs	r2, r1, sp, lsr r0
    236c:	30203c3c 	eorcc	r3, r0, ip, lsr ip
    2370:	5f5f0029 	svcpl	0x005f0029
    2374:	5f6d7973 	svcpl	0x006d7973
    2378:	61666564 	cmnvs	r6, r4, ror #10
    237c:	28746c75 	ldmdacs	r4!, {r0, r2, r4, r5, r6, sl, fp, sp, lr}^
    2380:	2c6d7973 			; <UNDEFINED> instruction: 0x2c6d7973
    2384:	6c706d69 	ldclvs	13, cr6, [r0], #-420	; 0xfffffe5c
    2388:	7265762c 	rsbvc	r7, r5, #44, 12	; 0x2c00000
    238c:	20296469 	eorcs	r6, r9, r9, ror #8
    2390:	73615f5f 	cmnvc	r1, #380	; 0x17c
    2394:	285f5f6d 	ldmdacs	pc, {r0, r2, r3, r5, r6, r8, r9, sl, fp, ip, lr}^	; <UNPREDICTABLE>
    2398:	79732e22 	ldmdbvc	r3!, {r1, r5, r9, sl, fp, sp}^
    239c:	7265766d 	rsbvc	r7, r5, #114294784	; 0x6d00000
    23a0:	23202220 			; <UNDEFINED> instruction: 0x23202220
    23a4:	6c706d69 	ldclvs	13, cr6, [r0], #-420	; 0xfffffe5c
    23a8:	202c2220 	eorcs	r2, ip, r0, lsr #4
    23ac:	73232022 			; <UNDEFINED> instruction: 0x73232022
    23b0:	22206d79 	eorcs	r6, r0, #7744	; 0x1e40
    23b4:	20224040 	eorcs	r4, r2, r0, asr #32
    23b8:	72657623 	rsbvc	r7, r5, #36700160	; 0x2300000
    23bc:	00296469 	eoreq	r6, r9, r9, ror #8
    23c0:	44464e5f 	strbmi	r4, [r6], #-3679	; 0xfffff1a1
    23c4:	53544942 	cmppl	r4, #1081344	; 0x108000
    23c8:	69282820 	stmdbvs	r8!, {r5, fp, sp}
    23cc:	7329746e 			; <UNDEFINED> instruction: 0x7329746e
    23d0:	6f657a69 	svcvs	0x00657a69
    23d4:	5f5f2866 	svcpl	0x005f2866
    23d8:	6d5f6466 	cfldrdvs	mvd6, [pc, #-408]	; 2248 <_Min_Stack_Size+0x1e48>
    23dc:	296b7361 	stmdbcs	fp!, {r0, r5, r6, r8, r9, ip, sp, lr}^
    23e0:	38202a20 	stmdacc	r0!, {r5, r9, fp, sp}
    23e4:	4e490029 	cdpmi	0, 4, cr0, cr9, cr9, {1}
    23e8:	41465f54 	cmpmi	r6, r4, asr pc
    23ec:	5f385453 	svcpl	0x00385453
    23f0:	2058414d 	subscs	r4, r8, sp, asr #2
    23f4:	495f5f28 	ldmdbmi	pc, {r3, r5, r8, r9, sl, fp, ip, lr}^	; <UNPREDICTABLE>
    23f8:	465f544e 	ldrbmi	r5, [pc], -lr, asr #8
    23fc:	38545341 	ldmdacc	r4, {r0, r6, r8, r9, ip, lr}^
    2400:	58414d5f 	stmdapl	r1, {r0, r1, r2, r3, r4, r6, r8, sl, fp, lr}^
    2404:	00295f5f 	eoreq	r5, r9, pc, asr pc
    2408:	4f495047 	svcmi	0x00495047
    240c:	4e49505f 	mcrmi	0, 2, r5, cr9, cr15, {2}
    2410:	5445535f 	strbpl	r5, [r5], #-863	; 0xfffffca1
    2414:	5f003120 	svcpl	0x00003120
    2418:	6c6c615f 	stfvse	f6, [ip], #-380	; 0xfffffe84
    241c:	735f636f 	cmpvc	pc, #-1140850687	; 0xbc000001
    2420:	32657a69 	rsbcc	r7, r5, #430080	; 0x69000
    2424:	782c6e28 	stmdavc	ip!, {r3, r5, r9, sl, fp, sp, lr}
    2428:	5f5f2029 	svcpl	0x005f2029
    242c:	72747461 	rsbsvc	r7, r4, #1627389952	; 0x61000000
    2430:	74756269 	ldrbtvc	r6, [r5], #-617	; 0xfffffd97
    2434:	285f5f65 	ldmdacs	pc, {r0, r2, r5, r6, r8, r9, sl, fp, ip, lr}^	; <UNPREDICTABLE>
    2438:	615f5f28 	cmpvs	pc, r8, lsr #30
    243c:	636f6c6c 	cmnvs	pc, #108, 24	; 0x6c00
    2440:	7a69735f 	bvc	1a5f1c4 <_Min_Stack_Size+0x1a5edc4>
    2444:	285f5f65 	ldmdacs	pc, {r0, r2, r5, r6, r8, r9, sl, fp, ip, lr}^	; <UNPREDICTABLE>
    2448:	78202c6e 	stmdavc	r0!, {r1, r2, r3, r5, r6, sl, fp, sp}
    244c:	00292929 	eoreq	r2, r9, r9, lsr #18
    2450:	49555f5f 	ldmdbmi	r5, {r0, r1, r2, r3, r4, r6, r8, r9, sl, fp, ip, lr}^
    2454:	3631544e 	ldrtcc	r5, [r1], -lr, asr #8
    2458:	58414d5f 	stmdapl	r1, {r0, r1, r2, r3, r4, r6, r8, sl, fp, lr}^
    245c:	30205f5f 	eorcc	r5, r0, pc, asr pc
    2460:	66666678 			; <UNDEFINED> instruction: 0x66666678
    2464:	665f0066 	ldrbvs	r0, [pc], -r6, rrx
    2468:	6f6c6e75 	svcvs	0x006c6e75
    246c:	69666b63 	stmdbvs	r6!, {r0, r1, r5, r6, r8, r9, fp, sp, lr}^
    2470:	6628656c 	strtvs	r6, [r8], -ip, ror #10
    2474:	28202970 	stmdacs	r0!, {r4, r5, r6, r8, fp, sp}
    2478:	70662828 	rsbvc	r2, r6, r8, lsr #16
    247c:	5f3e2d29 	svcpl	0x003e2d29
    2480:	67616c66 	strbvs	r6, [r1, -r6, ror #24]!
    2484:	20262073 	eorcs	r2, r6, r3, ror r0
    2488:	53535f5f 	cmppl	r3, #380	; 0x17c
    248c:	20295254 	eorcs	r5, r9, r4, asr r2
    2490:	2030203f 	eorscs	r2, r0, pc, lsr r0
    2494:	5f5f203a 	svcpl	0x005f203a
    2498:	6b636f6c 	blvs	18de250 <_Min_Stack_Size+0x18dde50>
    249c:	6c65725f 	sfmvs	f7, 2, [r5], #-380	; 0xfffffe84
    24a0:	65736165 	ldrbvs	r6, [r3, #-357]!	; 0xfffffe9b
    24a4:	6365725f 	cmnvs	r5, #-268435451	; 0xf0000005
    24a8:	69737275 	ldmdbvs	r3!, {r0, r2, r4, r5, r6, r9, ip, sp, lr}^
    24ac:	28286576 	stmdacs	r8!, {r1, r2, r4, r5, r6, r8, sl, sp, lr}
    24b0:	2d297066 	stccs	0, cr7, [r9, #-408]!	; 0xfffffe68
    24b4:	6f6c5f3e 	svcvs	0x006c5f3e
    24b8:	29296b63 	stmdbcs	r9!, {r0, r1, r5, r6, r8, r9, fp, sp, lr}
    24bc:	49564e00 	ldmdbmi	r6, {r9, sl, fp, lr}^
    24c0:	52495f43 	subpl	r5, r9, #268	; 0x10c
    24c4:	5f333251 	svcpl	0x00333251
    24c8:	49545845 	ldmdbmi	r4, {r0, r2, r6, fp, ip, lr}^
    24cc:	5f355f39 	svcpl	0x00355f39
    24d0:	41534944 	cmpmi	r3, r4, asr #18
    24d4:	20454c42 	subcs	r4, r5, r2, asr #24
    24d8:	49564e28 	ldmdbmi	r6, {r3, r5, r9, sl, fp, lr}^
    24dc:	43495f43 	movtmi	r5, #40771	; 0x9f43
    24e0:	20305245 	eorscs	r5, r0, r5, asr #4
    24e4:	31203d7c 			; <UNDEFINED> instruction: 0x31203d7c
    24e8:	33323c3c 	teqcc	r2, #60, 24	; 0x3c00
    24ec:	5f5f0029 	svcpl	0x005f0029
    24f0:	465f5154 			; <UNDEFINED> instruction: 0x465f5154
    24f4:	5f544942 	svcpl	0x00544942
    24f8:	3231205f 	eorscc	r2, r1, #95	; 0x5f
    24fc:	5f5f0037 	svcpl	0x005f0037
    2500:	54524853 	ldrbpl	r4, [r2], #-2131	; 0xfffff7ad
    2504:	58414d5f 	stmdapl	r1, {r0, r1, r2, r3, r4, r6, r8, sl, fp, lr}^
    2508:	30205f5f 	eorcc	r5, r0, pc, asr pc
    250c:	66663778 			; <UNDEFINED> instruction: 0x66663778
    2510:	5f5f0066 	svcpl	0x005f0066
    2514:	4c42444c 	cfstrdmi	mvd4, [r2], {76}	; 0x4c
    2518:	58414d5f 	stmdapl	r1, {r0, r1, r2, r3, r4, r6, r8, sl, fp, lr}^
    251c:	5058455f 	subspl	r4, r8, pc, asr r5
    2520:	31205f5f 			; <UNDEFINED> instruction: 0x31205f5f
    2524:	00343230 	eorseq	r3, r4, r0, lsr r2
    2528:	334d5453 	movtcc	r5, #54355	; 0xd453
    252c:	30314632 	eorscc	r4, r1, r2, lsr r6
    2530:	54384333 	ldrtpl	r4, [r8], #-819	; 0xfffffccd
    2534:	00312078 	eorseq	r2, r1, r8, ror r0
    2538:	5f64636c 	svcpl	0x0064636c
    253c:	625f7369 	subsvs	r7, pc, #-1543503871	; 0xa4000001
    2540:	00797375 	rsbseq	r7, r9, r5, ror r3
    2544:	4349564e 	movtmi	r5, #38478	; 0x964e
    2548:	5152495f 	cmppl	r2, pc, asr r9
    254c:	455f3031 	ldrbmi	r3, [pc, #-49]	; 2523 <_Min_Stack_Size+0x2123>
    2550:	34495458 	strbcc	r5, [r9], #-1112	; 0xfffffba8
    2554:	5349445f 	movtpl	r4, #37983	; 0x945f
    2558:	454c4241 	strbmi	r4, [ip, #-577]	; 0xfffffdbf
    255c:	564e2820 	strbpl	r2, [lr], -r0, lsr #16
    2560:	495f4349 	ldmdbmi	pc, {r0, r3, r6, r8, r9, lr}^	; <UNPREDICTABLE>
    2564:	30524543 	subscc	r4, r2, r3, asr #10
    2568:	203d7c20 	eorscs	r7, sp, r0, lsr #24
    256c:	313c3c31 	teqcc	ip, r1, lsr ip
    2570:	5f002930 	svcpl	0x00002930
    2574:	746e695f 	strbtvc	r6, [lr], #-2399	; 0xfffff6a1
    2578:	7361665f 	cmnvc	r1, #99614720	; 0x5f00000
    257c:	5f343674 	svcpl	0x00343674
    2580:	65645f74 	strbvs	r5, [r4, #-3956]!	; 0xfffff08c
    2584:	656e6966 	strbvs	r6, [lr, #-2406]!	; 0xfffff69a
    2588:	00312064 	eorseq	r2, r1, r4, rrx
    258c:	4349564e 	movtmi	r5, #38478	; 0x964e
    2590:	4543495f 	strbmi	r4, [r3, #-2399]	; 0xfffff6a1
    2594:	2a203252 	bcs	80eee4 <_Min_Stack_Size+0x80eae4>
    2598:	6c6f7628 	stclvs	6, cr7, [pc], #-160	; 2500 <_Min_Stack_Size+0x2100>
    259c:	6c697461 	cfstrdvs	mvd7, [r9], #-388	; 0xfffffe7c
    25a0:	69752065 	ldmdbvs	r5!, {r0, r2, r5, r6, sp}^
    25a4:	3233746e 	eorscc	r7, r3, #1845493760	; 0x6e000000
    25a8:	2a20745f 	bcs	81f72c <_Min_Stack_Size+0x81f32c>
    25ac:	564e2829 	strbpl	r2, [lr], -r9, lsr #16
    25b0:	425f4349 	subsmi	r4, pc, #603979777	; 0x24000001
    25b4:	20455341 	subcs	r5, r5, r1, asr #6
    25b8:	7830202b 	ldmdavc	r0!, {r0, r1, r3, r5, sp}
    25bc:	00293838 	eoreq	r3, r9, r8, lsr r8
    25c0:	4349564e 	movtmi	r5, #38478	; 0x964e
    25c4:	5152495f 	cmppl	r2, pc, asr r9
    25c8:	455f3034 	ldrbmi	r3, [pc, #-52]	; 259c <_Min_Stack_Size+0x219c>
    25cc:	31495458 	cmpcc	r9, r8, asr r4
    25d0:	35315f30 	ldrcc	r5, [r1, #-3888]!	; 0xfffff0d0
    25d4:	414e455f 	cmpmi	lr, pc, asr r5
    25d8:	20454c42 	subcs	r4, r5, r2, asr #24
    25dc:	49564e28 	ldmdbmi	r6, {r3, r5, r9, sl, fp, lr}^
    25e0:	53495f43 	movtpl	r5, #40771	; 0x9f43
    25e4:	20315245 	eorscs	r5, r1, r5, asr #4
    25e8:	31203d7c 			; <UNDEFINED> instruction: 0x31203d7c
    25ec:	29383c3c 	ldmdbcs	r8!, {r2, r3, r4, r5, sl, fp, ip, sp}
    25f0:	465f5f00 	ldrbmi	r5, [pc], -r0, lsl #30
    25f4:	5f454c49 	svcpl	0x00454c49
    25f8:	69666564 	stmdbvs	r6!, {r2, r5, r6, r8, sl, sp, lr}^
    25fc:	2064656e 	rsbcs	r6, r4, lr, ror #10
    2600:	535f5f00 	cmppl	pc, #0, 30
    2604:	4f455a49 	svcmi	0x00455a49
    2608:	48535f46 	ldmdami	r3, {r1, r2, r6, r8, r9, sl, fp, ip, lr}^
    260c:	5f54524f 	svcpl	0x0054524f
    2610:	0032205f 	eorseq	r2, r2, pc, asr r0
    2614:	4c555f5f 	mrrcmi	15, 5, r5, r5, cr15	; <UNPREDICTABLE>
    2618:	4343414c 	movtmi	r4, #12620	; 0x314c
    261c:	465f4d55 			; <UNDEFINED> instruction: 0x465f4d55
    2620:	5f544942 	svcpl	0x00544942
    2624:	3233205f 	eorscc	r2, r3, #95	; 0x5f
    2628:	48545000 	ldmdami	r4, {ip, lr}^
    262c:	44414552 	strbmi	r4, [r1], #-1362	; 0xfffffaae
    2630:	4f43535f 	svcmi	0x0043535f
    2634:	505f4550 	subspl	r4, pc, r0, asr r5	; <UNPREDICTABLE>
    2638:	45434f52 	strbmi	r4, [r3, #-3922]	; 0xfffff0ae
    263c:	30205353 	eorcc	r5, r0, r3, asr r3
    2640:	44434c00 	strbmi	r4, [r3], #-3072	; 0xfffff400
    2644:	454c435f 	strbmi	r4, [ip, #-863]	; 0xfffffca1
    2648:	30205241 	eorcc	r5, r0, r1, asr #4
    264c:	00313078 	eorseq	r3, r1, r8, ror r0
    2650:	64665f5f 	strbtvs	r5, [r6], #-3935	; 0xfffff0a1
    2654:	5f746573 	svcpl	0x00746573
    2658:	6b73616d 	blvs	1cdac14 <_Min_Stack_Size+0x1cda814>
    265c:	20296e28 	eorcs	r6, r9, r8, lsr #28
    2660:	5f5f2828 	svcpl	0x005f2828
    2664:	6d5f6466 	cfldrdvs	mvd6, [pc, #-408]	; 24d4 <_Min_Stack_Size+0x20d4>
    2668:	296b7361 	stmdbcs	fp!, {r0, r5, r6, r8, r9, ip, sp, lr}^
    266c:	3c3c2031 	ldccc	0, cr2, [ip], #-196	; 0xffffff3c
    2670:	6e282820 	cdpvs	8, 2, cr2, cr8, cr0, {1}
    2674:	20252029 	eorcs	r2, r5, r9, lsr #32
    2678:	44464e5f 	strbmi	r4, [r6], #-3679	; 0xfffff1a1
    267c:	53544942 	cmppl	r4, #1081344	; 0x108000
    2680:	5f002929 	svcpl	0x00002929
    2684:	4345445f 	movtmi	r4, #21599	; 0x545f
    2688:	54534e4f 	ldrbpl	r4, [r3], #-3663	; 0xfffff1b1
    268c:	70797428 	rsbsvc	r7, r9, r8, lsr #8
    2690:	61762c65 	cmnvs	r6, r5, ror #24
    2694:	28202972 	stmdacs	r0!, {r1, r4, r5, r6, r8, fp, sp}
    2698:	70797428 	rsbsvc	r7, r9, r8, lsr #8
    269c:	5f282965 	svcpl	0x00282965
    26a0:	6e69755f 	mcrvs	5, 3, r7, cr9, cr15, {2}
    26a4:	72747074 	rsbsvc	r7, r4, #116	; 0x74
    26a8:	2829745f 	stmdacs	r9!, {r0, r1, r2, r3, r4, r6, sl, ip, sp, lr}
    26ac:	736e6f63 	cmnvc	lr, #396	; 0x18c
    26b0:	6f762074 	svcvs	0x00762074
    26b4:	2a206469 	bcs	81b860 <_Min_Stack_Size+0x81b460>
    26b8:	61762829 	cmnvs	r6, r9, lsr #16
    26bc:	00292972 	eoreq	r2, r9, r2, ror r9
    26c0:	454d4954 	strbmi	r4, [sp, #-2388]	; 0xfffff6ac
    26c4:	5f4c4156 	svcpl	0x004c4156
    26c8:	545f4f54 	ldrbpl	r4, [pc], #-3924	; 26d0 <_Min_Stack_Size+0x22d0>
    26cc:	53454d49 	movtpl	r4, #23881	; 0x5d49
    26d0:	28434550 	stmdacs	r3, {r4, r6, r8, sl, lr}^
    26d4:	742c7674 	strtvc	r7, [ip], #-1652	; 0xfffff98c
    26d8:	64202973 	strtvs	r2, [r0], #-2419	; 0xfffff68d
    26dc:	207b206f 	rsbscs	r2, fp, pc, rrx
    26e0:	29737428 	ldmdbcs	r3!, {r3, r5, sl, ip, sp, lr}^
    26e4:	76743e2d 	ldrbtvc	r3, [r4], -sp, lsr #28
    26e8:	6365735f 	cmnvs	r5, #2080374785	; 0x7c000001
    26ec:	28203d20 	stmdacs	r0!, {r5, r8, sl, fp, ip, sp}
    26f0:	2d297674 	stccs	6, cr7, [r9, #-464]!	; 0xfffffe30
    26f4:	5f76743e 	svcpl	0x0076743e
    26f8:	3b636573 	blcc	18dbccc <_Min_Stack_Size+0x18db8cc>
    26fc:	73742820 	cmnvc	r4, #32, 16	; 0x200000
    2700:	743e2d29 	ldrtvc	r2, [lr], #-3369	; 0xfffff2d7
    2704:	736e5f76 	cmnvc	lr, #472	; 0x1d8
    2708:	3d206365 	stccc	3, cr6, [r0, #-404]!	; 0xfffffe6c
    270c:	76742820 	ldrbtvc	r2, [r4], -r0, lsr #16
    2710:	743e2d29 	ldrtvc	r2, [lr], #-3369	; 0xfffff2d7
    2714:	73755f76 	cmnvc	r5, #472	; 0x1d8
    2718:	2a206365 	bcs	81b4b4 <_Min_Stack_Size+0x81b0b4>
    271c:	30303120 	eorscc	r3, r0, r0, lsr #2
    2720:	7d203b30 	vstmdbvc	r0!, {d3-d26}
    2724:	69687720 	stmdbvs	r8!, {r5, r8, r9, sl, ip, sp, lr}^
    2728:	2820656c 	stmdacs	r0!, {r2, r3, r5, r6, r8, sl, sp, lr}
    272c:	5f002930 	svcpl	0x00002930
    2730:	5f535953 	svcpl	0x00535953
    2734:	54414546 	strbpl	r4, [r1], #-1350	; 0xfffffaba
    2738:	53455255 	movtpl	r5, #21077	; 0x5255
    273c:	0020485f 	eoreq	r4, r0, pc, asr r8
    2740:	4f495047 	svcmi	0x00495047
    2744:	41425f41 	cmpmi	r2, r1, asr #30
    2748:	28204553 	stmdacs	r0!, {r0, r1, r4, r6, r8, sl, lr}
    274c:	69726550 	ldmdbvs	r2!, {r4, r6, r8, sl, sp, lr}^
    2750:	72656870 	rsbvc	r6, r5, #112, 16	; 0x700000
    2754:	5f736c61 	svcpl	0x00736c61
    2758:	45534142 	ldrbmi	r4, [r3, #-322]	; 0xfffffebe
    275c:	30202b20 	eorcc	r2, r0, r0, lsr #22
    2760:	30303078 	eorscc	r3, r0, r8, ror r0
    2764:	30383031 	eorscc	r3, r8, r1, lsr r0
    2768:	294c5530 	stmdbcs	ip, {r4, r5, r8, sl, ip, lr}^
    276c:	4e495500 	cdpmi	5, 4, cr5, cr9, cr0, {0}
    2770:	454c5f54 	strbmi	r5, [ip, #-3924]	; 0xfffff0ac
    2774:	36545341 	ldrbcc	r5, [r4], -r1, asr #6
    2778:	414d5f34 	cmpmi	sp, r4, lsr pc
    277c:	5f282058 	svcpl	0x00282058
    2780:	4e49555f 	mcrmi	5, 2, r5, cr9, cr15, {2}
    2784:	454c5f54 	strbmi	r5, [ip, #-3924]	; 0xfffff0ac
    2788:	36545341 	ldrbcc	r5, [r4], -r1, asr #6
    278c:	414d5f34 	cmpmi	sp, r4, lsr pc
    2790:	295f5f58 	ldmdbcs	pc, {r3, r4, r6, r8, r9, sl, fp, ip, lr}^	; <UNPREDICTABLE>
    2794:	6e5f5f00 	cdpvs	15, 5, cr5, cr15, cr0, {0}
    2798:	6c6e696f 			; <UNDEFINED> instruction: 0x6c6e696f
    279c:	20656e69 	rsbcs	r6, r5, r9, ror #28
    27a0:	74615f5f 	strbtvc	r5, [r1], #-3935	; 0xfffff0a1
    27a4:	62697274 	rsbvs	r7, r9, #116, 4	; 0x40000007
    27a8:	5f657475 	svcpl	0x00657475
    27ac:	2828205f 	stmdacs	r8!, {r0, r1, r2, r3, r4, r6, sp}
    27b0:	6f6e5f5f 	svcvs	0x006e5f5f
    27b4:	696c6e69 	stmdbvs	ip!, {r0, r3, r5, r6, r9, sl, fp, sp, lr}^
    27b8:	5f5f656e 	svcpl	0x005f656e
    27bc:	5f002929 	svcpl	0x00002929
    27c0:	4843414d 	stmdami	r3, {r0, r2, r3, r6, r8, lr}^
    27c4:	4c445453 	cfstrdmi	mvd5, [r4], {83}	; 0x53
    27c8:	485f4249 	ldmdami	pc, {r0, r3, r6, r9, lr}^	; <UNPREDICTABLE>
    27cc:	4700205f 	smlsdmi	r0, pc, r0, r2	; <UNPREDICTABLE>
    27d0:	5f4f4950 	svcpl	0x004f4950
    27d4:	5f4e4950 	svcpl	0x004e4950
    27d8:	28282033 	stmdacs	r8!, {r0, r1, r4, r5, sp}
    27dc:	746e6975 	strbtvc	r6, [lr], #-2421	; 0xfffff68b
    27e0:	745f3631 	ldrbvc	r3, [pc], #-1585	; 27e8 <_Min_Stack_Size+0x23e8>
    27e4:	30783029 	rsbscc	r3, r8, r9, lsr #32
    27e8:	29383030 	ldmdbcs	r8!, {r4, r5, ip, sp}
    27ec:	4d545300 	ldclmi	3, cr5, [r4, #-0]
    27f0:	31463233 	cmpcc	r6, r3, lsr r2
    27f4:	5f003120 	svcpl	0x00003120
    27f8:	5a49535f 	bpl	125757c <_Min_Stack_Size+0x125717c>
    27fc:	5f464f45 	svcpl	0x00464f45
    2800:	474e4f4c 	strbmi	r4, [lr, -ip, asr #30]
    2804:	554f445f 	strbpl	r4, [pc, #-1119]	; 23ad <_Min_Stack_Size+0x1fad>
    2808:	5f454c42 	svcpl	0x00454c42
    280c:	0038205f 	eorseq	r2, r8, pc, asr r0
    2810:	45545942 	ldrbmi	r5, [r4, #-2370]	; 0xfffff6be
    2814:	44524f5f 	ldrbmi	r4, [r2], #-3935	; 0xfffff0a1
    2818:	5f205245 	svcpl	0x00205245
    281c:	45545942 	ldrbmi	r5, [r4, #-2370]	; 0xfffff6be
    2820:	44524f5f 	ldrbmi	r4, [r2], #-3935	; 0xfffff0a1
    2824:	5f005245 	svcpl	0x00005245
    2828:	4152505f 	cmpmi	r2, pc, asr r0
    282c:	5f414d47 	svcpl	0x00414d47
    2830:	45444552 	strbmi	r4, [r4, #-1362]	; 0xfffffaae
    2834:	454e4946 	strbmi	r4, [lr, #-2374]	; 0xfffff6ba
    2838:	5458455f 	ldrbpl	r4, [r8], #-1375	; 0xfffffaa1
    283c:	454d414e 	strbmi	r4, [sp, #-334]	; 0xfffffeb2
    2840:	5f003120 	svcpl	0x00003120
    2844:	4843575f 	stmdami	r3, {r0, r1, r2, r3, r4, r6, r8, r9, sl, ip, lr}^
    2848:	545f5241 	ldrbpl	r5, [pc], #-577	; 2850 <_Min_Stack_Size+0x2450>
    284c:	5f455059 	svcpl	0x00455059
    2850:	6e75205f 	mrcvs	0, 3, r2, cr5, cr15, {2}
    2854:	6e676973 			; <UNDEFINED> instruction: 0x6e676973
    2858:	69206465 	stmdbvs	r0!, {r0, r2, r5, r6, sl, sp, lr}
    285c:	5f00746e 	svcpl	0x0000746e
    2860:	4e454552 	mcrmi	5, 2, r4, cr5, cr2, {2}
    2864:	49535f54 	ldmdbmi	r3, {r2, r4, r6, r8, r9, sl, fp, ip, lr}^
    2868:	41474e47 	cmpmi	r7, r7, asr #28
    286c:	7470284d 	ldrbtvc	r2, [r0], #-2125	; 0xfffff7b3
    2870:	28202972 	stmdacs	r0!, {r1, r4, r5, r6, r8, fp, sp}
    2874:	72747028 	rsbsvc	r7, r4, #40	; 0x28
    2878:	5f3e2d29 	svcpl	0x003e2d29
    287c:	6d6d6167 	stfvse	f6, [sp, #-412]!	; 0xfffffe64
    2880:	69735f61 	ldmdbvs	r3!, {r0, r5, r6, r8, r9, sl, fp, ip, lr}^
    2884:	61676e67 	cmnvs	r7, r7, ror #28
    2888:	5f00296d 	svcpl	0x0000296d
    288c:	4153555f 	cmpmi	r3, pc, asr r5
    2890:	4942495f 	stmdbmi	r2, {r0, r1, r2, r3, r4, r6, r8, fp, lr}^
    2894:	205f5f54 	subscs	r5, pc, r4, asr pc	; <UNPREDICTABLE>
    2898:	45003631 	strmi	r3, [r0, #-1585]	; 0xfffff9cf
    289c:	31495458 	cmpcc	r9, r8, asr r4
    28a0:	5152495f 	cmppl	r2, pc, asr r9
    28a4:	5f003720 	svcpl	0x00003720
    28a8:	4343475f 	movtmi	r4, #14175	; 0x375f
    28ac:	5641485f 			; <UNDEFINED> instruction: 0x5641485f
    28b0:	59535f45 	ldmdbpl	r3, {r0, r2, r6, r8, r9, sl, fp, ip, lr}^
    28b4:	435f434e 	cmpmi	pc, #939524097	; 0x38000001
    28b8:	41504d4f 	cmpmi	r0, pc, asr #26
    28bc:	415f4552 	cmpmi	pc, r2, asr r5	; <UNPREDICTABLE>
    28c0:	535f444e 	cmppl	pc, #1308622848	; 0x4e000000
    28c4:	5f504157 	svcpl	0x00504157
    28c8:	00312032 	eorseq	r2, r1, r2, lsr r0
    28cc:	4d544e49 	ldclmi	14, cr4, [r4, #-292]	; 0xfffffedc
    28d0:	435f5841 	cmpmi	pc, #4259840	; 0x410000
    28d4:	20297828 	eorcs	r7, r9, r8, lsr #16
    28d8:	4e495f5f 	mcrmi	15, 2, r5, cr9, cr15, {2}
    28dc:	58414d54 	stmdapl	r1, {r2, r4, r6, r8, sl, fp, lr}^
    28e0:	7828435f 	stmdavc	r8!, {r0, r1, r2, r3, r4, r6, r8, r9, lr}
    28e4:	5f5f0029 	svcpl	0x005f0029
    28e8:	6465656e 	strbtvs	r6, [r5], #-1390	; 0xfffffa92
    28ec:	6863775f 	stmdavs	r3!, {r0, r1, r2, r3, r4, r6, r8, r9, sl, ip, sp, lr}^
    28f0:	745f7261 	ldrbvc	r7, [pc], #-609	; 28f8 <_Min_Stack_Size+0x24f8>
    28f4:	5f5f0020 	svcpl	0x005f0020
    28f8:	64646968 	strbtvs	r6, [r4], #-2408	; 0xfffff698
    28fc:	5f206e65 	svcpl	0x00206e65
    2900:	7474615f 	ldrbtvc	r6, [r4], #-351	; 0xfffffea1
    2904:	75626972 	strbvc	r6, [r2, #-2418]!	; 0xfffff68e
    2908:	5f5f6574 	svcpl	0x005f6574
    290c:	5f5f2828 	svcpl	0x005f2828
    2910:	69736976 	ldmdbvs	r3!, {r1, r2, r4, r5, r6, r8, fp, sp, lr}^
    2914:	696c6962 	stmdbvs	ip!, {r1, r5, r6, r8, fp, sp, lr}^
    2918:	5f5f7974 	svcpl	0x005f7974
    291c:	69682228 	stmdbvs	r8!, {r3, r5, r9, sp}^
    2920:	6e656464 	cdpvs	4, 6, cr6, cr5, cr4, {3}
    2924:	29292922 	stmdbcs	r9!, {r1, r5, r8, fp, sp}
    2928:	544e4900 	strbpl	r4, [lr], #-2304	; 0xfffff700
    292c:	41454c5f 	cmpmi	r5, pc, asr ip
    2930:	32335453 	eorscc	r5, r3, #1392508928	; 0x53000000
    2934:	58414d5f 	stmdapl	r1, {r0, r1, r2, r3, r4, r6, r8, sl, fp, lr}^
    2938:	5f5f2820 	svcpl	0x005f2820
    293c:	5f544e49 	svcpl	0x00544e49
    2940:	5341454c 	movtpl	r4, #5452	; 0x154c
    2944:	5f323354 	svcpl	0x00323354
    2948:	5f58414d 	svcpl	0x0058414d
    294c:	5f00295f 	svcpl	0x0000295f
    2950:	5246535f 	subpl	r5, r6, #2080374785	; 0x7c000001
    2954:	5f544341 	svcpl	0x00544341
    2958:	5f58414d 	svcpl	0x0058414d
    295c:	5830205f 	ldmdapl	r0!, {r0, r1, r2, r3, r4, r6, sp}
    2960:	2d504637 	ldclcs	6, cr4, [r0, #-220]	; 0xffffff24
    2964:	00524837 	subseq	r4, r2, r7, lsr r8
    2968:	4f535f5f 	svcmi	0x00535f5f
    296c:	30204646 	eorcc	r4, r0, r6, asr #12
    2970:	30303178 	eorscc	r3, r0, r8, ror r1
    2974:	5f5f0030 	svcpl	0x005f0030
    2978:	544e4955 	strbpl	r4, [lr], #-2389	; 0xfffff6ab
    297c:	5341465f 	movtpl	r4, #5727	; 0x165f
    2980:	5f343654 	svcpl	0x00343654
    2984:	45505954 	ldrbmi	r5, [r0, #-2388]	; 0xfffff6ac
    2988:	6c205f5f 	stcvs	15, cr5, [r0], #-380	; 0xfffffe84
    298c:	20676e6f 	rsbcs	r6, r7, pc, ror #28
    2990:	676e6f6c 	strbvs	r6, [lr, -ip, ror #30]!
    2994:	736e7520 	cmnvc	lr, #32, 10	; 0x8000000
    2998:	656e6769 	strbvs	r6, [lr, #-1897]!	; 0xfffff897
    299c:	6e692064 	cdpvs	0, 6, cr2, cr9, cr4, {3}
    29a0:	555f0074 	ldrbpl	r0, [pc, #-116]	; 2934 <_Min_Stack_Size+0x2534>
    29a4:	545f4449 	ldrbpl	r4, [pc], #-1097	; 29ac <_Min_Stack_Size+0x25ac>
    29a8:	4345445f 	movtmi	r4, #21599	; 0x545f
    29ac:	4552414c 	ldrbmi	r4, [r2, #-332]	; 0xfffffeb4
    29b0:	5f002044 	svcpl	0x00002044
    29b4:	544e4957 	strbpl	r4, [lr], #-2391	; 0xfffff6a9
    29b8:	0020545f 	eoreq	r5, r0, pc, asr r4
    29bc:	5f544e49 	svcpl	0x00544e49
    29c0:	5341454c 	movtpl	r4, #5452	; 0x154c
    29c4:	4d5f3854 	ldclmi	8, cr3, [pc, #-336]	; 287c <_Min_Stack_Size+0x247c>
    29c8:	28205841 	stmdacs	r0!, {r0, r6, fp, ip, lr}
    29cc:	4e495f5f 	mcrmi	15, 2, r5, cr9, cr15, {2}
    29d0:	454c5f54 	strbmi	r5, [ip, #-3924]	; 0xfffff0ac
    29d4:	38545341 	ldmdacc	r4, {r0, r6, r8, r9, ip, lr}^
    29d8:	58414d5f 	stmdapl	r1, {r0, r1, r2, r3, r4, r6, r8, sl, fp, lr}^
    29dc:	00295f5f 	eoreq	r5, r9, pc, asr pc
    29e0:	4244464e 	submi	r4, r4, #81788928	; 0x4e00000
    29e4:	20535449 	subscs	r5, r3, r9, asr #8
    29e8:	44464e5f 	strbmi	r4, [r6], #-3679	; 0xfffff1a1
    29ec:	53544942 	cmppl	r4, #1081344	; 0x108000
    29f0:	465f5f00 	ldrbmi	r5, [pc], -r0, lsl #30
    29f4:	4d5f544c 	cfldrdmi	mvd5, [pc, #-304]	; 28cc <_Min_Stack_Size+0x24cc>
    29f8:	5f5f4e49 	svcpl	0x005f4e49
    29fc:	312e3120 			; <UNDEFINED> instruction: 0x312e3120
    2a00:	39343537 	ldmdbcc	r4!, {r0, r1, r2, r4, r5, r8, sl, ip, sp}
    2a04:	30353334 	eorscc	r3, r5, r4, lsr r3
    2a08:	32323238 	eorscc	r3, r2, #56, 4	; 0x80000003
    2a0c:	65353738 	ldrvs	r3, [r5, #-1848]!	; 0xfffff8c8
    2a10:	4638332d 	ldrtmi	r3, [r8], -sp, lsr #6
    2a14:	6e5f5f00 	cdpvs	15, 5, cr5, cr15, cr0, {0}
    2a18:	5f646565 	svcpl	0x00646565
    2a1c:	657a6973 	ldrbvs	r6, [sl, #-2419]!	; 0xfffff68d
    2a20:	0020745f 	eoreq	r7, r0, pc, asr r4
    2a24:	41485f5f 	cmpmi	r8, pc, asr pc
    2a28:	4942465f 	stmdbmi	r2, {r0, r1, r2, r3, r4, r6, r9, sl, lr}^
    2a2c:	205f5f54 	subscs	r5, pc, r4, asr pc	; <UNPREDICTABLE>
    2a30:	5f5f0037 	svcpl	0x005f0037
    2a34:	49504446 	ldmdbmi	r0, {r1, r2, r6, sl, lr}^
    2a38:	005f5f43 	subseq	r5, pc, r3, asr #30
    2a3c:	46555f5f 	usaxmi	r5, r5, pc	; <UNPREDICTABLE>
    2a40:	54434152 	strbpl	r4, [r3], #-338	; 0xfffffeae
    2a44:	4e494d5f 	mcrmi	13, 2, r4, cr9, cr15, {2}
    2a48:	30205f5f 	eorcc	r5, r0, pc, asr pc
    2a4c:	5255302e 	subspl	r3, r5, #46	; 0x2e
    2a50:	465f5f00 	ldrbmi	r5, [pc], -r0, lsl #30
    2a54:	4d5f544c 	cfldrdmi	mvd5, [pc, #-304]	; 292c <_Min_Stack_Size+0x252c>
    2a58:	5f5f5841 	svcpl	0x005f5841
    2a5c:	342e3320 	strtcc	r3, [lr], #-800	; 0xfffffce0
    2a60:	32383230 	eorscc	r3, r8, #48, 4
    2a64:	36363433 			; <UNDEFINED> instruction: 0x36363433
    2a68:	32353833 	eorscc	r3, r5, #3342336	; 0x330000
    2a6c:	65363838 	ldrvs	r3, [r6, #-2104]!	; 0xfffff7c8
    2a70:	4638332b 	ldrtmi	r3, [r8], -fp, lsr #6
    2a74:	47495300 	strbmi	r5, [r9, -r0, lsl #6]
    2a78:	4f54415f 	svcmi	0x0054415f
    2a7c:	5f43494d 	svcpl	0x0043494d
    2a80:	2058414d 	subscs	r4, r8, sp, asr #2
    2a84:	535f5f28 	cmppl	pc, #40, 30	; 0xa0
    2a88:	4e494454 	mcrmi	4, 2, r4, cr9, cr4, {2}
    2a8c:	58455f54 	stmdapl	r5, {r2, r4, r6, r8, r9, sl, fp, ip, lr}^
    2a90:	4e492850 	mcrmi	8, 2, r2, cr9, cr0, {2}
    2a94:	414d5f54 	cmpmi	sp, r4, asr pc
    2a98:	00292958 	eoreq	r2, r9, r8, asr r9
    2a9c:	6f635f5f 	svcvs	0x00635f5f
    2aa0:	6961746e 	stmdbvs	r1!, {r1, r2, r3, r5, r6, sl, ip, sp, lr}^
    2aa4:	6f72656e 	svcvs	0x0072656e
    2aa8:	2c782866 	ldclcs	8, cr2, [r8], #-408	; 0xfffffe68
    2aac:	296d2c73 	stmdbcs	sp!, {r0, r1, r4, r5, r6, sl, fp, sp}^
    2ab0:	207b2820 	rsbscs	r2, fp, r0, lsr #16
    2ab4:	736e6f63 	cmnvc	lr, #396	; 0x18c
    2ab8:	6f762074 	svcvs	0x00762074
    2abc:	6974616c 	ldmdbvs	r4!, {r2, r3, r5, r6, r8, sp, lr}^
    2ac0:	5f20656c 	svcpl	0x0020656c
    2ac4:	7079745f 	rsbsvc	r7, r9, pc, asr r4
    2ac8:	28666f65 	stmdacs	r6!, {r0, r2, r5, r6, r8, r9, sl, fp, sp, lr}^
    2acc:	20732828 	rsbscs	r2, r3, r8, lsr #16
    2ad0:	2930292a 	ldmdbcs	r0!, {r1, r3, r5, r8, fp, sp}
    2ad4:	296d3e2d 	stmdbcs	sp!, {r0, r2, r3, r5, r9, sl, fp, ip, sp}^
    2ad8:	5f5f2a20 	svcpl	0x005f2a20
    2adc:	203d2078 	eorscs	r2, sp, r8, ror r0
    2ae0:	3b297828 	blcc	a60b88 <_Min_Stack_Size+0xa60788>
    2ae4:	445f5f20 	ldrbmi	r5, [pc], #-3872	; 2aec <_Min_Stack_Size+0x26ec>
    2ae8:	41555145 	cmpmi	r5, r5, asr #2
    2aec:	5946494c 	stmdbpl	r6, {r2, r3, r6, r8, fp, lr}^
    2af0:	2a207328 	bcs	81f798 <_Min_Stack_Size+0x81f398>
    2af4:	6328202c 			; <UNDEFINED> instruction: 0x6328202c
    2af8:	74736e6f 	ldrbtvc	r6, [r3], #-3695	; 0xfffff191
    2afc:	6c6f7620 	stclvs	6, cr7, [pc], #-128	; 2a84 <_Min_Stack_Size+0x2684>
    2b00:	6c697461 	cfstrdvs	mvd7, [r9], #-388	; 0xfffffe7c
    2b04:	68632065 	stmdavs	r3!, {r0, r2, r5, r6, sp}^
    2b08:	2a207261 	bcs	81f494 <_Min_Stack_Size+0x81f094>
    2b0c:	785f5f29 	ldmdavc	pc, {r0, r3, r5, r8, r9, sl, fp, ip, lr}^	; <UNPREDICTABLE>
    2b10:	5f202d20 	svcpl	0x00202d20
    2b14:	66666f5f 	uqsaxvs	r6, r6, pc	; <UNPREDICTABLE>
    2b18:	6f746573 	svcvs	0x00746573
    2b1c:	2c732866 	ldclcs	8, cr2, [r3], #-408	; 0xfffffe68
    2b20:	29296d20 	stmdbcs	r9!, {r5, r8, sl, fp, sp, lr}
    2b24:	00297d3b 	eoreq	r7, r9, fp, lsr sp
    2b28:	4f495047 	svcmi	0x00495047
    2b2c:	4e49505f 	mcrmi	0, 2, r5, cr9, cr15, {2}
    2b30:	53414d5f 	movtpl	r4, #7519	; 0x1d5f
    2b34:	7830204b 	ldmdavc	r0!, {r0, r1, r3, r6, sp}
    2b38:	30303030 	eorscc	r3, r0, r0, lsr r0
    2b3c:	46464646 	strbmi	r4, [r6], -r6, asr #12
    2b40:	49550075 	ldmdbmi	r5, {r0, r2, r4, r5, r6}^
    2b44:	3436544e 	ldrtcc	r5, [r6], #-1102	; 0xfffffbb2
    2b48:	58414d5f 	stmdapl	r1, {r0, r1, r2, r3, r4, r6, r8, sl, fp, lr}^
    2b4c:	5f5f2820 	svcpl	0x005f2820
    2b50:	544e4955 	strbpl	r4, [lr], #-2389	; 0xfffff6ab
    2b54:	4d5f3436 	cfldrdmi	mvd3, [pc, #-216]	; 2a84 <_Min_Stack_Size+0x2684>
    2b58:	5f5f5841 	svcpl	0x005f5841
    2b5c:	535f0029 	cmppl	pc, #41	; 0x29
    2b60:	545f5359 	ldrbpl	r5, [pc], #-857	; 2b68 <_Min_Stack_Size+0x2768>
    2b64:	53455059 	movtpl	r5, #20569	; 0x5059
    2b68:	5f44465f 	svcpl	0x0044465f
    2b6c:	20544553 	subscs	r4, r4, r3, asr r5
    2b70:	44434c00 	strbmi	r4, [r3], #-3072	; 0xfffff400
    2b74:	5f57525f 	svcpl	0x0057525f
    2b78:	204e4950 	subcs	r4, lr, r0, asr r9
    2b7c:	58450031 	stmdapl	r5, {r0, r4, r5}^
    2b80:	33314954 	teqcc	r1, #84, 18	; 0x150000
    2b84:	5152495f 	cmppl	r2, pc, asr r9
    2b88:	00303420 	eorseq	r3, r0, r0, lsr #8
    2b8c:	53555f5f 	cmppl	r5, #380	; 0x17c
    2b90:	43415246 	movtmi	r5, #4678	; 0x1246
    2b94:	42495f54 	submi	r5, r9, #84, 30	; 0x150
    2b98:	5f5f5449 	svcpl	0x005f5449
    2b9c:	5f003020 	svcpl	0x00003020
    2ba0:	544e495f 	strbpl	r4, [lr], #-2399	; 0xfffff6a1
    2ba4:	435f3233 	cmpmi	pc, #805306371	; 0x30000003
    2ba8:	20296328 	eorcs	r6, r9, r8, lsr #6
    2bac:	23232063 			; <UNDEFINED> instruction: 0x23232063
    2bb0:	5f004c20 	svcpl	0x00004c20
    2bb4:	6e69755f 	mcrvs	5, 3, r7, cr9, cr15, {2}
    2bb8:	5f363174 	svcpl	0x00363174
    2bbc:	525f0074 	subspl	r0, pc, #116	; 0x74
    2bc0:	544e4545 	strbpl	r4, [lr], #-1349	; 0xfffffabb
    2bc4:	4749535f 	smlsldmi	r5, r9, pc, r3	; <UNPREDICTABLE>
    2bc8:	5f4c414e 	svcpl	0x004c414e
    2bcc:	28465542 	stmdacs	r6, {r1, r6, r8, sl, ip, lr}^
    2bd0:	29727470 	ldmdbcs	r2!, {r4, r5, r6, sl, ip, sp, lr}^
    2bd4:	70282820 	eorvc	r2, r8, r0, lsr #16
    2bd8:	2d297274 	sfmcs	f7, 4, [r9, #-464]!	; 0xfffffe30
    2bdc:	69735f3e 	ldmdbvs	r3!, {r1, r2, r3, r4, r5, r8, r9, sl, fp, ip, lr}^
    2be0:	6c616e67 	stclvs	14, cr6, [r1], #-412	; 0xfffffe64
    2be4:	6675625f 			; <UNDEFINED> instruction: 0x6675625f
    2be8:	5f5f0029 	svcpl	0x005f0029
    2bec:	52465355 	subpl	r5, r6, #1409286145	; 0x54000001
    2bf0:	5f544341 	svcpl	0x00544341
    2bf4:	5f4e494d 	svcpl	0x004e494d
    2bf8:	2e30205f 	mrccs	0, 1, r2, cr0, cr15, {2}
    2bfc:	52485530 	subpl	r5, r8, #48, 10	; 0xc000000
    2c00:	755f5f00 	ldrbvc	r5, [pc, #-3840]	; 1d08 <_Min_Stack_Size+0x1908>
    2c04:	20646573 	rsbcs	r6, r4, r3, ror r5
    2c08:	74615f5f 	strbtvc	r5, [r1], #-3935	; 0xfffff0a1
    2c0c:	62697274 	rsbvs	r7, r9, #116, 4	; 0x40000007
    2c10:	5f657475 	svcpl	0x00657475
    2c14:	5f28285f 	svcpl	0x0028285f
    2c18:	6573755f 	ldrbvs	r7, [r3, #-1375]!	; 0xfffffaa1
    2c1c:	295f5f64 	ldmdbcs	pc, {r2, r5, r6, r8, r9, sl, fp, ip, lr}^	; <UNPREDICTABLE>
    2c20:	5f5f0029 	svcpl	0x005f0029
    2c24:	656e6567 	strbvs	r6, [lr, #-1383]!	; 0xfffffa99
    2c28:	28636972 	stmdacs	r3!, {r1, r4, r5, r6, r8, fp, sp, lr}^
    2c2c:	72707865 	rsbsvc	r7, r0, #6619136	; 0x650000
    2c30:	792c742c 	stmdbvc	ip!, {r2, r3, r5, sl, ip, sp, lr}
    2c34:	6e2c7365 	cdpvs	3, 2, cr7, cr12, cr5, {3}
    2c38:	5f20296f 	svcpl	0x0020296f
    2c3c:	656e6547 	strbvs	r6, [lr, #-1351]!	; 0xfffffab9
    2c40:	28636972 	stmdacs	r3!, {r1, r4, r5, r6, r8, fp, sp, lr}^
    2c44:	72707865 	rsbsvc	r7, r0, #6619136	; 0x650000
    2c48:	3a74202c 	bcc	1d0ad00 <_Min_Stack_Size+0x1d0a900>
    2c4c:	73657920 	cmnvc	r5, #32, 18	; 0x80000
    2c50:	6564202c 	strbvs	r2, [r4, #-44]!	; 0xffffffd4
    2c54:	6c756166 	ldfvse	f6, [r5], #-408	; 0xfffffe68
    2c58:	6e203a74 			; <UNDEFINED> instruction: 0x6e203a74
    2c5c:	5f00296f 	svcpl	0x0000296f
    2c60:	4d52415f 	ldfmie	f4, [r2, #-380]	; 0xfffffe84
    2c64:	4f454e5f 	svcmi	0x00454e5f
    2c68:	525f004e 	subspl	r0, pc, #78	; 0x4e
    2c6c:	544e4545 	strbpl	r4, [lr], #-1349	; 0xfffffabb
    2c70:	454d455f 	strbmi	r4, [sp, #-1375]	; 0xfffffaa1
    2c74:	4e454752 	mcrmi	7, 2, r4, cr5, cr2, {2}
    2c78:	70285943 	eorvc	r5, r8, r3, asr #18
    2c7c:	20297274 	eorcs	r7, r9, r4, ror r2
    2c80:	74702828 	ldrbtvc	r2, [r0], #-2088	; 0xfffff7d8
    2c84:	3e2d2972 			; <UNDEFINED> instruction: 0x3e2d2972
    2c88:	656d655f 	strbvs	r6, [sp, #-1375]!	; 0xfffffaa1
    2c8c:	6e656772 	mcrvs	7, 3, r6, cr5, cr2, {3}
    2c90:	00297963 	eoreq	r7, r9, r3, ror #18
    2c94:	4e475f5f 	mcrmi	15, 2, r5, cr7, cr15, {2}
    2c98:	494c4355 	stmdbmi	ip, {r0, r2, r4, r6, r8, r9, lr}^
    2c9c:	435f454b 	cmpmi	pc, #314572800	; 0x12c00000
    2ca0:	5f524f54 	svcpl	0x00524f54
    2ca4:	54434553 	strbpl	r4, [r3], #-1363	; 0xfffffaad
    2ca8:	5f4e4f49 	svcpl	0x004e4f49
    2cac:	444e4148 	strbmi	r4, [lr], #-328	; 0xfffffeb8
    2cb0:	474e494c 	strbmi	r4, [lr, -ip, asr #18]
    2cb4:	5f003120 	svcpl	0x00003120
    2cb8:	4e49555f 	mcrmi	5, 2, r5, cr9, cr15, {2}
    2cbc:	4d5f3854 	ldclmi	8, cr3, [pc, #-336]	; 2b74 <_Min_Stack_Size+0x2774>
    2cc0:	5f5f5841 	svcpl	0x005f5841
    2cc4:	66783020 	ldrbtvs	r3, [r8], -r0, lsr #32
    2cc8:	5f5f0066 	svcpl	0x005f0066
    2ccc:	6b636f6c 	blvs	18dea84 <_Min_Stack_Size+0x18de684>
    2cd0:	7163615f 	cmnvc	r3, pc, asr r1
    2cd4:	65726975 	ldrbvs	r6, [r2, #-2421]!	; 0xfffff68b
    2cd8:	6365725f 	cmnvs	r5, #-268435451	; 0xf0000005
    2cdc:	69737275 	ldmdbvs	r3!, {r0, r2, r4, r5, r6, r9, ip, sp, lr}^
    2ce0:	6c286576 	cfstr32vs	mvfx6, [r8], #-472	; 0xfffffe28
    2ce4:	296b636f 	stmdbcs	fp!, {r0, r1, r2, r3, r5, r6, r8, r9, sp, lr}^
    2ce8:	725f5f20 	subsvc	r5, pc, #32, 30	; 0x80
    2cec:	72617465 	rsbvc	r7, r1, #1694498816	; 0x65000000
    2cf0:	5f746567 	svcpl	0x00746567
    2cf4:	6b636f6c 	blvs	18deaac <_Min_Stack_Size+0x18de6ac>
    2cf8:	7163615f 	cmnvc	r3, pc, asr r1
    2cfc:	65726975 	ldrbvs	r6, [r2, #-2421]!	; 0xfffff68b
    2d00:	6365725f 	cmnvs	r5, #-268435451	; 0xf0000005
    2d04:	69737275 	ldmdbvs	r3!, {r0, r2, r4, r5, r6, r9, ip, sp, lr}^
    2d08:	6c286576 	cfstr32vs	mvfx6, [r8], #-472	; 0xfffffe28
    2d0c:	296b636f 	stmdbcs	fp!, {r0, r1, r2, r3, r5, r6, r8, r9, sp, lr}^
    2d10:	72655000 	rsbvc	r5, r5, #0
    2d14:	65687069 	strbvs	r7, [r8, #-105]!	; 0xffffff97
    2d18:	736c6172 	cmnvc	ip, #-2147483620	; 0x8000001c
    2d1c:	5341425f 	movtpl	r4, #4703	; 0x125f
    2d20:	78302045 	ldmdavc	r0!, {r0, r2, r6, sp}
    2d24:	30303034 	eorscc	r3, r0, r4, lsr r0
    2d28:	30303030 	eorscc	r3, r0, r0, lsr r0
    2d2c:	5f004c55 	svcpl	0x00004c55
    2d30:	4e454552 	mcrmi	5, 2, r4, cr5, cr2, {2}
    2d34:	695f2054 	ldmdbvs	pc, {r2, r4, r6, sp}^	; <UNPREDICTABLE>
    2d38:	7275706d 	rsbsvc	r7, r5, #109	; 0x6d
    2d3c:	74705f65 	ldrbtvc	r5, [r0], #-3941	; 0xfffff09b
    2d40:	5f5f0072 	svcpl	0x005f0072
    2d44:	5f736168 	svcpl	0x00736168
    2d48:	74616566 	strbtvc	r6, [r1], #-1382	; 0xfffffa9a
    2d4c:	28657275 	stmdacs	r5!, {r0, r2, r4, r5, r6, r9, ip, sp, lr}^
    2d50:	30202978 	eorcc	r2, r0, r8, ror r9
    2d54:	54584500 	ldrbpl	r4, [r8], #-1280	; 0xfffffb00
    2d58:	495f3249 	ldmdbmi	pc, {r0, r3, r6, r9, ip, sp}^	; <UNPREDICTABLE>
    2d5c:	38205152 	stmdacc	r0!, {r1, r4, r6, r8, ip, lr}
    2d60:	655f5f00 	ldrbvs	r5, [pc, #-3840]	; 1e68 <_Min_Stack_Size+0x1a68>
    2d64:	726f7078 	rsbvc	r7, pc, #120	; 0x78
    2d68:	20646574 	rsbcs	r6, r4, r4, ror r5
    2d6c:	74615f5f 	strbtvc	r5, [r1], #-3935	; 0xfffff0a1
    2d70:	62697274 	rsbvs	r7, r9, #116, 4	; 0x40000007
    2d74:	5f657475 	svcpl	0x00657475
    2d78:	5f28285f 	svcpl	0x0028285f
    2d7c:	7369765f 	cmnvc	r9, #99614720	; 0x5f00000
    2d80:	6c696269 	sfmvs	f6, 2, [r9], #-420	; 0xfffffe5c
    2d84:	5f797469 	svcpl	0x00797469
    2d88:	6422285f 	strtvs	r2, [r2], #-2143	; 0xfffff7a1
    2d8c:	75616665 	strbvc	r6, [r1, #-1637]!	; 0xfffff99b
    2d90:	2922746c 	stmdbcs	r2!, {r2, r3, r5, r6, sl, ip, sp, lr}
    2d94:	5f002929 	svcpl	0x00002929
    2d98:	4343535f 	movtmi	r5, #13151	; 0x335f
    2d9c:	28444953 	stmdacs	r4, {r0, r1, r4, r6, r8, fp, lr}^
    2da0:	73202973 			; <UNDEFINED> instruction: 0x73202973
    2da4:	63757274 	cmnvs	r5, #116, 4	; 0x40000007
    2da8:	5f5f2074 	svcpl	0x005f2074
    2dac:	6b636168 	blvs	18db354 <_Min_Stack_Size+0x18daf54>
    2db0:	445f5f00 	ldrbmi	r5, [pc], #-3840	; 2db8 <_Min_Stack_Size+0x29b8>
    2db4:	485f4c42 	ldmdami	pc, {r1, r6, sl, fp, lr}^	; <UNPREDICTABLE>
    2db8:	445f5341 	ldrbmi	r5, [pc], #-833	; 2dc0 <_Min_Stack_Size+0x29c0>
    2dbc:	524f4e45 	subpl	r4, pc, #1104	; 0x450
    2dc0:	205f5f4d 	subscs	r5, pc, sp, asr #30
    2dc4:	5f5f0031 	svcpl	0x005f0031
    2dc8:	6b636f6c 	blvs	18deb80 <_Min_Stack_Size+0x18de780>
    2dcc:	7972745f 	ldmdbvc	r2!, {r0, r1, r2, r3, r4, r6, sl, ip, sp, lr}^
    2dd0:	7163615f 	cmnvc	r3, pc, asr r1
    2dd4:	65726975 	ldrbvs	r6, [r2, #-2421]!	; 0xfffff68b
    2dd8:	6365725f 	cmnvs	r5, #-268435451	; 0xf0000005
    2ddc:	69737275 	ldmdbvs	r3!, {r0, r2, r4, r5, r6, r9, ip, sp, lr}^
    2de0:	6c286576 	cfstr32vs	mvfx6, [r8], #-472	; 0xfffffe28
    2de4:	296b636f 	stmdbcs	fp!, {r0, r1, r2, r3, r5, r6, r8, r9, sp, lr}^
    2de8:	725f5f20 	subsvc	r5, pc, #32, 30	; 0x80
    2dec:	72617465 	rsbvc	r7, r1, #1694498816	; 0x65000000
    2df0:	5f746567 	svcpl	0x00746567
    2df4:	6b636f6c 	blvs	18debac <_Min_Stack_Size+0x18de7ac>
    2df8:	7972745f 	ldmdbvc	r2!, {r0, r1, r2, r3, r4, r6, sl, ip, sp, lr}^
    2dfc:	7163615f 	cmnvc	r3, pc, asr r1
    2e00:	65726975 	ldrbvs	r6, [r2, #-2421]!	; 0xfffff68b
    2e04:	6365725f 	cmnvs	r5, #-268435451	; 0xf0000005
    2e08:	69737275 	ldmdbvs	r3!, {r0, r2, r4, r5, r6, r9, ip, sp, lr}^
    2e0c:	6c286576 	cfstr32vs	mvfx6, [r8], #-472	; 0xfffffe28
    2e10:	296b636f 	stmdbcs	fp!, {r0, r1, r2, r3, r5, r6, r8, r9, sp, lr}^
    2e14:	59425f00 	stmdbpl	r2, {r8, r9, sl, fp, ip, lr}^
    2e18:	4f5f4554 	svcmi	0x005f4554
    2e1c:	52454452 	subpl	r4, r5, #1375731712	; 0x52000000
    2e20:	494c5f20 	stmdbmi	ip, {r5, r8, r9, sl, fp, ip, lr}^
    2e24:	454c5454 	strbmi	r5, [ip, #-1108]	; 0xfffffbac
    2e28:	444e455f 	strbmi	r4, [lr], #-1375	; 0xfffffaa1
    2e2c:	004e4149 	subeq	r4, lr, r9, asr #2
    2e30:	43435f5f 	movtmi	r5, #16223	; 0x3f5f
    2e34:	5055535f 	subspl	r5, r5, pc, asr r3
    2e38:	54524f50 	ldrbpl	r4, [r2], #-3920	; 0xfffff0b0
    2e3c:	5f5f5f53 	svcpl	0x005f5f53
    2e40:	494c4e49 	stmdbmi	ip, {r0, r3, r6, r9, sl, fp, lr}^
    2e44:	3120454e 			; <UNDEFINED> instruction: 0x3120454e
    2e48:	424d5f00 	submi	r5, sp, #0, 30
    2e4c:	4e454c5f 	mcrmi	12, 2, r4, cr5, cr15, {2}
    2e50:	58414d5f 	stmdapl	r1, {r0, r1, r2, r3, r4, r6, r8, sl, fp, lr}^
    2e54:	49003120 	stmdbmi	r0, {r5, r8, ip, sp}
    2e58:	414d544e 	cmpmi	sp, lr, asr #8
    2e5c:	414d5f58 	cmpmi	sp, r8, asr pc
    2e60:	5f282058 	svcpl	0x00282058
    2e64:	544e495f 	strbpl	r4, [lr], #-2399	; 0xfffff6a1
    2e68:	5f58414d 	svcpl	0x0058414d
    2e6c:	5f58414d 	svcpl	0x0058414d
    2e70:	4900295f 	stmdbmi	r0, {r0, r1, r2, r3, r4, r6, r8, fp, sp}
    2e74:	3233544e 	eorscc	r5, r3, #1308622848	; 0x4e000000
    2e78:	58414d5f 	stmdapl	r1, {r0, r1, r2, r3, r4, r6, r8, sl, fp, lr}^
    2e7c:	5f5f2820 	svcpl	0x005f2820
    2e80:	33544e49 	cmpcc	r4, #1168	; 0x490
    2e84:	414d5f32 	cmpmi	sp, r2, lsr pc
    2e88:	295f5f58 	ldmdbcs	pc, {r3, r4, r6, r8, r9, sl, fp, ip, lr}^	; <UNPREDICTABLE>
    2e8c:	49504700 	ldmdbmi	r0, {r8, r9, sl, lr}^
    2e90:	425f454f 	subsmi	r4, pc, #331350016	; 0x13c00000
    2e94:	20455341 	subcs	r5, r5, r1, asr #6
    2e98:	72655028 	rsbvc	r5, r5, #40	; 0x28
    2e9c:	65687069 	strbvs	r7, [r8, #-105]!	; 0xffffff97
    2ea0:	736c6172 	cmnvc	ip, #-2147483620	; 0x8000001c
    2ea4:	5341425f 	movtpl	r4, #4703	; 0x125f
    2ea8:	202b2045 	eorcs	r2, fp, r5, asr #32
    2eac:	30307830 	eorscc	r7, r0, r0, lsr r8
    2eb0:	38313130 	ldmdacc	r1!, {r4, r5, r8, ip, sp}
    2eb4:	4c553030 	mrrcmi	0, 3, r3, r5, cr0
    2eb8:	5f5f0029 	svcpl	0x005f0029
    2ebc:	465f4144 	ldrbmi	r4, [pc], -r4, asr #2
    2ec0:	5f544942 	svcpl	0x00544942
    2ec4:	3133205f 	teqcc	r3, pc, asr r0
    2ec8:	475f5f00 	ldrbmi	r5, [pc, -r0, lsl #30]
    2ecc:	415f5858 	cmpmi	pc, r8, asr r8	; <UNPREDICTABLE>
    2ed0:	565f4942 	ldrbpl	r4, [pc], -r2, asr #18
    2ed4:	49535245 	ldmdbmi	r3, {r0, r2, r6, r9, ip, lr}^
    2ed8:	31204e4f 			; <UNDEFINED> instruction: 0x31204e4f
    2edc:	00343130 	eorseq	r3, r4, r0, lsr r1
    2ee0:	4c41434d 	mcrrmi	3, 4, r4, r1, cr13
    2ee4:	4950475f 	ldmdbmi	r0, {r0, r1, r2, r3, r4, r6, r8, r9, sl, lr}^
    2ee8:	72575f4f 	subsvc	r5, r7, #316	; 0x13c
    2eec:	50657469 	rsbpl	r7, r5, r9, ror #8
    2ef0:	5f006e69 	svcpl	0x00006e69
    2ef4:	544e495f 	strbpl	r4, [lr], #-2399	; 0xfffff6a1
    2ef8:	41454c5f 	cmpmi	r5, pc, asr ip
    2efc:	36315453 			; <UNDEFINED> instruction: 0x36315453
    2f00:	58414d5f 	stmdapl	r1, {r0, r1, r2, r3, r4, r6, r8, sl, fp, lr}^
    2f04:	30205f5f 	eorcc	r5, r0, pc, asr pc
    2f08:	66663778 			; <UNDEFINED> instruction: 0x66663778
    2f0c:	5f5f0066 	svcpl	0x005f0066
    2f10:	5f544c46 	svcpl	0x00544c46
    2f14:	4f4e4544 	svcmi	0x004e4544
    2f18:	4d5f4d52 	ldclmi	13, cr4, [pc, #-328]	; 2dd8 <_Min_Stack_Size+0x29d8>
    2f1c:	5f5f4e49 	svcpl	0x005f4e49
    2f20:	342e3120 	strtcc	r3, [lr], #-288	; 0xfffffee0
    2f24:	39323130 	ldmdbcc	r2!, {r4, r5, r8, ip, sp}
    2f28:	34363438 	ldrtcc	r3, [r6], #-1080	; 0xfffffbc8
    2f2c:	38343233 	ldmdacc	r4!, {r0, r1, r4, r5, r9, ip, sp}
    2f30:	65313731 	ldrvs	r3, [r1, #-1841]!	; 0xfffff8cf
    2f34:	4635342d 	ldrtmi	r3, [r5], -sp, lsr #8
    2f38:	4c5f5f00 	mrrcmi	15, 0, r5, pc, cr0	; <UNPREDICTABLE>
    2f3c:	5f4c4244 	svcpl	0x004c4244
    2f40:	5f58414d 	svcpl	0x0058414d
    2f44:	2e31205f 	mrccs	0, 1, r2, cr1, cr15, {2}
    2f48:	36373937 			; <UNDEFINED> instruction: 0x36373937
    2f4c:	33313339 	teqcc	r1, #-469762048	; 0xe4000000
    2f50:	32363834 	eorscc	r3, r6, #52, 16	; 0x340000
    2f54:	37353133 			; <UNDEFINED> instruction: 0x37353133
    2f58:	30332b65 	eorscc	r2, r3, r5, ror #22
    2f5c:	55004c38 	strpl	r4, [r0, #-3128]	; 0xfffff3c8
    2f60:	5f544e49 	svcpl	0x00544e49
    2f64:	54534146 	ldrbpl	r4, [r3], #-326	; 0xfffffeba
    2f68:	4d5f3631 	ldclmi	6, cr3, [pc, #-196]	; 2eac <_Min_Stack_Size+0x2aac>
    2f6c:	28205841 	stmdacs	r0!, {r0, r6, fp, ip, lr}
    2f70:	49555f5f 	ldmdbmi	r5, {r0, r1, r2, r3, r4, r6, r8, r9, sl, fp, ip, lr}^
    2f74:	465f544e 	ldrbmi	r5, [pc], -lr, asr #8
    2f78:	31545341 	cmpcc	r4, r1, asr #6
    2f7c:	414d5f36 	cmpmi	sp, r6, lsr pc
    2f80:	295f5f58 	ldmdbcs	pc, {r3, r4, r6, r8, r9, sl, fp, ip, lr}^	; <UNPREDICTABLE>
    2f84:	725f5f00 	subsvc	r5, pc, #0, 30
    2f88:	72757465 	rsbsvc	r7, r5, #1694498816	; 0x65000000
    2f8c:	745f736e 	ldrbvc	r7, [pc], #-878	; 2f94 <_Min_Stack_Size+0x2b94>
    2f90:	65636977 	strbvs	r6, [r3, #-2423]!	; 0xfffff689
    2f94:	615f5f20 	cmpvs	pc, r0, lsr #30
    2f98:	69727474 	ldmdbvs	r2!, {r2, r4, r5, r6, sl, ip, sp, lr}^
    2f9c:	65747562 	ldrbvs	r7, [r4, #-1378]!	; 0xfffffa9e
    2fa0:	28285f5f 	stmdacs	r8!, {r0, r1, r2, r3, r4, r6, r8, r9, sl, fp, ip, lr}
    2fa4:	65725f5f 	ldrbvs	r5, [r2, #-3935]!	; 0xfffff0a1
    2fa8:	6e727574 	mrcvs	5, 3, r7, cr2, cr4, {3}
    2fac:	77745f73 			; <UNDEFINED> instruction: 0x77745f73
    2fb0:	5f656369 	svcpl	0x00656369
    2fb4:	0029295f 	eoreq	r2, r9, pc, asr r9
    2fb8:	73625f5f 	cmnvc	r2, #380	; 0x17c
    2fbc:	33706177 	cmncc	r0, #-1073741795	; 0xc000001d
    2fc0:	785f2832 	ldmdavc	pc, {r1, r4, r5, fp, sp}^	; <UNPREDICTABLE>
    2fc4:	5f5f2029 	svcpl	0x005f2029
    2fc8:	6c697562 	cfstr64vs	mvdx7, [r9], #-392	; 0xfffffe78
    2fcc:	5f6e6974 	svcpl	0x006e6974
    2fd0:	61777362 	cmnvs	r7, r2, ror #6
    2fd4:	28323370 	ldmdacs	r2!, {r4, r5, r6, r8, r9, ip, sp}
    2fd8:	0029785f 	eoreq	r7, r9, pc, asr r8
    2fdc:	65725f5f 	ldrbvs	r5, [r2, #-3935]!	; 0xfffff0a1
    2fe0:	72697571 	rsbvc	r7, r9, #473956352	; 0x1c400000
    2fe4:	735f7365 	cmpvc	pc, #-1811939327	; 0x94000001
    2fe8:	65726168 	ldrbvs	r6, [r2, #-360]!	; 0xfffffe98
    2fec:	2e2e2864 	cdpcs	8, 2, cr2, cr14, cr4, {3}
    2ff0:	5f20292e 	svcpl	0x0020292e
    2ff4:	636f6c5f 	cmnvs	pc, #24320	; 0x5f00
    2ff8:	6e615f6b 	cdpvs	15, 6, cr5, cr1, cr11, {3}
    2ffc:	61746f6e 	cmnvs	r4, lr, ror #30
    3000:	73286574 			; <UNDEFINED> instruction: 0x73286574
    3004:	65726168 	ldrbvs	r6, [r2, #-360]!	; 0xfffffe98
    3008:	6f6c5f64 	svcvs	0x006c5f64
    300c:	5f736b63 	svcpl	0x00736b63
    3010:	75716572 	ldrbvc	r6, [r1, #-1394]!	; 0xfffffa8e
    3014:	64657269 	strbtvs	r7, [r5], #-617	; 0xfffffd97
    3018:	565f5f28 	ldrbpl	r5, [pc], -r8, lsr #30
    301c:	52415f41 	subpl	r5, r1, #260	; 0x104
    3020:	5f5f5347 	svcpl	0x005f5347
    3024:	5f002929 	svcpl	0x00002929
    3028:	5f444e45 	svcpl	0x00444e45
    302c:	5f445453 	svcpl	0x00445453
    3030:	4c002043 	stcmi	0, cr2, [r0], {67}	; 0x43
    3034:	435f4443 	cmpmi	pc, #1124073472	; 0x43000000
    3038:	4f535255 	svcmi	0x00535255
    303c:	4f4d5f52 	svcmi	0x004d5f52
    3040:	535f4556 	cmppl	pc, #360710144	; 0x15800000
    3044:	54464948 	strbpl	r4, [r6], #-2376	; 0xfffff6b8
    3048:	4749525f 	smlsldmi	r5, r9, pc, r2	; <UNPREDICTABLE>
    304c:	30205448 	eorcc	r5, r0, r8, asr #8
    3050:	00343178 	eorseq	r3, r4, r8, ror r1
    3054:	4c535f5f 	mrrcmi	15, 5, r5, r3, cr15
    3058:	30203436 	eorcc	r3, r0, r6, lsr r4
    305c:	30303878 	eorscc	r3, r0, r8, ror r8
    3060:	535f0030 	cmppl	pc, #48	; 0x30
    3064:	545f5359 	ldrbpl	r5, [pc], #-857	; 306c <_Min_Stack_Size+0x2c6c>
    3068:	53455059 	movtpl	r5, #20569	; 0x5059
    306c:	0020485f 	eoreq	r4, r0, pc, asr r8
    3070:	544e4955 	strbpl	r4, [lr], #-2389	; 0xfffff6ab
    3074:	41454c5f 	cmpmi	r5, pc, asr ip
    3078:	36315453 			; <UNDEFINED> instruction: 0x36315453
    307c:	58414d5f 	stmdapl	r1, {r0, r1, r2, r3, r4, r6, r8, sl, fp, lr}^
    3080:	5f5f2820 	svcpl	0x005f2820
    3084:	544e4955 	strbpl	r4, [lr], #-2389	; 0xfffff6ab
    3088:	41454c5f 	cmpmi	r5, pc, asr ip
    308c:	36315453 			; <UNDEFINED> instruction: 0x36315453
    3090:	58414d5f 	stmdapl	r1, {r0, r1, r2, r3, r4, r6, r8, sl, fp, lr}^
    3094:	00295f5f 	eoreq	r5, r9, pc, asr pc
    3098:	49555f5f 	ldmdbmi	r5, {r0, r1, r2, r3, r4, r6, r8, r9, sl, fp, ip, lr}^
    309c:	3233544e 	eorscc	r5, r3, #1308622848	; 0x4e000000
    30a0:	6328435f 			; <UNDEFINED> instruction: 0x6328435f
    30a4:	20632029 	rsbcs	r2, r3, r9, lsr #32
    30a8:	55202323 	strpl	r2, [r0, #-803]!	; 0xfffffcdd
    30ac:	5f5f004c 	svcpl	0x005f004c
    30b0:	20575253 	subscs	r5, r7, r3, asr r2
    30b4:	30307830 	eorscc	r7, r0, r0, lsr r8
    30b8:	4c003031 	stcmi	0, cr3, [r0], {49}	; 0x31
    30bc:	435f4443 	cmpmi	pc, #1124073472	; 0x43000000
    30c0:	204c5254 	subcs	r5, ip, r4, asr r2
    30c4:	4f495047 	svcmi	0x00495047
    30c8:	4e490041 	cdpmi	0, 4, cr0, cr9, cr1, {2}
    30cc:	54535f43 	ldrbpl	r5, [r3], #-3907	; 0xfffff0bd
    30d0:	4632334d 	ldrtmi	r3, [r2], -sp, asr #6
    30d4:	58333031 	ldmdapl	r3!, {r0, r4, r5, ip, sp}
    30d8:	5f485f36 	svcpl	0x00485f36
    30dc:	5f5f0020 	svcpl	0x005f0020
    30e0:	43434155 	movtmi	r4, #12629	; 0x3155
    30e4:	4d5f4d55 	ldclmi	13, cr4, [pc, #-340]	; 2f98 <_Min_Stack_Size+0x2b98>
    30e8:	5f5f4e49 	svcpl	0x005f4e49
    30ec:	302e3020 	eorcc	r3, lr, r0, lsr #32
    30f0:	5f004b55 	svcpl	0x00004b55
    30f4:	4e454552 	mcrmi	5, 2, r4, cr5, cr2, {2}
    30f8:	424d5f54 	submi	r5, sp, #84, 30	; 0x150
    30fc:	43574f54 	cmpmi	r7, #84, 30	; 0x150
    3100:	4154535f 	cmpmi	r4, pc, asr r3
    3104:	70284554 	eorvc	r4, r8, r4, asr r5
    3108:	20297274 	eorcs	r7, r9, r4, ror r2
    310c:	74702828 	ldrbtvc	r2, [r0], #-2088	; 0xfffff7d8
    3110:	3e2d2972 			; <UNDEFINED> instruction: 0x3e2d2972
    3114:	73696d5f 	cmnvc	r9, #6080	; 0x17c0
    3118:	5f3e2d63 	svcpl	0x003e2d63
    311c:	6f74626d 	svcvs	0x0074626d
    3120:	735f6377 	cmpvc	pc, #-603979775	; 0xdc000001
    3124:	65746174 	ldrbvs	r6, [r4, #-372]!	; 0xfffffe8c
    3128:	4e5f0029 	cdpmi	0, 5, cr0, cr15, cr9, {1}
    312c:	5f6c6c75 	svcpl	0x006c6c75
    3130:	70736e75 	rsbsvc	r6, r3, r5, ror lr
    3134:	66696365 	strbtvs	r6, [r9], -r5, ror #6
    3138:	20646569 	rsbcs	r6, r4, r9, ror #10
    313c:	465f5f00 	ldrbmi	r5, [pc], -r0, lsl #30
    3140:	455f544c 	ldrbmi	r5, [pc, #-1100]	; 2cfc <_Min_Stack_Size+0x28fc>
    3144:	4c495350 	mcrrmi	3, 5, r5, r9, cr0
    3148:	5f5f4e4f 	svcpl	0x005f4e4f
    314c:	312e3120 			; <UNDEFINED> instruction: 0x312e3120
    3150:	39303239 	ldmdbcc	r0!, {r0, r3, r4, r5, r9, ip, sp}
    3154:	35393832 	ldrcc	r3, [r9, #-2098]!	; 0xfffff7ce
    3158:	38373035 	ldmdacc	r7!, {r0, r2, r4, r5, ip, sp}
    315c:	65353231 	ldrvs	r3, [r5, #-561]!	; 0xfffffdcf
    3160:	0046372d 	subeq	r3, r6, sp, lsr #14
    3164:	53585f5f 	cmppl	r8, #380	; 0x17c
    3168:	4e495254 	mcrmi	2, 2, r5, cr9, cr4, {2}
    316c:	29782847 	ldmdbcs	r8!, {r0, r1, r2, r6, fp, sp}^
    3170:	535f5f20 	cmppl	pc, #32, 30	; 0x80
    3174:	4e495254 	mcrmi	2, 2, r5, cr9, cr4, {2}
    3178:	29782847 	ldmdbcs	r8!, {r0, r1, r2, r6, fp, sp}^
    317c:	615f5f00 	cmpvs	pc, r0, lsl #30
    3180:	69727474 	ldmdbvs	r2!, {r2, r4, r5, r6, sl, ip, sp, lr}^
    3184:	65747562 	ldrbvs	r7, [r4, #-1378]!	; 0xfffffa9e
    3188:	7275705f 	rsbsvc	r7, r5, #95	; 0x5f
    318c:	205f5f65 	subscs	r5, pc, r5, ror #30
    3190:	755f5f00 	ldrbvc	r5, [pc, #-3840]	; 2298 <_Min_Stack_Size+0x1e98>
    3194:	6f68735f 	svcvs	0x0068735f
    3198:	645f7472 	ldrbvs	r7, [pc], #-1138	; 31a0 <_Min_Stack_Size+0x2da0>
    319c:	6e696665 	cdpvs	6, 6, cr6, cr9, cr5, {3}
    31a0:	00206465 	eoreq	r6, r0, r5, ror #8
    31a4:	49545845 	ldmdbmi	r4, {r0, r2, r6, fp, ip, lr}^
    31a8:	5341425f 	movtpl	r4, #4703	; 0x125f
    31ac:	50282045 	eorpl	r2, r8, r5, asr #32
    31b0:	70697265 	rsbvc	r7, r9, r5, ror #4
    31b4:	61726568 	cmnvs	r2, r8, ror #10
    31b8:	425f736c 	subsmi	r7, pc, #108, 6	; 0xb0000001
    31bc:	20455341 	subcs	r5, r5, r1, asr #6
    31c0:	7830202b 	ldmdavc	r0!, {r0, r1, r3, r5, sp}
    31c4:	31303030 	teqcc	r0, r0, lsr r0
    31c8:	30303430 	eorscc	r3, r0, r0, lsr r4
    31cc:	00294c55 	eoreq	r4, r9, r5, asr ip
    31d0:	54505f5f 	ldrbpl	r5, [r0], #-3935	; 0xfffff0a1
    31d4:	46494452 			; <UNDEFINED> instruction: 0x46494452
    31d8:	59545f46 	ldmdbpl	r4, {r1, r2, r6, r8, r9, sl, fp, ip, lr}^
    31dc:	5f5f4550 	svcpl	0x005f4550
    31e0:	746e6920 	strbtvc	r6, [lr], #-2336	; 0xfffff6e0
    31e4:	415f5f00 	cmpmi	pc, r0, lsl #30
    31e8:	415f4d52 	cmpmi	pc, r2, asr sp	; <UNPREDICTABLE>
    31ec:	5f484352 	svcpl	0x00484352
    31f0:	5f415349 	svcpl	0x00415349
    31f4:	4d554854 	ldclmi	8, cr4, [r5, #-336]	; 0xfffffeb0
    31f8:	5f4c0042 	svcpl	0x004c0042
    31fc:	72657463 	rsbvc	r7, r5, #1660944384	; 0x63000000
    3200:	2064696d 	rsbcs	r6, r4, sp, ror #18
    3204:	5f003631 	svcpl	0x00003631
    3208:	504e535f 	subpl	r5, lr, pc, asr r3
    320c:	78302054 	ldmdavc	r0!, {r2, r4, r6, sp}
    3210:	30303830 	eorscc	r3, r0, r0, lsr r8
    3214:	475f5f00 	ldrbmi	r5, [pc, -r0, lsl #30]
    3218:	4c43554e 	cfstr64mi	mvdx5, [r3], {78}	; 0x4e
    321c:	5f454b49 	svcpl	0x00454b49
    3220:	4c495542 	cfstr64mi	mvdx5, [r9], {66}	; 0x42
    3224:	5f4e4954 	svcpl	0x004e4954
    3228:	41524156 	cmpmi	r2, r6, asr r1
    322c:	20534752 	subscs	r4, r3, r2, asr r7
    3230:	5f5f0031 	svcpl	0x005f0031
    3234:	5f504656 	svcpl	0x00504656
    3238:	5f5f5046 	svcpl	0x005f5046
    323c:	5f003120 	svcpl	0x00003120
    3240:	4e49555f 	mcrmi	5, 2, r5, cr9, cr15, {2}
    3244:	545f3854 	ldrbpl	r3, [pc], #-2132	; 324c <_Min_Stack_Size+0x2e4c>
    3248:	5f455059 	svcpl	0x00455059
    324c:	6e75205f 	mrcvs	0, 3, r2, cr5, cr15, {2}
    3250:	6e676973 			; <UNDEFINED> instruction: 0x6e676973
    3254:	63206465 			; <UNDEFINED> instruction: 0x63206465
    3258:	00726168 	rsbseq	r6, r2, r8, ror #2
    325c:	5f544e49 	svcpl	0x00544e49
    3260:	5341454c 	movtpl	r4, #5452	; 0x154c
    3264:	5f323354 	svcpl	0x00323354
    3268:	204e494d 	subcs	r4, lr, sp, asr #18
    326c:	5f5f2d28 	svcpl	0x005f2d28
    3270:	5f544e49 	svcpl	0x00544e49
    3274:	5341454c 	movtpl	r4, #5452	; 0x154c
    3278:	5f323354 	svcpl	0x00323354
    327c:	5f58414d 	svcpl	0x0058414d
    3280:	202d205f 	eorcs	r2, sp, pc, asr r0
    3284:	5f002931 	svcpl	0x00002931
    3288:	4343475f 	movtmi	r4, #14175	; 0x375f
    328c:	4f54415f 	svcmi	0x0054415f
    3290:	5f43494d 	svcpl	0x0043494d
    3294:	524f4853 	subpl	r4, pc, #5439488	; 0x530000
    3298:	4f4c5f54 	svcmi	0x004c5f54
    329c:	465f4b43 	ldrbmi	r4, [pc], -r3, asr #22
    32a0:	20454552 	subcs	r4, r5, r2, asr r5
    32a4:	535f0032 	cmppl	pc, #50	; 0x32
    32a8:	5f5f5359 	svcpl	0x005f5359
    32ac:	454d4954 	strbmi	r4, [sp, #-2388]	; 0xfffff6ac
    32b0:	5f4c4156 	svcpl	0x004c4156
    32b4:	00205f48 	eoreq	r5, r0, r8, asr #30
    32b8:	544e4955 	strbpl	r4, [lr], #-2389	; 0xfffff6ab
    32bc:	4d5f3233 	lfmmi	f3, 2, [pc, #-204]	; 31f8 <_Min_Stack_Size+0x2df8>
    32c0:	28205841 	stmdacs	r0!, {r0, r6, fp, ip, lr}
    32c4:	49555f5f 	ldmdbmi	r5, {r0, r1, r2, r3, r4, r6, r8, r9, sl, fp, ip, lr}^
    32c8:	3233544e 	eorscc	r5, r3, #1308622848	; 0x4e000000
    32cc:	58414d5f 	stmdapl	r1, {r0, r1, r2, r3, r4, r6, r8, sl, fp, lr}^
    32d0:	00295f5f 	eoreq	r5, r9, pc, asr pc
    32d4:	5f544e49 	svcpl	0x00544e49
    32d8:	5341454c 	movtpl	r4, #5452	; 0x154c
    32dc:	5f363154 	svcpl	0x00363154
    32e0:	204e494d 	subcs	r4, lr, sp, asr #18
    32e4:	5f5f2d28 	svcpl	0x005f2d28
    32e8:	5f544e49 	svcpl	0x00544e49
    32ec:	5341454c 	movtpl	r4, #5452	; 0x154c
    32f0:	5f363154 	svcpl	0x00363154
    32f4:	5f58414d 	svcpl	0x0058414d
    32f8:	202d205f 	eorcs	r2, sp, pc, asr r0
    32fc:	5f002931 	svcpl	0x00002931
    3300:	4153555f 	cmpmi	r3, pc, asr r5
    3304:	4d554343 	ldclmi	3, cr4, [r5, #-268]	; 0xfffffef4
    3308:	4942465f 	stmdbmi	r2, {r0, r1, r2, r3, r4, r6, r9, sl, lr}^
    330c:	205f5f54 	subscs	r5, pc, r4, asr pc	; <UNPREDICTABLE>
    3310:	44460038 	strbmi	r0, [r6], #-56	; 0xffffffc8
    3314:	5445535f 	strbpl	r5, [r5], #-863	; 0xfffffca1
    3318:	702c6e28 	eorvc	r6, ip, r8, lsr #28
    331c:	28282029 	stmdacs	r8!, {r0, r3, r5, sp}
    3320:	3e2d2970 			; <UNDEFINED> instruction: 0x3e2d2970
    3324:	64665f5f 	strbtvs	r5, [r6], #-3935	; 0xfffff0a1
    3328:	69625f73 	stmdbvs	r2!, {r0, r1, r4, r5, r6, r8, r9, sl, fp, ip, lr}^
    332c:	285b7374 	ldmdacs	fp, {r2, r4, r5, r6, r8, r9, ip, sp, lr}^
    3330:	5f2f296e 	svcpl	0x002f296e
    3334:	4244464e 	submi	r4, r4, #81788928	; 0x4e00000
    3338:	5d535449 	cfldrdpl	mvd5, [r3, #-292]	; 0xfffffedc
    333c:	203d7c20 	eorscs	r7, sp, r0, lsr #24
    3340:	64665f5f 	strbtvs	r5, [r6], #-3935	; 0xfffff0a1
    3344:	5f746573 	svcpl	0x00746573
    3348:	6b73616d 	blvs	1cdb904 <_Min_Stack_Size+0x1cdb504>
    334c:	29296e28 	stmdbcs	r9!, {r3, r5, r9, sl, fp, sp, lr}
    3350:	475f5f00 	ldrbmi	r5, [pc, -r0, lsl #30]
    3354:	415f4343 	cmpmi	pc, r3, asr #6
    3358:	494d4f54 	stmdbmi	sp, {r2, r4, r6, r8, r9, sl, fp, lr}^
    335c:	45545f43 	ldrbmi	r5, [r4, #-3907]	; 0xfffff0bd
    3360:	415f5453 	cmpmi	pc, r3, asr r4	; <UNPREDICTABLE>
    3364:	535f444e 	cmppl	pc, #1308622848	; 0x4e000000
    3368:	545f5445 	ldrbpl	r5, [pc], #-1093	; 3370 <_Min_Stack_Size+0x2f70>
    336c:	56455552 			; <UNDEFINED> instruction: 0x56455552
    3370:	31204c41 			; <UNDEFINED> instruction: 0x31204c41
    3374:	5f444600 	svcpl	0x00444600
    3378:	4f52455a 	svcmi	0x0052455a
    337c:	20297028 	eorcs	r7, r9, r8, lsr #32
    3380:	7b206f64 	blvc	81f118 <_Min_Stack_Size+0x81ed18>
    3384:	5f646620 	svcpl	0x00646620
    3388:	20746573 	rsbscs	r6, r4, r3, ror r5
    338c:	3b705f2a 	blcc	1c1b03c <_Min_Stack_Size+0x1c1ac3c>
    3390:	735f5f20 	cmpvc	pc, #32, 30	; 0x80
    3394:	5f657a69 	svcpl	0x00657a69
    3398:	6e5f2074 	mrcvs	0, 2, r2, cr15, cr4, {3}
    339c:	705f203b 	subsvc	r2, pc, fp, lsr r0	; <UNPREDICTABLE>
    33a0:	28203d20 	stmdacs	r0!, {r5, r8, sl, fp, ip, sp}
    33a4:	203b2970 	eorscs	r2, fp, r0, ror r9
    33a8:	3d206e5f 	stccc	14, cr6, [r0, #-380]!	; 0xfffffe84
    33ac:	6f685f20 	svcvs	0x00685f20
    33b0:	6e616d77 	mcrvs	13, 3, r6, cr1, cr7, {3}
    33b4:	44462879 	strbmi	r2, [r6], #-2169	; 0xfffff787
    33b8:	5445535f 	strbpl	r5, [r5], #-863	; 0xfffffca1
    33bc:	455a4953 	ldrbmi	r4, [sl, #-2387]	; 0xfffff6ad
    33c0:	4e5f202c 	cdpmi	0, 5, cr2, cr15, cr12, {1}
    33c4:	49424446 	stmdbmi	r2, {r1, r2, r6, sl, lr}^
    33c8:	3b295354 	blcc	a58120 <_Min_Stack_Size+0xa57d20>
    33cc:	69687720 	stmdbvs	r8!, {r5, r8, r9, sl, ip, sp, lr}^
    33d0:	2820656c 	stmdacs	r0!, {r2, r3, r5, r6, r8, sl, sp, lr}
    33d4:	3e206e5f 	mcrcc	14, 1, r6, cr0, cr15, {2}
    33d8:	20293020 	eorcs	r3, r9, r0, lsr #32
    33dc:	3e2d705f 	mcrcc	0, 1, r7, cr13, cr15, {2}
    33e0:	64665f5f 	strbtvs	r5, [r6], #-3935	; 0xfffff0a1
    33e4:	69625f73 	stmdbvs	r2!, {r0, r1, r4, r5, r6, r8, r9, sl, fp, ip, lr}^
    33e8:	2d5b7374 	ldclcs	3, cr7, [fp, #-464]	; 0xfffffe30
    33ec:	5d6e5f2d 	stclpl	15, cr5, [lr, #-180]!	; 0xffffff4c
    33f0:	30203d20 	eorcc	r3, r0, r0, lsr #26
    33f4:	207d203b 	rsbscs	r2, sp, fp, lsr r0
    33f8:	6c696877 	stclvs	8, cr6, [r9], #-476	; 0xfffffe24
    33fc:	30282065 	eorcc	r2, r8, r5, rrx
    3400:	43520029 	cmpmi	r2, #41	; 0x29
    3404:	50475f43 	subpl	r5, r7, r3, asr #30
    3408:	5f414f49 	svcpl	0x00414f49
    340c:	5f4b4c43 	svcpl	0x004b4c43
    3410:	29284e45 	stmdbcs	r8!, {r0, r2, r6, r9, sl, fp, lr}
    3414:	43522820 	cmpmi	r2, #32, 16	; 0x200000
    3418:	413e2d43 	teqmi	lr, r3, asr #26
    341c:	45324250 	ldrmi	r4, [r2, #-592]!	; 0xfffffdb0
    3420:	7c20524e 	sfmvc	f5, 4, [r0], #-312	; 0xfffffec8
    3424:	2031203d 	eorscs	r2, r1, sp, lsr r0
    3428:	32203c3c 	eorcc	r3, r0, #60, 24	; 0x3c00
    342c:	5f5f0029 	svcpl	0x005f0029
    3430:	64646163 	strbtvs	r6, [r4], #-355	; 0xfffffe9d
    3434:	5f745f72 	svcpl	0x00745f72
    3438:	69666564 	stmdbvs	r6!, {r2, r5, r6, r8, sl, sp, lr}^
    343c:	2064656e 	rsbcs	r6, r4, lr, ror #10
    3440:	4c5f5f00 	mrrcmi	15, 0, r5, pc, cr0	; <UNPREDICTABLE>
    3444:	55434341 	strbpl	r4, [r3, #-833]	; 0xfffffcbf
    3448:	42465f4d 	submi	r5, r6, #308	; 0x134
    344c:	5f5f5449 	svcpl	0x005f5449
    3450:	00313320 	eorseq	r3, r1, r0, lsr #6
    3454:	5f41565f 	svcpl	0x0041565f
    3458:	5453494c 	ldrbpl	r4, [r3], #-2380	; 0xfffff6b4
    345c:	4645445f 			; <UNDEFINED> instruction: 0x4645445f
    3460:	44454e49 	strbmi	r4, [r5], #-3657	; 0xfffff1b7
    3464:	50470020 	subpl	r0, r7, r0, lsr #32
    3468:	505f4f49 	subspl	r4, pc, r9, asr #30
    346c:	525f4e49 	subspl	r4, pc, #1168	; 0x490
    3470:	54455345 	strbpl	r5, [r5], #-837	; 0xfffffcbb
    3474:	46003020 	strmi	r3, [r0], -r0, lsr #32
    3478:	4853414c 	ldmdami	r3, {r2, r3, r6, r8, lr}^
    347c:	6d654d5f 	stclvs	13, cr4, [r5, #-380]!	; 0xfffffe84
    3480:	5f79726f 	svcpl	0x0079726f
    3484:	45534142 	ldrbmi	r4, [r3, #-322]	; 0xfffffebe
    3488:	30783020 	rsbscc	r3, r8, r0, lsr #32
    348c:	30303038 	eorscc	r3, r0, r8, lsr r0
    3490:	55303030 	ldrpl	r3, [r0, #-48]!	; 0xffffffd0
    3494:	5f5f004c 	svcpl	0x005f004c
    3498:	33544c46 	cmpcc	r4, #17920	; 0x4600
    349c:	41485f32 	cmpmi	r8, r2, lsr pc
    34a0:	55515f53 	ldrbpl	r5, [r1, #-3923]	; 0xfffff0ad
    34a4:	5f544549 	svcpl	0x00544549
    34a8:	5f4e414e 	svcpl	0x004e414e
    34ac:	0031205f 	eorseq	r2, r1, pc, asr r0
    34b0:	52415f5f 	subpl	r5, r1, #380	; 0x17c
    34b4:	45465f4d 	strbmi	r5, [r6, #-3917]	; 0xfffff0b3
    34b8:	52555441 	subspl	r5, r5, #1090519040	; 0x41000000
    34bc:	414d5f45 	cmpmi	sp, r5, asr #30
    34c0:	4c554d54 	mrrcmi	13, 5, r4, r5, cr4
    34c4:	544e495f 	strbpl	r4, [lr], #-2399	; 0xfffff6a1
    34c8:	5f5f0038 	svcpl	0x005f0038
    34cc:	4f53424f 	svcmi	0x0053424f
    34d0:	4554454c 	ldrbmi	r4, [r4, #-1356]	; 0xfffffab4
    34d4:	54414d5f 	strbpl	r4, [r1], #-3423	; 0xfffff2a1
    34d8:	5f5f2048 	svcpl	0x005f2048
    34dc:	4f53424f 	svcmi	0x0053424f
    34e0:	4554454c 	ldrbmi	r4, [r4, #-1356]	; 0xfffffab4
    34e4:	54414d5f 	strbpl	r4, [r1], #-3423	; 0xfffff2a1
    34e8:	45445f48 	strbmi	r5, [r4, #-3912]	; 0xfffff0b8
    34ec:	4c554146 	ldfmie	f4, [r5], {70}	; 0x46
    34f0:	5f5f0054 	svcpl	0x005f0054
    34f4:	4c42444c 	cfstrdmi	mvd4, [r2], {76}	; 0x4c
    34f8:	5341485f 	movtpl	r4, #6239	; 0x185f
    34fc:	464e495f 			; <UNDEFINED> instruction: 0x464e495f
    3500:	54494e49 	strbpl	r4, [r9], #-3657	; 0xfffff1b7
    3504:	205f5f59 	subscs	r5, pc, r9, asr pc	; <UNPREDICTABLE>
    3508:	564e0031 			; <UNDEFINED> instruction: 0x564e0031
    350c:	495f4349 	ldmdbmi	pc, {r0, r3, r6, r8, r9, lr}^	; <UNPREDICTABLE>
    3510:	5f375152 	svcpl	0x00375152
    3514:	49545845 	ldmdbmi	r4, {r0, r2, r6, fp, ip, lr}^
    3518:	4e455f31 	mcrmi	15, 2, r5, cr5, cr1, {1}
    351c:	454c4241 	strbmi	r4, [ip, #-577]	; 0xfffffdbf
    3520:	564e2820 	strbpl	r2, [lr], -r0, lsr #16
    3524:	495f4349 	ldmdbmi	pc, {r0, r3, r6, r8, r9, lr}^	; <UNPREDICTABLE>
    3528:	30524553 	subscc	r4, r2, r3, asr r5
    352c:	203d7c20 	eorscs	r7, sp, r0, lsr #24
    3530:	373c3c31 			; <UNDEFINED> instruction: 0x373c3c31
    3534:	49550029 	ldmdbmi	r5, {r0, r3, r5}^
    3538:	465f544e 	ldrbmi	r5, [pc], -lr, asr #8
    353c:	36545341 	ldrbcc	r5, [r4], -r1, asr #6
    3540:	414d5f34 	cmpmi	sp, r4, lsr pc
    3544:	5f282058 	svcpl	0x00282058
    3548:	4e49555f 	mcrmi	5, 2, r5, cr9, cr15, {2}
    354c:	41465f54 	cmpmi	r6, r4, asr pc
    3550:	34365453 	ldrtcc	r5, [r6], #-1107	; 0xfffffbad
    3554:	58414d5f 	stmdapl	r1, {r0, r1, r2, r3, r4, r6, r8, sl, fp, lr}^
    3558:	00295f5f 	eoreq	r5, r9, pc, asr pc
    355c:	41545f5f 	cmpmi	r4, pc, asr pc
    3560:	4942465f 	stmdbmi	r2, {r0, r1, r2, r3, r4, r6, r9, sl, lr}^
    3564:	205f5f54 	subscs	r5, pc, r4, asr pc	; <UNPREDICTABLE>
    3568:	45003336 	strmi	r3, [r0, #-822]	; 0xfffffcca
    356c:	33495458 	movtcc	r5, #37976	; 0x9458
    3570:	5152495f 	cmppl	r2, pc, asr r9
    3574:	5f003920 	svcpl	0x00003920
    3578:	4e454552 	mcrmi	5, 2, r4, cr5, cr2, {2}
    357c:	4e495f54 	mcrmi	15, 2, r5, cr9, cr4, {2}
    3580:	4d5f5449 	cfldrdmi	mvd5, [pc, #-292]	; 3464 <_Min_Stack_Size+0x3064>
    3584:	61762850 	cmnvs	r6, r0, asr r8
    3588:	64202972 	strtvs	r2, [r0], #-2418	; 0xfffff68e
    358c:	207b206f 	rsbscs	r2, fp, pc, rrx
    3590:	75727473 	ldrbvc	r7, [r2, #-1139]!	; 0xfffffb8d
    3594:	5f207463 	svcpl	0x00207463
    3598:	6e656572 	mcrvs	5, 3, r6, cr5, cr2, {3}
    359c:	5f2a2074 	svcpl	0x002a2074
    35a0:	203d2072 	eorscs	r2, sp, r2, ror r0
    35a4:	72617628 	rsbvc	r7, r1, #40, 12	; 0x2800000
    35a8:	5f203b29 	svcpl	0x00203b29
    35ac:	5f3e2d72 	svcpl	0x003e2d72
    35b0:	3e2d706d 	cdpcc	0, 2, cr7, cr13, cr13, {3}
    35b4:	7365725f 	cmnvc	r5, #-268435451	; 0xf0000005
    35b8:	5f746c75 	svcpl	0x00746c75
    35bc:	203d206b 	eorscs	r2, sp, fp, rrx
    35c0:	5f203b30 	svcpl	0x00203b30
    35c4:	5f3e2d72 	svcpl	0x003e2d72
    35c8:	3e2d706d 	cdpcc	0, 2, cr7, cr13, cr13, {3}
    35cc:	7365725f 	cmnvc	r5, #-268435451	; 0xf0000005
    35d0:	20746c75 	rsbscs	r6, r4, r5, ror ip
    35d4:	725f203d 	subsvc	r2, pc, #61	; 0x3d
    35d8:	6d5f3e2d 	ldclvs	14, cr3, [pc, #-180]	; 352c <_Min_Stack_Size+0x312c>
    35dc:	5f3e2d70 	svcpl	0x003e2d70
    35e0:	20733570 	rsbscs	r3, r3, r0, ror r5
    35e4:	4e5f203d 	mrcmi	0, 2, r2, cr15, cr13, {1}
    35e8:	3b4c4c55 	blcc	1316744 <_Min_Stack_Size+0x1316344>
    35ec:	2d725f20 	ldclcs	15, cr5, [r2, #-128]!	; 0xffffff80
    35f0:	706d5f3e 	rsbvc	r5, sp, lr, lsr pc
    35f4:	665f3e2d 	ldrbvs	r3, [pc], -sp, lsr #28
    35f8:	6c656572 	cfstr64vs	mvdx6, [r5], #-456	; 0xfffffe38
    35fc:	20747369 	rsbscs	r7, r4, r9, ror #6
    3600:	4e5f203d 	mrcmi	0, 2, r2, cr15, cr13, {1}
    3604:	3b4c4c55 	blcc	1316760 <_Min_Stack_Size+0x1316360>
    3608:	77207d20 	strvc	r7, [r0, -r0, lsr #26]!
    360c:	656c6968 	strbvs	r6, [ip, #-2408]!	; 0xfffff698
    3610:	29302820 	ldmdbcs	r0!, {r5, fp, sp}
    3614:	44434c00 	strbmi	r4, [r3], #-3072	; 0xfffff400
    3618:	5349445f 	movtpl	r4, #37983	; 0x945f
    361c:	59414c50 	stmdbpl	r1, {r4, r6, sl, fp, lr}^
    3620:	4948535f 	stmdbmi	r8, {r0, r1, r2, r3, r4, r6, r8, r9, ip, lr}^
    3624:	4c5f5446 	cfldrdmi	mvd5, [pc], {70}	; 0x46
    3628:	20544645 	subscs	r4, r4, r5, asr #12
    362c:	38317830 	ldmdacc	r1!, {r4, r5, fp, ip, sp, lr}
    3630:	475f5f00 	ldrbmi	r5, [pc, -r0, lsl #30]
    3634:	5f43554e 	svcpl	0x0043554e
    3638:	4c5f4156 	ldfmie	f4, [pc], {86}	; 0x56
    363c:	20545349 	subscs	r5, r4, r9, asr #6
    3640:	415f5f00 	cmpmi	pc, r0, lsl #30
    3644:	415f4d52 	cmpmi	pc, r2, asr sp	; <UNPREDICTABLE>
    3648:	5f484352 	svcpl	0x00484352
    364c:	5f545845 	svcpl	0x00545845
    3650:	56494449 	strbpl	r4, [r9], -r9, asr #8
    3654:	31205f5f 			; <UNDEFINED> instruction: 0x31205f5f
    3658:	415f5f00 	cmpmi	pc, r0, lsl #30
    365c:	505f4d52 	subspl	r4, pc, r2, asr sp	; <UNPREDICTABLE>
    3660:	31205343 			; <UNDEFINED> instruction: 0x31205343
    3664:	535f5f00 	cmppl	pc, #0, 30
    3668:	20525245 	subscs	r5, r2, r5, asr #4
    366c:	30307830 	eorscc	r7, r0, r0, lsr r8
    3670:	5f003034 	svcpl	0x00003034
    3674:	7275705f 	rsbsvc	r7, r5, #95	; 0x5f
    3678:	5f5f2065 	svcpl	0x005f2065
    367c:	72747461 	rsbsvc	r7, r4, #1627389952	; 0x61000000
    3680:	74756269 	ldrbtvc	r6, [r5], #-617	; 0xfffffd97
    3684:	285f5f65 	ldmdacs	pc, {r0, r2, r5, r6, r8, r9, sl, fp, ip, lr}^	; <UNPREDICTABLE>
    3688:	705f5f28 	subsvc	r5, pc, r8, lsr #30
    368c:	5f657275 	svcpl	0x00657275
    3690:	0029295f 	eoreq	r2, r9, pc, asr r9
    3694:	4349564e 	movtmi	r5, #38478	; 0x964e
    3698:	4553495f 	ldrbmi	r4, [r3, #-2399]	; 0xfffff6a1
    369c:	2a203052 	bcs	80f7ec <_Min_Stack_Size+0x80f3ec>
    36a0:	6c6f7628 	stclvs	6, cr7, [pc], #-160	; 3608 <_Min_Stack_Size+0x3208>
    36a4:	6c697461 	cfstrdvs	mvd7, [r9], #-388	; 0xfffffe7c
    36a8:	69752065 	ldmdbvs	r5!, {r0, r2, r5, r6, sp}^
    36ac:	3233746e 	eorscc	r7, r3, #1845493760	; 0x6e000000
    36b0:	2a20745f 	bcs	820834 <_Min_Stack_Size+0x820434>
    36b4:	564e2829 	strbpl	r2, [lr], -r9, lsr #16
    36b8:	425f4349 	subsmi	r4, pc, #603979777	; 0x24000001
    36bc:	20455341 	subcs	r5, r5, r1, asr #6
    36c0:	7830202b 	ldmdavc	r0!, {r0, r1, r3, r5, sp}
    36c4:	00293030 	eoreq	r3, r9, r0, lsr r0
    36c8:	49535f5f 	ldmdbmi	r3, {r0, r1, r2, r3, r4, r6, r8, r9, sl, fp, ip, lr}^
    36cc:	54415f47 	strbpl	r5, [r1], #-3911	; 0xfffff0b9
    36d0:	43494d4f 	movtmi	r4, #40271	; 0x9d4f
    36d4:	4e494d5f 	mcrmi	13, 2, r4, cr9, cr15, {2}
    36d8:	28205f5f 	stmdacs	r0!, {r0, r1, r2, r3, r4, r6, r8, r9, sl, fp, ip, lr}
    36dc:	535f5f2d 	cmppl	pc, #45, 30	; 0xb4
    36e0:	415f4749 	cmpmi	pc, r9, asr #14
    36e4:	494d4f54 	stmdbmi	sp, {r2, r4, r6, r8, r9, sl, fp, lr}^
    36e8:	414d5f43 	cmpmi	sp, r3, asr #30
    36ec:	205f5f58 	subscs	r5, pc, r8, asr pc	; <UNPREDICTABLE>
    36f0:	2931202d 	ldmdbcs	r1!, {r0, r2, r3, r5, sp}
    36f4:	45525f00 	ldrbmi	r5, [r2, #-3840]	; 0xfffff100
    36f8:	5f544e45 	svcpl	0x00544e45
    36fc:	43454843 	movtmi	r4, #22595	; 0x5843
    3700:	53415f4b 	movtpl	r5, #8011	; 0x1f4b
    3704:	4d495443 	cfstrdmi	mvd5, [r9, #-268]	; 0xfffffef4
    3708:	55425f45 	strbpl	r5, [r2, #-3909]	; 0xfffff0bb
    370c:	61762846 	cmnvs	r6, r6, asr #16
    3710:	5f202972 	svcpl	0x00202972
    3714:	4e454552 	mcrmi	5, 2, r4, cr5, cr2, {2}
    3718:	48435f54 	stmdami	r3, {r2, r4, r6, r8, r9, sl, fp, ip, lr}^
    371c:	284b4345 	stmdacs	fp, {r0, r2, r6, r8, r9, lr}^
    3720:	2c726176 	ldfcse	f6, [r2], #-472	; 0xfffffe28
    3724:	73615f20 	cmnvc	r1, #32, 30	; 0x80
    3728:	6d697463 	cfstrdvs	mvd7, [r9, #-396]!	; 0xfffffe74
    372c:	75625f65 	strbvc	r5, [r2, #-3941]!	; 0xfffff09b
    3730:	63202c66 			; <UNDEFINED> instruction: 0x63202c66
    3734:	20726168 	rsbscs	r6, r2, r8, ror #2
    3738:	5f202c2a 	svcpl	0x00202c2a
    373c:	4e454552 	mcrmi	5, 2, r4, cr5, cr2, {2}
    3740:	53415f54 	movtpl	r5, #8020	; 0x1f54
    3744:	4d495443 	cfstrdmi	mvd5, [r9, #-268]	; 0xfffffef4
    3748:	49535f45 	ldmdbmi	r3, {r0, r2, r6, r8, r9, sl, fp, ip, lr}^
    374c:	202c455a 	eorcs	r4, ip, sl, asr r5
    3750:	736d656d 	cmnvc	sp, #457179136	; 0x1b400000
    3754:	28287465 	stmdacs	r8!, {r0, r2, r5, r6, sl, ip, sp, lr}
    3758:	29726176 	ldmdbcs	r2!, {r1, r2, r4, r5, r6, r8, sp, lr}^
    375c:	615f3e2d 	cmpvs	pc, sp, lsr #28
    3760:	69746373 	ldmdbvs	r4!, {r0, r1, r4, r5, r6, r8, r9, sp, lr}^
    3764:	625f656d 	subsvs	r6, pc, #457179136	; 0x1b400000
    3768:	202c6675 	eorcs	r6, ip, r5, ror r6
    376c:	5f202c30 	svcpl	0x00202c30
    3770:	4e454552 	mcrmi	5, 2, r4, cr5, cr2, {2}
    3774:	53415f54 	movtpl	r5, #8020	; 0x1f54
    3778:	4d495443 	cfstrdmi	mvd5, [r9, #-268]	; 0xfffffef4
    377c:	49535f45 	ldmdbmi	r3, {r0, r2, r6, r8, r9, sl, fp, ip, lr}^
    3780:	2929455a 	stmdbcs	r9!, {r1, r3, r4, r6, r8, sl, lr}
    3784:	49564e00 	ldmdbmi	r6, {r9, sl, fp, lr}^
    3788:	52495f43 	subpl	r5, r9, #268	; 0x10c
    378c:	5f303451 	svcpl	0x00303451
    3790:	49545845 	ldmdbmi	r4, {r0, r2, r6, fp, ip, lr}^
    3794:	315f3031 	cmpcc	pc, r1, lsr r0	; <UNPREDICTABLE>
    3798:	49445f35 	stmdbmi	r4, {r0, r2, r4, r5, r8, r9, sl, fp, ip, lr}^
    379c:	4c424153 	stfmie	f4, [r2], {83}	; 0x53
    37a0:	4e282045 	cdpmi	0, 2, cr2, cr8, cr5, {2}
    37a4:	5f434956 	svcpl	0x00434956
    37a8:	52454349 	subpl	r4, r5, #603979777	; 0x24000001
    37ac:	3d7c2031 	ldclcc	0, cr2, [ip, #-196]!	; 0xffffff3c
    37b0:	3c3c3120 	ldfccs	f3, [ip], #-128	; 0xffffff80
    37b4:	5f002938 	svcpl	0x00002938
    37b8:	5f445342 	svcpl	0x00445342
    37bc:	41484357 	cmpmi	r8, r7, asr r3
    37c0:	5f545f52 	svcpl	0x00545f52
    37c4:	425f0020 	subsmi	r0, pc, #32
    37c8:	49534b4c 	ldmdbmi	r3, {r2, r3, r6, r8, r9, fp, lr}^
    37cc:	545f455a 	ldrbpl	r4, [pc], #-1370	; 37d4 <_Min_Stack_Size+0x33d4>
    37d0:	4345445f 	movtmi	r4, #21599	; 0x545f
    37d4:	4552414c 	ldrbmi	r4, [r2, #-332]	; 0xfffffeb4
    37d8:	47002044 	strmi	r2, [r0, -r4, asr #32]
    37dc:	434f4950 	movtmi	r4, #63824	; 0xf950
    37e0:	47282820 	strmi	r2, [r8, -r0, lsr #16]!
    37e4:	5f4f4950 	svcpl	0x004f4950
    37e8:	292a2074 	stmdbcs	sl!, {r2, r4, r5, r6, sp}
    37ec:	4f495047 	svcmi	0x00495047
    37f0:	41425f43 	cmpmi	r2, r3, asr #30
    37f4:	00294553 	eoreq	r4, r9, r3, asr r5
    37f8:	6f6e5f5f 	svcvs	0x006e5f5f
    37fc:	696e6173 	stmdbvs	lr!, {r0, r1, r4, r5, r6, r8, sp, lr}^
    3800:	657a6974 	ldrbvs	r6, [sl, #-2420]!	; 0xfffff68c
    3804:	72646461 	rsbvc	r6, r4, #1627389952	; 0x61000000
    3808:	20737365 	rsbscs	r7, r3, r5, ror #6
    380c:	45525f00 	ldrbmi	r5, [r2, #-3840]	; 0xfffff100
    3810:	5f544e45 	svcpl	0x00544e45
    3814:	505f504d 	subspl	r5, pc, sp, asr #32
    3818:	70285335 	eorvc	r5, r8, r5, lsr r3
    381c:	20297274 	eorcs	r7, r9, r4, ror r2
    3820:	74702828 	ldrbtvc	r2, [r0], #-2088	; 0xfffff7d8
    3824:	3e2d2972 			; <UNDEFINED> instruction: 0x3e2d2972
    3828:	2d706d5f 	ldclcs	13, cr6, [r0, #-380]!	; 0xfffffe84
    382c:	35705f3e 	ldrbcc	r5, [r0, #-3902]!	; 0xfffff0c2
    3830:	53002973 	movwpl	r2, #2419	; 0x973
    3834:	415f4749 	cmpmi	pc, r9, asr #14
    3838:	494d4f54 	stmdbmi	sp, {r2, r4, r6, r8, r9, sl, fp, lr}^
    383c:	494d5f43 	stmdbmi	sp, {r0, r1, r6, r8, r9, sl, fp, ip, lr}^
    3840:	2d28204e 	stccs	0, cr2, [r8, #-312]!	; 0xfffffec8
    3844:	54535f5f 	ldrbpl	r5, [r3], #-3935	; 0xfffff0a1
    3848:	544e4944 	strbpl	r4, [lr], #-2372	; 0xfffff6bc
    384c:	5058455f 	subspl	r4, r8, pc, asr r5
    3850:	544e4928 	strbpl	r4, [lr], #-2344	; 0xfffff6d8
    3854:	58414d5f 	stmdapl	r1, {r0, r1, r2, r3, r4, r6, r8, sl, fp, lr}^
    3858:	202d2029 	eorcs	r2, sp, r9, lsr #32
    385c:	55002931 	strpl	r2, [r0, #-2353]	; 0xfffff6cf
    3860:	31544e49 	cmpcc	r4, r9, asr #28
    3864:	28435f36 	stmdacs	r3, {r1, r2, r4, r5, r8, r9, sl, fp, ip, lr}^
    3868:	5f202978 	svcpl	0x00202978
    386c:	4e49555f 	mcrmi	5, 2, r5, cr9, cr15, {2}
    3870:	5f363154 	svcpl	0x00363154
    3874:	29782843 	ldmdbcs	r8!, {r0, r1, r6, fp, sp}^
    3878:	4e495f00 	cdpmi	15, 4, cr5, cr9, cr0, {0}
    387c:	5f363154 	svcpl	0x00363154
    3880:	45445f54 	strbmi	r5, [r4, #-3924]	; 0xfffff0ac
    3884:	52414c43 	subpl	r4, r1, #17152	; 0x4300
    3888:	00204445 	eoreq	r4, r0, r5, asr #8
    388c:	4253465f 	subsmi	r4, r3, #99614720	; 0x5f00000
    3890:	4e434b4c 	vmlsmi.f64	d20, d3, d12
    3894:	5f545f54 	svcpl	0x00545f54
    3898:	4c434544 	cfstr64mi	mvdx4, [r3], {68}	; 0x44
    389c:	44455241 	strbmi	r5, [r5], #-577	; 0xfffffdbf
    38a0:	5f5f0020 	svcpl	0x005f0020
    38a4:	5f544e49 	svcpl	0x00544e49
    38a8:	5341454c 	movtpl	r4, #5452	; 0x154c
    38ac:	5f363154 	svcpl	0x00363154
    38b0:	54444957 	strbpl	r4, [r4], #-2391	; 0xfffff6a9
    38b4:	205f5f48 	subscs	r5, pc, r8, asr #30
    38b8:	5f003631 	svcpl	0x00003631
    38bc:	4345445f 	movtmi	r4, #21599	; 0x545f
    38c0:	4156455f 	cmpmi	r6, pc, asr r5
    38c4:	454d5f4c 	strbmi	r5, [sp, #-3916]	; 0xfffff0b4
    38c8:	444f4854 	strbmi	r4, [pc], #-2132	; 38d0 <_Min_Stack_Size+0x34d0>
    38cc:	32205f5f 	eorcc	r5, r0, #380	; 0x17c
    38d0:	415f5f00 	cmpmi	pc, r0, lsl #30
    38d4:	465f4d52 			; <UNDEFINED> instruction: 0x465f4d52
    38d8:	55544145 	ldrbpl	r4, [r4, #-325]	; 0xfffffebb
    38dc:	465f4552 			; <UNDEFINED> instruction: 0x465f4552
    38e0:	5f363150 	svcpl	0x00363150
    38e4:	004c4d46 	subeq	r4, ip, r6, asr #26
    38e8:	4c535f5f 	mrrcmi	15, 5, r5, r3, cr15
    38ec:	30204642 	eorcc	r4, r0, r2, asr #12
    38f0:	30303078 	eorscc	r3, r0, r8, ror r0
    38f4:	564e0031 			; <UNDEFINED> instruction: 0x564e0031
    38f8:	495f4349 	ldmdbmi	pc, {r0, r3, r6, r8, r9, lr}^	; <UNPREDICTABLE>
    38fc:	5f365152 	svcpl	0x00365152
    3900:	49545845 	ldmdbmi	r4, {r0, r2, r6, fp, ip, lr}^
    3904:	4e455f30 	mcrmi	15, 2, r5, cr5, cr0, {1}
    3908:	454c4241 	strbmi	r4, [ip, #-577]	; 0xfffffdbf
    390c:	564e2820 	strbpl	r2, [lr], -r0, lsr #16
    3910:	495f4349 	ldmdbmi	pc, {r0, r3, r6, r8, r9, lr}^	; <UNPREDICTABLE>
    3914:	30524553 	subscc	r4, r2, r3, asr r5
    3918:	203d7c20 	eorscs	r7, sp, r0, lsr #24
    391c:	363c3c31 			; <UNDEFINED> instruction: 0x363c3c31
    3920:	5f5f0029 	svcpl	0x005f0029
    3924:	5f414855 	svcpl	0x00414855
    3928:	54494249 	strbpl	r4, [r9], #-585	; 0xfffffdb7
    392c:	38205f5f 	stmdacc	r0!, {r0, r1, r2, r3, r4, r6, r8, r9, sl, fp, ip, lr}
    3930:	725f5f00 	subsvc	r5, pc, #0, 30
    3934:	72747365 	rsbsvc	r7, r4, #-1811939327	; 0x94000001
    3938:	20746369 	rsbscs	r6, r4, r9, ror #6
    393c:	74736572 	ldrbtvc	r6, [r3], #-1394	; 0xfffffa8e
    3940:	74636972 	strbtvc	r6, [r3], #-2418	; 0xfffff68e
    3944:	555f5f00 	ldrbpl	r5, [pc, #-3840]	; 2a4c <_Min_Stack_Size+0x264c>
    3948:	41524653 	cmpmi	r2, r3, asr r6
    394c:	455f5443 	ldrbmi	r5, [pc, #-1091]	; 3511 <_Min_Stack_Size+0x3111>
    3950:	4c495350 	mcrrmi	3, 5, r5, r9, cr0
    3954:	5f5f4e4f 	svcpl	0x005f4e4f
    3958:	31783020 	cmncc	r8, r0, lsr #32
    395c:	55382d50 	ldrpl	r2, [r8, #-3408]!	; 0xfffff2b0
    3960:	4e005248 	cdpmi	2, 0, cr5, cr0, cr8, {2}
    3964:	204c4c55 	subcs	r4, ip, r5, asr ip
    3968:	6f762828 	svcvs	0x00762828
    396c:	2a206469 	bcs	81cb18 <_Min_Stack_Size+0x81c718>
    3970:	00293029 	eoreq	r3, r9, r9, lsr #32
    3974:	73615f5f 	cmnvc	r1, #380	; 0x17c
    3978:	74726573 	ldrbtvc	r6, [r2], #-1395	; 0xfffffa8d
    397c:	78655f73 	stmdavc	r5!, {r0, r1, r4, r5, r6, r8, r9, sl, fp, ip, lr}^
    3980:	73756c63 	cmnvc	r5, #25344	; 0x6300
    3984:	28657669 	stmdacs	r5!, {r0, r3, r5, r6, r9, sl, ip, sp, lr}^
    3988:	292e2e2e 	stmdbcs	lr!, {r1, r2, r3, r5, r9, sl, fp, sp}
    398c:	6c5f5f20 	mrrcvs	15, 2, r5, pc, cr0	; <UNPREDICTABLE>
    3990:	5f6b636f 	svcpl	0x006b636f
    3994:	6f6e6e61 	svcvs	0x006e6e61
    3998:	65746174 	ldrbvs	r6, [r4, #-372]!	; 0xfffffe8c
    399c:	73736128 	cmnvc	r3, #40, 2
    39a0:	5f747265 	svcpl	0x00747265
    39a4:	6c637865 	stclvs	8, cr7, [r3], #-404	; 0xfffffe6c
    39a8:	76697375 			; <UNDEFINED> instruction: 0x76697375
    39ac:	6f6c5f65 	svcvs	0x006c5f65
    39b0:	5f286b63 	svcpl	0x00286b63
    39b4:	5f41565f 	svcpl	0x0041565f
    39b8:	53475241 	movtpl	r5, #29249	; 0x7241
    39bc:	29295f5f 	stmdbcs	r9!, {r0, r1, r2, r3, r4, r6, r8, r9, sl, fp, ip, lr}
    39c0:	73616600 	cmnvc	r1, #0, 12
    39c4:	75705f74 	ldrbvc	r5, [r0, #-3956]!	; 0xfffff08c
    39c8:	78286374 	stmdavc	r8!, {r2, r4, r5, r6, r8, r9, sp, lr}
    39cc:	2029702c 	eorcs	r7, r9, ip, lsr #32
    39d0:	282d2d28 	stmdacs	sp!, {r3, r5, r8, sl, fp, sp}
    39d4:	3e2d2970 			; <UNDEFINED> instruction: 0x3e2d2970
    39d8:	3c20775f 	stccc	7, cr7, [r0], #-380	; 0xfffffe84
    39dc:	3f203020 	svccc	0x00203020
    39e0:	735f5f20 	cmpvc	pc, #32, 30	; 0x80
    39e4:	66756277 			; <UNDEFINED> instruction: 0x66756277
    39e8:	5f28725f 	svcpl	0x0028725f
    39ec:	4e454552 	mcrmi	5, 2, r4, cr5, cr2, {2}
    39f0:	28202c54 	stmdacs	r0!, {r2, r4, r6, sl, fp, sp}
    39f4:	29746e69 	ldmdbcs	r4!, {r0, r3, r5, r6, r9, sl, fp, sp, lr}^
    39f8:	2c297828 	stccs	8, cr7, [r9], #-160	; 0xffffff60
    39fc:	20297020 	eorcs	r7, r9, r0, lsr #32
    3a00:	45203d3d 	strmi	r3, [r0, #-3389]!	; 0xfffff2c3
    3a04:	3a20464f 	bcc	815348 <_Min_Stack_Size+0x814f48>
    3a08:	282a2820 	stmdacs	sl!, {r5, fp, sp}
    3a0c:	3e2d2970 			; <UNDEFINED> instruction: 0x3e2d2970
    3a10:	3d20705f 	stccc	0, cr7, [r0, #-380]!	; 0xfffffe84
    3a14:	29782820 	ldmdbcs	r8!, {r5, fp, sp}^
    3a18:	7028202c 	eorvc	r2, r8, ip, lsr #32
    3a1c:	5f3e2d29 	svcpl	0x003e2d29
    3a20:	2c2b2b70 			; <UNDEFINED> instruction: 0x2c2b2b70
    3a24:	29293020 	stmdbcs	r9!, {r5, ip, sp}
    3a28:	64747300 	ldrbtvs	r7, [r4], #-768	; 0xfffffd00
    3a2c:	20727265 	rsbscs	r7, r2, r5, ror #4
    3a30:	45525f28 	ldrbmi	r5, [r2, #-3880]	; 0xfffff0d8
    3a34:	2d544e45 	ldclcs	14, cr4, [r4, #-276]	; 0xfffffeec
    3a38:	74735f3e 	ldrbtvc	r5, [r3], #-3902	; 0xfffff0c2
    3a3c:	72726564 	rsbsvc	r6, r2, #100, 10	; 0x19000000
    3a40:	5f5f0029 	svcpl	0x005f0029
    3a44:	746e695f 	strbtvc	r6, [lr], #-2399	; 0xfffff6a1
    3a48:	61656c5f 	cmnvs	r5, pc, asr ip
    3a4c:	32337473 	eorscc	r7, r3, #1929379840	; 0x73000000
    3a50:	645f745f 	ldrbvs	r7, [pc], #-1119	; 3a58 <_Min_Stack_Size+0x3658>
    3a54:	6e696665 	cdpvs	6, 6, cr6, cr9, cr5, {3}
    3a58:	31206465 			; <UNDEFINED> instruction: 0x31206465
    3a5c:	4c5f5f00 	mrrcmi	15, 0, r5, pc, cr0	; <UNPREDICTABLE>
    3a60:	4343414c 	movtmi	r4, #12620	; 0x314c
    3a64:	4d5f4d55 	ldclmi	13, cr4, [pc, #-340]	; 3918 <_Min_Stack_Size+0x3518>
    3a68:	5f5f5841 	svcpl	0x005f5841
    3a6c:	37583020 	ldrbcc	r3, [r8, -r0, lsr #32]
    3a70:	46464646 	strbmi	r4, [r6], -r6, asr #12
    3a74:	46464646 	strbmi	r4, [r6], -r6, asr #12
    3a78:	46464646 	strbmi	r4, [r6], -r6, asr #12
    3a7c:	50464646 	subpl	r4, r6, r6, asr #12
    3a80:	4c31332d 	ldcmi	3, cr3, [r1], #-180	; 0xffffff4c
    3a84:	5f004b4c 	svcpl	0x00004b4c
    3a88:	65656e5f 	strbvs	r6, [r5, #-3679]!	; 0xfffff1a1
    3a8c:	554e5f64 	strbpl	r5, [lr, #-3940]	; 0xfffff09c
    3a90:	5f004c4c 	svcpl	0x00004c4c
    3a94:	4c4e535f 	mcrrmi	3, 5, r5, lr, cr15
    3a98:	7830204b 	ldmdavc	r0!, {r0, r1, r3, r6, sp}
    3a9c:	31303030 	teqcc	r0, r0, lsr r0
    3aa0:	555f5f00 	ldrbpl	r5, [pc, #-3840]	; 2ba8 <_Min_Stack_Size+0x27a8>
    3aa4:	5f524553 	svcpl	0x00524553
    3aa8:	4542414c 	strbmi	r4, [r2, #-332]	; 0xfffffeb4
    3aac:	52505f4c 	subspl	r5, r0, #76, 30	; 0x130
    3ab0:	58494645 	stmdapl	r9, {r0, r2, r6, r9, sl, lr}^
    3ab4:	00205f5f 	eoreq	r5, r0, pc, asr pc
    3ab8:	49555f5f 	ldmdbmi	r5, {r0, r1, r2, r3, r4, r6, r8, r9, sl, fp, ip, lr}^
    3abc:	3436544e 	ldrtcc	r5, [r6], #-1102	; 0xfffffbb2
    3ac0:	58414d5f 	stmdapl	r1, {r0, r1, r2, r3, r4, r6, r8, sl, fp, lr}^
    3ac4:	30205f5f 	eorcc	r5, r0, pc, asr pc
    3ac8:	66666678 			; <UNDEFINED> instruction: 0x66666678
    3acc:	66666666 	strbtvs	r6, [r6], -r6, ror #12
    3ad0:	66666666 	strbtvs	r6, [r6], -r6, ror #12
    3ad4:	66666666 	strbtvs	r6, [r6], -r6, ror #12
    3ad8:	4c4c5566 	cfstr64mi	mvdx5, [ip], {102}	; 0x66
    3adc:	555f5f00 	ldrbpl	r5, [pc, #-3840]	; 2be4 <_Min_Stack_Size+0x27e4>
    3ae0:	33544e49 	cmpcc	r4, #1168	; 0x490
    3ae4:	414d5f32 	cmpmi	sp, r2, lsr pc
    3ae8:	205f5f58 	subscs	r5, pc, r8, asr pc	; <UNPREDICTABLE>
    3aec:	66667830 			; <UNDEFINED> instruction: 0x66667830
    3af0:	66666666 	strbtvs	r6, [r6], -r6, ror #12
    3af4:	4c556666 	mrrcmi	6, 6, r6, r5, cr6
    3af8:	544e4900 	strbpl	r4, [lr], #-2304	; 0xfffff700
    3afc:	435f3436 	cmpmi	pc, #905969664	; 0x36000000
    3b00:	20297828 	eorcs	r7, r9, r8, lsr #16
    3b04:	4e495f5f 	mcrmi	15, 2, r5, cr9, cr15, {2}
    3b08:	5f343654 	svcpl	0x00343654
    3b0c:	29782843 	ldmdbcs	r8!, {r0, r1, r6, fp, sp}^
    3b10:	54415f00 	strbpl	r5, [r1], #-3840	; 0xfffff100
    3b14:	454c4946 	strbmi	r4, [ip, #-2374]	; 0xfffff6ba
    3b18:	554f535f 	strbpl	r5, [pc, #-863]	; 37c1 <_Min_Stack_Size+0x33c1>
    3b1c:	00454352 	subeq	r4, r5, r2, asr r3
    3b20:	38544e49 	ldmdacc	r4, {r0, r3, r6, r9, sl, fp, lr}^
    3b24:	4e494d5f 	mcrmi	13, 2, r4, cr9, cr15, {2}
    3b28:	5f2d2820 	svcpl	0x002d2820
    3b2c:	544e495f 	strbpl	r4, [lr], #-2399	; 0xfffff6a1
    3b30:	414d5f38 	cmpmi	sp, r8, lsr pc
    3b34:	205f5f58 	subscs	r5, pc, r8, asr pc	; <UNPREDICTABLE>
    3b38:	2931202d 	ldmdbcs	r1!, {r0, r2, r3, r5, sp}
    3b3c:	535f5f00 	cmppl	pc, #0, 30
    3b40:	5f434454 	svcpl	0x00434454
    3b44:	53524556 	cmppl	r2, #360710144	; 0x15800000
    3b48:	5f4e4f49 	svcpl	0x004e4f49
    3b4c:	3032205f 	eorscc	r2, r2, pc, asr r0
    3b50:	32313131 	eorscc	r3, r1, #1073741836	; 0x4000000c
    3b54:	5f5f004c 	svcpl	0x005f004c
    3b58:	6c6c616d 	stfvse	f6, [ip], #-436	; 0xfffffe4c
    3b5c:	6c5f636f 	mrrcvs	3, 6, r6, pc, cr15	; <UNPREDICTABLE>
    3b60:	20656b69 	rsbcs	r6, r5, r9, ror #22
    3b64:	74615f5f 	strbtvc	r5, [r1], #-3935	; 0xfffff0a1
    3b68:	62697274 	rsbvs	r7, r9, #116, 4	; 0x40000007
    3b6c:	5f657475 	svcpl	0x00657475
    3b70:	5f28285f 	svcpl	0x0028285f
    3b74:	6c616d5f 	stclvs	13, cr6, [r1], #-380	; 0xfffffe84
    3b78:	5f636f6c 	svcpl	0x00636f6c
    3b7c:	0029295f 	eoreq	r2, r9, pc, asr r9
    3b80:	72745f5f 	rsbsvc	r5, r4, #380	; 0x17c
    3b84:	636f6c79 	cmnvs	pc, #30976	; 0x7900
    3b88:	735f736b 	cmpvc	pc, #-1409286143	; 0xac000001
    3b8c:	65726168 	ldrbvs	r6, [r2, #-360]!	; 0xfffffe98
    3b90:	2e2e2864 	cdpcs	8, 2, cr2, cr14, cr4, {3}
    3b94:	5f20292e 	svcpl	0x0020292e
    3b98:	636f6c5f 	cmnvs	pc, #24320	; 0x5f00
    3b9c:	6e615f6b 	cdpvs	15, 6, cr5, cr1, cr11, {3}
    3ba0:	61746f6e 	cmnvs	r4, lr, ror #30
    3ba4:	73286574 			; <UNDEFINED> instruction: 0x73286574
    3ba8:	65726168 	ldrbvs	r6, [r2, #-360]!	; 0xfffffe98
    3bac:	72745f64 	rsbsvc	r5, r4, #100, 30	; 0x190
    3bb0:	636f6c79 	cmnvs	pc, #30976	; 0x7900
    3bb4:	75665f6b 	strbvc	r5, [r6, #-3947]!	; 0xfffff095
    3bb8:	6974636e 	ldmdbvs	r4!, {r1, r2, r3, r5, r6, r8, r9, sp, lr}^
    3bbc:	5f286e6f 	svcpl	0x00286e6f
    3bc0:	5f41565f 	svcpl	0x0041565f
    3bc4:	53475241 	movtpl	r5, #29249	; 0x7241
    3bc8:	29295f5f 	stmdbcs	r9!, {r0, r1, r2, r3, r4, r6, r8, r9, sl, fp, ip, lr}
    3bcc:	495f5f00 	ldmdbmi	pc, {r8, r9, sl, fp, ip, lr}^	; <UNPREDICTABLE>
    3bd0:	4c5f544e 	cfldrdmi	mvd5, [pc], {78}	; 0x4e
    3bd4:	54534145 	ldrbpl	r4, [r3], #-325	; 0xfffffebb
    3bd8:	414d5f38 	cmpmi	sp, r8, lsr pc
    3bdc:	205f5f58 	subscs	r5, pc, r8, asr pc	; <UNPREDICTABLE>
    3be0:	66377830 			; <UNDEFINED> instruction: 0x66377830
    3be4:	475f5f00 	ldrbmi	r5, [pc, -r0, lsl #30]
    3be8:	415f4343 	cmpmi	pc, r3, asr #6
    3bec:	494d4f54 	stmdbmi	sp, {r2, r4, r6, r8, r9, sl, fp, lr}^
    3bf0:	4f505f43 	svcmi	0x00505f43
    3bf4:	45544e49 	ldrbmi	r4, [r4, #-3657]	; 0xfffff1b7
    3bf8:	4f4c5f52 	svcmi	0x004c5f52
    3bfc:	465f4b43 	ldrbmi	r4, [pc], -r3, asr #22
    3c00:	20454552 	subcs	r4, r5, r2, asr r5
    3c04:	5f5f0032 	svcpl	0x005f0032
    3c08:	5f4d5241 	svcpl	0x004d5241
    3c0c:	54414546 	strbpl	r4, [r1], #-1350	; 0xfffffaba
    3c10:	5f455255 	svcpl	0x00455255
    3c14:	54494251 	strbpl	r4, [r9], #-593	; 0xfffffdaf
    3c18:	5f003120 	svcpl	0x00003120
    3c1c:	4d52415f 	ldfmie	f4, [r2, #-380]	; 0xfffffe84
    3c20:	4145465f 	cmpmi	r5, pc, asr r6
    3c24:	45525554 	ldrbmi	r5, [r2, #-1364]	; 0xfffffaac
    3c28:	5a4c435f 	bpl	13149ac <_Min_Stack_Size+0x13145ac>
    3c2c:	5f003120 	svcpl	0x00003120
    3c30:	4f54415f 	svcmi	0x0054415f
    3c34:	5f43494d 	svcpl	0x0043494d
    3c38:	55514341 	ldrbpl	r4, [r1, #-833]	; 0xfffffcbf
    3c3c:	20455249 	subcs	r5, r5, r9, asr #4
    3c40:	5f5f0032 	svcpl	0x005f0032
    3c44:	5f4d5241 	svcpl	0x004d5241
    3c48:	54414546 	strbpl	r4, [r1], #-1350	; 0xfffffaba
    3c4c:	5f455255 	svcpl	0x00455255
    3c50:	504d4f43 	subpl	r4, sp, r3, asr #30
    3c54:	0058454c 	subseq	r4, r8, ip, asr #10
    3c58:	6f6c5f5f 	svcvs	0x006c5f5f
    3c5c:	5f736b63 	svcpl	0x00736b63
    3c60:	72616873 	rsbvc	r6, r1, #7536640	; 0x730000
    3c64:	2e286465 	cdpcs	4, 2, cr6, cr8, cr5, {3}
    3c68:	20292e2e 	eorcs	r2, r9, lr, lsr #28
    3c6c:	6f6c5f5f 	svcvs	0x006c5f5f
    3c70:	615f6b63 	cmpvs	pc, r3, ror #22
    3c74:	746f6e6e 	strbtvc	r6, [pc], #-3694	; 3c7c <_Min_Stack_Size+0x387c>
    3c78:	28657461 	stmdacs	r5!, {r0, r5, r6, sl, ip, sp, lr}^
    3c7c:	72616873 	rsbvc	r6, r1, #7536640	; 0x730000
    3c80:	6c5f6465 	cfldrdvs	mvd6, [pc], {101}	; 0x65
    3c84:	5f6b636f 	svcpl	0x006b636f
    3c88:	636e7566 	cmnvs	lr, #427819008	; 0x19800000
    3c8c:	6e6f6974 			; <UNDEFINED> instruction: 0x6e6f6974
    3c90:	565f5f28 	ldrbpl	r5, [pc], -r8, lsr #30
    3c94:	52415f41 	subpl	r5, r1, #260	; 0x104
    3c98:	5f5f5347 	svcpl	0x005f5347
    3c9c:	5f002929 	svcpl	0x00002929
    3ca0:	544e495f 	strbpl	r4, [lr], #-2399	; 0xfffff6a1
    3ca4:	22203631 	eorcs	r3, r0, #51380224	; 0x3100000
    3ca8:	75002268 	strvc	r2, [r0, #-616]	; 0xfffffd98
    3cac:	6769736e 	strbvs	r7, [r9, -lr, ror #6]!
    3cb0:	2064656e 	rsbcs	r6, r4, lr, ror #10
    3cb4:	6e676973 			; <UNDEFINED> instruction: 0x6e676973
    3cb8:	5f006465 	svcpl	0x00006465
    3cbc:	50544e49 	subspl	r4, r4, r9, asr #28
    3cc0:	455f5254 	ldrbmi	r5, [pc, #-596]	; 3a74 <_Min_Stack_Size+0x3674>
    3cc4:	4e495f51 	mcrmi	15, 2, r5, cr9, cr1, {2}
    3cc8:	5f002054 	svcpl	0x00002054
    3ccc:	4d52415f 	ldfmie	f4, [r2, #-380]	; 0xfffffe84
    3cd0:	5a49535f 	bpl	1258a54 <_Min_Stack_Size+0x1258654>
    3cd4:	5f464f45 	svcpl	0x00464f45
    3cd8:	41484357 	cmpmi	r8, r7, asr r3
    3cdc:	20545f52 	subscs	r5, r4, r2, asr pc
    3ce0:	5f5f0034 	svcpl	0x005f0034
    3ce4:	33544c46 	cmpcc	r4, #17920	; 0x4600
    3ce8:	4d5f5832 	ldclmi	8, cr5, [pc, #-200]	; 3c28 <_Min_Stack_Size+0x3828>
    3cec:	455f5841 	ldrbmi	r5, [pc, #-2113]	; 34b3 <_Min_Stack_Size+0x30b3>
    3cf0:	5f5f5058 	svcpl	0x005f5058
    3cf4:	32303120 	eorscc	r3, r0, #32, 2
    3cf8:	434c0034 	movtmi	r0, #49204	; 0xc034
    3cfc:	4e455f44 	cdpmi	15, 4, cr5, cr5, cr4, {2}
    3d00:	454c4241 	strbmi	r4, [ip, #-577]	; 0xfffffdbf
    3d04:	47003120 	strmi	r3, [r0, -r0, lsr #2]
    3d08:	5f4f4950 	svcpl	0x004f4950
    3d0c:	45444f4d 	strbmi	r4, [r4, #-3917]	; 0xfffff0b3
    3d10:	616e415f 	cmnvs	lr, pc, asr r1
    3d14:	20676f6c 	rsbcs	r6, r7, ip, ror #30
    3d18:	30307830 	eorscc	r7, r0, r0, lsr r8
    3d1c:	30303030 	eorscc	r3, r0, r0, lsr r0
    3d20:	00753030 	rsbseq	r3, r5, r0, lsr r0
    3d24:	454c4946 	strbmi	r4, [ip, #-2374]	; 0xfffff6ba
    3d28:	454d414e 	strbmi	r4, [sp, #-334]	; 0xfffffeb2
    3d2c:	58414d5f 	stmdapl	r1, {r0, r1, r2, r3, r4, r6, r8, sl, fp, lr}^
    3d30:	32303120 	eorscc	r3, r0, #32, 2
    3d34:	5f5f0034 	svcpl	0x005f0034
    3d38:	544e4955 	strbpl	r4, [lr], #-2389	; 0xfffff6ab
    3d3c:	41454c5f 	cmpmi	r5, pc, asr ip
    3d40:	32335453 	eorscc	r5, r3, #1392508928	; 0x53000000
    3d44:	58414d5f 	stmdapl	r1, {r0, r1, r2, r3, r4, r6, r8, sl, fp, lr}^
    3d48:	30205f5f 	eorcc	r5, r0, pc, asr pc
    3d4c:	66666678 			; <UNDEFINED> instruction: 0x66666678
    3d50:	66666666 	strbtvs	r6, [r6], -r6, ror #12
    3d54:	004c5566 	subeq	r5, ip, r6, ror #10
    3d58:	42445f5f 	submi	r5, r4, #380	; 0x17c
    3d5c:	50455f4c 	subpl	r5, r5, ip, asr #30
    3d60:	4f4c4953 	svcmi	0x004c4953
    3d64:	205f5f4e 	subscs	r5, pc, lr, asr #30
    3d68:	6f642828 	svcvs	0x00642828
    3d6c:	656c6275 	strbvs	r6, [ip, #-629]!	; 0xfffffd8b
    3d70:	322e3229 	eorcc	r3, lr, #-1879048190	; 0x90000002
    3d74:	34343032 	ldrtcc	r3, [r4], #-50	; 0xffffffce
    3d78:	39343036 	ldmdbcc	r4!, {r1, r2, r4, r5, ip, sp}
    3d7c:	33303532 	teqcc	r0, #209715200	; 0xc800000
    3d80:	65313331 	ldrvs	r3, [r1, #-817]!	; 0xfffffccf
    3d84:	4c36312d 	ldfmis	f3, [r6], #-180	; 0xffffff4c
    3d88:	434c0029 	movtmi	r0, #49193	; 0xc029
    3d8c:	45525f44 	ldrbmi	r5, [r2, #-3908]	; 0xfffff0bc
    3d90:	4e525554 	mrcmi	5, 2, r5, cr2, cr4, {2}
    3d94:	4d4f485f 	stclmi	8, cr4, [pc, #-380]	; 3c20 <_Min_Stack_Size+0x3820>
    3d98:	78302045 	ldmdavc	r0!, {r0, r2, r6, sp}
    3d9c:	5f003230 	svcpl	0x00003230
    3da0:	52464c5f 	subpl	r4, r6, #24320	; 0x5f00
    3da4:	5f544341 	svcpl	0x00544341
    3da8:	5f4e494d 	svcpl	0x004e494d
    3dac:	2d28205f 	stccs	0, cr2, [r8, #-380]!	; 0xfffffe84
    3db0:	4c352e30 	ldcmi	14, cr2, [r5], #-192	; 0xffffff40
    3db4:	2e302d52 	mrccs	13, 1, r2, cr0, cr2, {2}
    3db8:	29524c35 	ldmdbcs	r2, {r0, r2, r4, r5, sl, fp, lr}^
    3dbc:	415f5f00 	cmpmi	pc, r0, lsl #30
    3dc0:	494d4f54 	stmdbmi	sp, {r2, r4, r6, r8, r9, sl, fp, lr}^
    3dc4:	4f435f43 	svcmi	0x00435f43
    3dc8:	4d55534e 	ldclmi	3, cr5, [r5, #-312]	; 0xfffffec8
    3dcc:	00312045 	eorseq	r2, r1, r5, asr #32
    3dd0:	4e495f5f 	mcrmi	15, 2, r5, cr9, cr15, {2}
    3dd4:	454c5f54 	strbmi	r5, [ip, #-3924]	; 0xfffff0ac
    3dd8:	36545341 	ldrbcc	r5, [r4], -r1, asr #6
    3ddc:	49575f34 	ldmdbmi	r7, {r2, r4, r5, r8, r9, sl, fp, ip, lr}^
    3de0:	5f485444 	svcpl	0x00485444
    3de4:	3436205f 	ldrtcc	r2, [r6], #-95	; 0xffffffa1
    3de8:	465f5f00 	ldrbmi	r5, [pc], -r0, lsl #30
    3dec:	485f544c 	ldmdami	pc, {r2, r3, r6, sl, ip, lr}^	; <UNPREDICTABLE>
    3df0:	495f5341 	ldmdbmi	pc, {r0, r6, r8, r9, ip, lr}^	; <UNPREDICTABLE>
    3df4:	4e49464e 	cdpmi	6, 4, cr4, cr9, cr14, {2}
    3df8:	5f595449 	svcpl	0x00595449
    3dfc:	0031205f 	eorseq	r2, r1, pc, asr r0
    3e00:	4545525f 	strbmi	r5, [r5, #-607]	; 0xfffffda1
    3e04:	475f544e 	ldrbmi	r5, [pc, -lr, asr #8]
    3e08:	41424f4c 	cmpmi	r2, ip, asr #30
    3e0c:	54415f4c 	strbpl	r5, [r1], #-3916	; 0xfffff0b4
    3e10:	54495845 	strbpl	r5, [r9], #-2117	; 0xfffff7bb
    3e14:	5f003120 	svcpl	0x00003120
    3e18:	6d776f68 	ldclvs	15, cr6, [r7, #-416]!	; 0xfffffe60
    3e1c:	28796e61 	ldmdacs	r9!, {r0, r5, r6, r9, sl, fp, sp, lr}^
    3e20:	29792c78 	ldmdbcs	r9!, {r3, r4, r5, r6, sl, fp, sp}^
    3e24:	28282820 	stmdacs	r8!, {r5, fp, sp}
    3e28:	2b202978 	blcs	80e410 <_Min_Stack_Size+0x80e010>
    3e2c:	79282820 	stmdbvc	r8!, {r5, fp, sp}
    3e30:	202d2029 	eorcs	r2, sp, r9, lsr #32
    3e34:	20292931 	eorcs	r2, r9, r1, lsr r9
    3e38:	7928202f 	stmdbvc	r8!, {r0, r1, r2, r3, r5, sp}
    3e3c:	5f002929 	svcpl	0x00002929
    3e40:	5a495353 	bpl	1258b94 <_Min_Stack_Size+0x1258794>
    3e44:	5f545f45 	svcpl	0x00545f45
    3e48:	4c434544 	cfstr64mi	mvdx4, [r3], {68}	; 0x44
    3e4c:	44455241 	strbmi	r5, [r5], #-577	; 0xfffffdbf
    3e50:	5f5f0020 	svcpl	0x005f0020
    3e54:	55434341 	strbpl	r4, [r3, #-833]	; 0xfffffcbf
    3e58:	414d5f4d 	cmpmi	sp, sp, asr #30
    3e5c:	205f5f58 	subscs	r5, pc, r8, asr pc	; <UNPREDICTABLE>
    3e60:	46375830 			; <UNDEFINED> instruction: 0x46375830
    3e64:	46464646 	strbmi	r4, [r6], -r6, asr #12
    3e68:	2d504646 	ldclcs	6, cr4, [r0, #-280]	; 0xfffffee8
    3e6c:	004b3531 	subeq	r3, fp, r1, lsr r5
    3e70:	4e495f5f 	mcrmi	15, 2, r5, cr9, cr15, {2}
    3e74:	4d5f3854 	ldclmi	8, cr3, [pc, #-336]	; 3d2c <_Min_Stack_Size+0x392c>
    3e78:	5f5f5841 	svcpl	0x005f5841
    3e7c:	37783020 	ldrbcc	r3, [r8, -r0, lsr #32]!
    3e80:	5f5f0066 	svcpl	0x005f0066
    3e84:	5f434347 	svcpl	0x00434347
    3e88:	45564148 	ldrbmi	r4, [r6, #-328]	; 0xfffffeb8
    3e8c:	4157445f 	cmpmi	r7, pc, asr r4
    3e90:	5f324652 	svcpl	0x00324652
    3e94:	5f494643 	svcpl	0x00494643
    3e98:	204d5341 	subcs	r5, sp, r1, asr #6
    3e9c:	5f5f0031 	svcpl	0x005f0031
    3ea0:	746e695f 	strbtvc	r6, [lr], #-2399	; 0xfffff6a1
    3ea4:	5f745f38 	svcpl	0x00745f38
    3ea8:	69666564 	stmdbvs	r6!, {r2, r5, r6, r8, sl, sp, lr}^
    3eac:	2064656e 	rsbcs	r6, r4, lr, ror #10
    3eb0:	5f5f0031 	svcpl	0x005f0031
    3eb4:	41524653 	cmpmi	r2, r3, asr r6
    3eb8:	4d5f5443 	cfldrdmi	mvd5, [pc, #-268]	; 3db4 <_Min_Stack_Size+0x39b4>
    3ebc:	5f5f4e49 	svcpl	0x005f4e49
    3ec0:	302d2820 	eorcc	r2, sp, r0, lsr #16
    3ec4:	5248352e 	subpl	r3, r8, #192937984	; 0xb800000
    3ec8:	352e302d 	strcc	r3, [lr, #-45]!	; 0xffffffd3
    3ecc:	00295248 	eoreq	r5, r9, r8, asr #4
    3ed0:	41535f5f 	cmpmi	r3, pc, asr pc
    3ed4:	4942495f 	stmdbmi	r2, {r0, r1, r2, r3, r4, r6, r8, fp, lr}^
    3ed8:	205f5f54 	subscs	r5, pc, r4, asr pc	; <UNPREDICTABLE>
    3edc:	5f003631 	svcpl	0x00003631
    3ee0:	66666f5f 	uqsaxvs	r6, r6, pc	; <UNPREDICTABLE>
    3ee4:	6f746573 	svcvs	0x00746573
    3ee8:	79742866 	ldmdbvc	r4!, {r1, r2, r5, r6, fp, sp}^
    3eec:	662c6570 			; <UNDEFINED> instruction: 0x662c6570
    3ef0:	646c6569 	strbtvs	r6, [ip], #-1385	; 0xfffffa97
    3ef4:	666f2029 	strbtvs	r2, [pc], -r9, lsr #32
    3ef8:	74657366 	strbtvc	r7, [r5], #-870	; 0xfffffc9a
    3efc:	7428666f 	strtvc	r6, [r8], #-1647	; 0xfffff991
    3f00:	2c657079 	stclcs	0, cr7, [r5], #-484	; 0xfffffe1c
    3f04:	65696620 	strbvs	r6, [r9, #-1568]!	; 0xfffff9e0
    3f08:	0029646c 	eoreq	r6, r9, ip, ror #8
    3f0c:	43475f5f 	movtmi	r5, #32607	; 0x7f5f
    3f10:	45495f43 	strbmi	r5, [r9, #-3907]	; 0xfffff0bd
    3f14:	35355f43 	ldrcc	r5, [r5, #-3907]!	; 0xfffff0bd
    3f18:	4f435f39 	svcmi	0x00435f39
    3f1c:	454c504d 	strbmi	r5, [ip, #-77]	; 0xffffffb3
    3f20:	00302058 	eorseq	r2, r0, r8, asr r0
    3f24:	52415f5f 	subpl	r5, r1, #380	; 0x17c
    3f28:	45465f4d 	strbmi	r5, [r6, #-3917]	; 0xfffff0b3
    3f2c:	52555441 	subspl	r5, r5, #1090519040	; 0x41000000
    3f30:	564d5f45 	strbpl	r5, [sp], -r5, asr #30
    3f34:	5f5f0045 	svcpl	0x005f0045
    3f38:	33544c46 	cmpcc	r4, #17920	; 0x4600
    3f3c:	4d5f5832 	ldclmi	8, cr5, [pc, #-200]	; 3e7c <_Min_Stack_Size+0x3a7c>
    3f40:	315f5841 	cmpcc	pc, r1, asr #16
    3f44:	58455f30 	stmdapl	r5, {r4, r5, r8, r9, sl, fp, ip, lr}^
    3f48:	205f5f50 	subscs	r5, pc, r0, asr pc	; <UNPREDICTABLE>
    3f4c:	00383033 	eorseq	r3, r8, r3, lsr r0
    3f50:	52415f5f 	subpl	r5, r1, #380	; 0x17c
    3f54:	50465f4d 	subpl	r5, r6, sp, asr #30
    3f58:	465f3631 			; <UNDEFINED> instruction: 0x465f3631
    3f5c:	414d524f 	cmpmi	sp, pc, asr #4
    3f60:	45495f54 	strbmi	r5, [r9, #-3924]	; 0xfffff0ac
    3f64:	5f004545 	svcpl	0x00004545
    3f68:	4e49555f 	mcrmi	5, 2, r5, cr9, cr15, {2}
    3f6c:	5f363154 	svcpl	0x00363154
    3f70:	45505954 	ldrbmi	r5, [r0, #-2388]	; 0xfffff6ac
    3f74:	73205f5f 			; <UNDEFINED> instruction: 0x73205f5f
    3f78:	74726f68 	ldrbtvc	r6, [r2], #-3944	; 0xfffff098
    3f7c:	736e7520 	cmnvc	lr, #32, 10	; 0x8000000
    3f80:	656e6769 	strbvs	r6, [lr, #-1897]!	; 0xfffff897
    3f84:	6e692064 	cdpvs	0, 6, cr2, cr9, cr4, {3}
    3f88:	505f0074 	subspl	r0, pc, r4, ror r0	; <UNPREDICTABLE>
    3f8c:	5849534f 	stmdapl	r9, {r0, r1, r2, r3, r6, r8, r9, ip, lr}^
    3f90:	554f535f 	strbpl	r5, [pc, #-863]	; 3c39 <_Min_Stack_Size+0x3839>
    3f94:	00454352 	subeq	r4, r5, r2, asr r3
    3f98:	444e4152 	strbmi	r4, [lr], #-338	; 0xfffffeae
    3f9c:	58414d5f 	stmdapl	r1, {r0, r1, r2, r3, r4, r6, r8, sl, fp, lr}^
    3fa0:	525f5f20 	subspl	r5, pc, #32, 30	; 0x80
    3fa4:	5f444e41 	svcpl	0x00444e41
    3fa8:	0058414d 	subseq	r4, r8, sp, asr #2
    3fac:	69755f5f 	ldmdbvs	r5!, {r0, r1, r2, r3, r4, r6, r8, r9, sl, fp, ip, lr}^
    3fb0:	3233746e 	eorscc	r7, r3, #1845493760	; 0x6e000000
    3fb4:	5f00745f 	svcpl	0x0000745f
    3fb8:	464f535f 			; <UNDEFINED> instruction: 0x464f535f
    3fbc:	5f504654 	svcpl	0x00504654
    3fc0:	0031205f 	eorseq	r2, r1, pc, asr r0
    3fc4:	4545525f 	strbmi	r5, [r5, #-607]	; 0xfffffda1
    3fc8:	545f544e 	ldrbpl	r5, [pc], #-1102	; 3fd0 <_Min_Stack_Size+0x3bd0>
    3fcc:	7470284d 	ldrbtvc	r2, [r0], #-2125	; 0xfffff7b3
    3fd0:	28202972 	stmdacs	r0!, {r1, r4, r5, r6, r8, fp, sp}
    3fd4:	72747028 	rsbsvc	r7, r4, #40	; 0x28
    3fd8:	5f3e2d29 	svcpl	0x003e2d29
    3fdc:	61636f6c 	cmnvs	r3, ip, ror #30
    3fe0:	6d69746c 	cfstrdvs	mvd7, [r9, #-432]!	; 0xfffffe50
    3fe4:	75625f65 	strbvc	r5, [r2, #-3941]!	; 0xfffff09b
    3fe8:	47002966 	strmi	r2, [r0, -r6, ror #18]
    3fec:	5f4f4950 	svcpl	0x004f4950
    3ff0:	45444f4d 	strbmi	r4, [r4, #-3917]	; 0xfffff0b3
    3ff4:	504e495f 	subpl	r4, lr, pc, asr r9
    3ff8:	505f5455 	subspl	r5, pc, r5, asr r4	; <UNPREDICTABLE>
    3ffc:	78302055 	ldmdavc	r0!, {r0, r2, r4, r6, sp}
    4000:	30303030 	eorscc	r3, r0, r0, lsr r0
    4004:	32303030 	eorscc	r3, r0, #48	; 0x30
    4008:	545f0075 	ldrbpl	r0, [pc], #-117	; 4010 <_Min_Stack_Size+0x3c10>
    400c:	5a49535f 	bpl	1258d90 <_Min_Stack_Size+0x1258990>
    4010:	00205f45 	eoreq	r5, r0, r5, asr #30
    4014:	4c465f5f 	mcrrmi	15, 5, r5, r6, cr15
    4018:	56455f54 			; <UNDEFINED> instruction: 0x56455f54
    401c:	4d5f4c41 	ldclmi	12, cr4, [pc, #-260]	; 3f20 <_Min_Stack_Size+0x3b20>
    4020:	4f485445 	svcmi	0x00485445
    4024:	53545f44 	cmppl	r4, #68, 30	; 0x110
    4028:	3638315f 			; <UNDEFINED> instruction: 0x3638315f
    402c:	335f3136 	cmpcc	pc, #-2147483635	; 0x8000000d
    4030:	30205f5f 	eorcc	r5, r0, pc, asr pc
    4034:	535f5f00 	cmppl	pc, #0, 30
    4038:	52414843 	subpl	r4, r1, #4390912	; 0x430000
    403c:	4449575f 	strbmi	r5, [r9], #-1887	; 0xfffff8a1
    4040:	5f5f4854 	svcpl	0x005f4854
    4044:	49003820 	stmdbmi	r0, {r5, fp, ip, sp}
    4048:	5f38544e 	svcpl	0x0038544e
    404c:	29782843 	ldmdbcs	r8!, {r0, r1, r6, fp, sp}^
    4050:	495f5f20 	ldmdbmi	pc, {r5, r8, r9, sl, fp, ip, lr}^	; <UNPREDICTABLE>
    4054:	5f38544e 	svcpl	0x0038544e
    4058:	29782843 	ldmdbcs	r8!, {r0, r1, r6, fp, sp}^
    405c:	44434c00 	strbmi	r4, [r3], #-3072	; 0xfffff400
    4060:	544e455f 	strbpl	r4, [lr], #-1375	; 0xfffffaa1
    4064:	5f595245 	svcpl	0x00595245
    4068:	45444f4d 	strbmi	r4, [r4, #-3917]	; 0xfffff0b3
    406c:	434e495f 	movtmi	r4, #59743	; 0xe95f
    4070:	4948535f 	stmdbmi	r8, {r0, r1, r2, r3, r4, r6, r8, r9, ip, lr}^
    4074:	4f5f5446 	svcmi	0x005f5446
    4078:	7830204e 	ldmdavc	r0!, {r1, r2, r3, r6, sp}
    407c:	5f003730 	svcpl	0x00003730
    4080:	4e49555f 	mcrmi	5, 2, r5, cr9, cr15, {2}
    4084:	41465f54 	cmpmi	r6, r4, asr pc
    4088:	5f385453 	svcpl	0x00385453
    408c:	45505954 	ldrbmi	r5, [r0, #-2388]	; 0xfffff6ac
    4090:	75205f5f 	strvc	r5, [r0, #-3935]!	; 0xfffff0a1
    4094:	6769736e 	strbvs	r7, [r9, -lr, ror #6]!
    4098:	2064656e 	rsbcs	r6, r4, lr, ror #10
    409c:	00746e69 	rsbseq	r6, r4, r9, ror #28
    40a0:	4c4c5f5f 	mcrrmi	15, 5, r5, ip, cr15
    40a4:	55434341 	strbpl	r4, [r3, #-833]	; 0xfffffcbf
    40a8:	42495f4d 	submi	r5, r9, #308	; 0x134
    40ac:	5f5f5449 	svcpl	0x005f5449
    40b0:	00323320 	eorseq	r3, r2, r0, lsr #6
    40b4:	6f6c5f5f 	svcvs	0x006c5f5f
    40b8:	635f6b63 	cmpvs	pc, #101376	; 0x18c00
    40bc:	65736f6c 	ldrbvs	r6, [r3, #-3948]!	; 0xfffff094
    40c0:	6365725f 	cmnvs	r5, #-268435451	; 0xf0000005
    40c4:	69737275 	ldmdbvs	r3!, {r0, r2, r4, r5, r6, r9, ip, sp, lr}^
    40c8:	6c286576 	cfstr32vs	mvfx6, [r8], #-472	; 0xfffffe28
    40cc:	296b636f 	stmdbcs	fp!, {r0, r1, r2, r3, r5, r6, r8, r9, sp, lr}^
    40d0:	725f5f20 	subsvc	r5, pc, #32, 30	; 0x80
    40d4:	72617465 	rsbvc	r7, r1, #1694498816	; 0x65000000
    40d8:	5f746567 	svcpl	0x00746567
    40dc:	6b636f6c 	blvs	18dfe94 <_Min_Stack_Size+0x18dfa94>
    40e0:	6f6c635f 	svcvs	0x006c635f
    40e4:	725f6573 	subsvc	r6, pc, #482344960	; 0x1cc00000
    40e8:	72756365 	rsbsvc	r6, r5, #-1811939327	; 0x94000001
    40ec:	65766973 	ldrbvs	r6, [r6, #-2419]!	; 0xfffff68d
    40f0:	636f6c28 	cmnvs	pc, #40, 24	; 0x2800
    40f4:	5f00296b 	svcpl	0x0000296b
    40f8:	544e495f 	strbpl	r4, [lr], #-2399	; 0xfffff6a1
    40fc:	4d5f3233 	lfmmi	f3, 2, [pc, #-204]	; 4038 <_Min_Stack_Size+0x3c38>
    4100:	5f5f5841 	svcpl	0x005f5841
    4104:	37783020 	ldrbcc	r3, [r8, -r0, lsr #32]!
    4108:	66666666 	strbtvs	r6, [r6], -r6, ror #12
    410c:	4c666666 	stclmi	6, cr6, [r6], #-408	; 0xfffffe68
    4110:	6d5f5f00 	ldclvs	15, cr5, [pc, #-0]	; 4118 <_Min_Stack_Size+0x3d18>
    4114:	735f6e69 	cmpvc	pc, #1680	; 0x690
    4118:	28657a69 	stmdacs	r5!, {r0, r3, r5, r6, r9, fp, ip, sp, lr}^
    411c:	73202978 			; <UNDEFINED> instruction: 0x73202978
    4120:	69746174 	ldmdbvs	r4!, {r2, r4, r5, r6, r8, sp, lr}^
    4124:	78282063 	stmdavc	r8!, {r0, r1, r5, r6, sp}
    4128:	5f5f0029 	svcpl	0x005f0029
    412c:	5f585847 	svcpl	0x00585847
    4130:	45505954 	ldrbmi	r5, [r0, #-2388]	; 0xfffff6ac
    4134:	4f464e49 	svcmi	0x00464e49
    4138:	5551455f 	ldrbpl	r4, [r1, #-1375]	; 0xfffffaa1
    413c:	54494c41 	strbpl	r4, [r9], #-3137	; 0xfffff3bf
    4140:	4e495f59 	mcrmi	15, 2, r5, cr9, cr9, {2}
    4144:	454e494c 	strbmi	r4, [lr, #-2380]	; 0xfffff6b4
    4148:	5f003020 	svcpl	0x00003020
    414c:	544e495f 	strbpl	r4, [lr], #-2399	; 0xfffff6a1
    4150:	41454c5f 	cmpmi	r5, pc, asr ip
    4154:	34365453 	ldrtcc	r5, [r6], #-1107	; 0xfffffbad
    4158:	58414d5f 	stmdapl	r1, {r0, r1, r2, r3, r4, r6, r8, sl, fp, lr}^
    415c:	30205f5f 	eorcc	r5, r0, pc, asr pc
    4160:	66663778 			; <UNDEFINED> instruction: 0x66663778
    4164:	66666666 	strbtvs	r6, [r6], -r6, ror #12
    4168:	66666666 	strbtvs	r6, [r6], -r6, ror #12
    416c:	66666666 	strbtvs	r6, [r6], -r6, ror #12
    4170:	004c4c66 	subeq	r4, ip, r6, ror #24
    4174:	50415f5f 	subpl	r5, r1, pc, asr pc
    4178:	335f5343 	cmpcc	pc, #201326593	; 0xc000001
    417c:	205f5f32 	subscs	r5, pc, r2, lsr pc	; <UNPREDICTABLE>
    4180:	5f5f0031 	svcpl	0x005f0031
    4184:	5f4d5241 	svcpl	0x004d5241
    4188:	54414546 	strbpl	r4, [r1], #-1350	; 0xfffffaba
    418c:	5f455255 	svcpl	0x00455255
    4190:	36314642 	ldrtcc	r4, [r1], -r2, asr #12
    4194:	4345565f 	movtmi	r5, #22111	; 0x565f
    4198:	5f524f54 	svcpl	0x00524f54
    419c:	54495241 	strbpl	r5, [r9], #-577	; 0xfffffdbf
    41a0:	54454d48 	strbpl	r4, [r5], #-3400	; 0xfffff2b8
    41a4:	5f004349 	svcpl	0x00004349
    41a8:	5f535953 	svcpl	0x00535953
    41ac:	4454535f 	ldrbmi	r5, [r4], #-863	; 0xfffffca1
    41b0:	5f544e49 	svcpl	0x00544e49
    41b4:	5f002048 	svcpl	0x00002048
    41b8:	65656e5f 	strbvs	r6, [r5, #-3679]!	; 0xfffff1a1
    41bc:	554e5f64 	strbpl	r5, [lr, #-3940]	; 0xfffff09c
    41c0:	00204c4c 	eoreq	r4, r0, ip, asr #24
    41c4:	4645445f 			; <UNDEFINED> instruction: 0x4645445f
    41c8:	544c5541 	strbpl	r5, [ip], #-1345	; 0xfffffabf
    41cc:	554f535f 	strbpl	r5, [pc, #-863]	; 3e75 <_Min_Stack_Size+0x3a75>
    41d0:	20454352 	subcs	r4, r5, r2, asr r3
    41d4:	5f5f0031 	svcpl	0x005f0031
    41d8:	33544c46 	cmpcc	r4, #17920	; 0x4600
    41dc:	414d5f32 	cmpmi	sp, r2, lsr pc
    41e0:	445f544e 	ldrbmi	r5, [pc], #-1102	; 41e8 <_Min_Stack_Size+0x3de8>
    41e4:	5f5f4749 	svcpl	0x005f4749
    41e8:	00343220 	eorseq	r3, r4, r0, lsr #4
    41ec:	4c465f5f 	mcrrmi	15, 5, r5, r6, cr15
    41f0:	5f323354 	svcpl	0x00323354
    41f4:	4f4e4544 	svcmi	0x004e4544
    41f8:	4d5f4d52 	ldclmi	13, cr4, [pc, #-328]	; 40b8 <_Min_Stack_Size+0x3cb8>
    41fc:	5f5f4e49 	svcpl	0x005f4e49
    4200:	342e3120 	strtcc	r3, [lr], #-288	; 0xfffffee0
    4204:	39323130 	ldmdbcc	r2!, {r4, r5, r8, ip, sp}
    4208:	34363438 	ldrtcc	r3, [r6], #-1080	; 0xfffffbc8
    420c:	38343233 	ldmdacc	r4!, {r0, r1, r4, r5, r9, ip, sp}
    4210:	65313731 	ldrvs	r3, [r1, #-1841]!	; 0xfffff8cf
    4214:	4635342d 	ldrtmi	r3, [r5], -sp, lsr #8
    4218:	5f003233 	svcpl	0x00003233
    421c:	6365735f 	cmnvs	r5, #2080374785	; 0x7c000001
    4220:	6e6f6974 			; <UNDEFINED> instruction: 0x6e6f6974
    4224:	20297828 	eorcs	r7, r9, r8, lsr #16
    4228:	74615f5f 	strbtvc	r5, [r1], #-3935	; 0xfffff0a1
    422c:	62697274 	rsbvs	r7, r9, #116, 4	; 0x40000007
    4230:	5f657475 	svcpl	0x00657475
    4234:	5f28285f 	svcpl	0x0028285f
    4238:	6365735f 	cmnvs	r5, #2080374785	; 0x7c000001
    423c:	6e6f6974 			; <UNDEFINED> instruction: 0x6e6f6974
    4240:	78285f5f 	stmdavc	r8!, {r0, r1, r2, r3, r4, r6, r8, r9, sl, fp, ip, lr}
    4244:	00292929 	eoreq	r2, r9, r9, lsr #18
    4248:	7366666f 	cmnvc	r6, #116391936	; 0x6f00000
    424c:	666f7465 	strbtvs	r7, [pc], -r5, ror #8
    4250:	50595428 	subspl	r5, r9, r8, lsr #8
    4254:	454d2c45 	strbmi	r2, [sp, #-3141]	; 0xfffff3bb
    4258:	5245424d 	subpl	r4, r5, #-805306364	; 0xd0000004
    425c:	5f5f2029 	svcpl	0x005f2029
    4260:	6c697562 	cfstr64vs	mvdx7, [r9], #-392	; 0xfffffe78
    4264:	5f6e6974 	svcpl	0x006e6974
    4268:	7366666f 	cmnvc	r6, #116391936	; 0x6f00000
    426c:	666f7465 	strbtvs	r7, [pc], -r5, ror #8
    4270:	59542820 	ldmdbpl	r4, {r5, fp, sp}^
    4274:	202c4550 	eorcs	r4, ip, r0, asr r5
    4278:	424d454d 	submi	r4, sp, #322961408	; 0x13400000
    427c:	00295245 	eoreq	r5, r9, r5, asr #4
    4280:	49555f5f 	ldmdbmi	r5, {r0, r1, r2, r3, r4, r6, r8, r9, sl, fp, ip, lr}^
    4284:	3436544e 	ldrtcc	r5, [r6], #-1102	; 0xfffffbb2
    4288:	6328435f 			; <UNDEFINED> instruction: 0x6328435f
    428c:	20632029 	rsbcs	r2, r3, r9, lsr #32
    4290:	55202323 	strpl	r2, [r0, #-803]!	; 0xfffffcdd
    4294:	5f004c4c 	svcpl	0x00004c4c
    4298:	4e49555f 	mcrmi	5, 2, r5, cr9, cr15, {2}
    429c:	454c5f54 	strbmi	r5, [ip, #-3924]	; 0xfffff0ac
    42a0:	36545341 	ldrbcc	r5, [r4], -r1, asr #6
    42a4:	59545f34 	ldmdbpl	r4, {r2, r4, r5, r8, r9, sl, fp, ip, lr}^
    42a8:	5f5f4550 	svcpl	0x005f4550
    42ac:	6e6f6c20 	cdpvs	12, 6, cr6, cr15, cr0, {1}
    42b0:	6f6c2067 	svcvs	0x006c2067
    42b4:	7520676e 	strvc	r6, [r0, #-1902]!	; 0xfffff892
    42b8:	6769736e 	strbvs	r7, [r9, -lr, ror #6]!
    42bc:	2064656e 	rsbcs	r6, r4, lr, ror #10
    42c0:	00746e69 	rsbseq	r6, r4, r9, ror #28
    42c4:	53555f5f 	cmppl	r5, #380	; 0x17c
    42c8:	43415246 	movtmi	r5, #4678	; 0x1246
    42cc:	42465f54 	submi	r5, r6, #84, 30	; 0x150
    42d0:	5f5f5449 	svcpl	0x005f5449
    42d4:	5f003820 	svcpl	0x00003820
    42d8:	42444c5f 	submi	r4, r4, #24320	; 0x5f00
    42dc:	50455f4c 	subpl	r5, r5, ip, asr #30
    42e0:	4f4c4953 	svcmi	0x004c4953
    42e4:	205f5f4e 	subscs	r5, pc, lr, asr #30
    42e8:	32322e32 	eorscc	r2, r2, #800	; 0x320
    42ec:	36343430 			; <UNDEFINED> instruction: 0x36343430
    42f0:	32393430 	eorscc	r3, r9, #48, 8	; 0x30000000
    42f4:	31333035 	teqcc	r3, r5, lsr r0
    42f8:	2d653133 	stfcse	f3, [r5, #-204]!	; 0xffffff34
    42fc:	004c3631 	subeq	r3, ip, r1, lsr r6
    4300:	5f544e49 	svcpl	0x00544e49
    4304:	54534146 	ldrbpl	r4, [r3], #-326	; 0xfffffeba
    4308:	4d5f3436 	cfldrdmi	mvd3, [pc, #-216]	; 4238 <_Min_Stack_Size+0x3e38>
    430c:	28205841 	stmdacs	r0!, {r0, r6, fp, ip, lr}
    4310:	4e495f5f 	mcrmi	15, 2, r5, cr9, cr15, {2}
    4314:	41465f54 	cmpmi	r6, r4, asr pc
    4318:	34365453 	ldrtcc	r5, [r6], #-1107	; 0xfffffbad
    431c:	58414d5f 	stmdapl	r1, {r0, r1, r2, r3, r4, r6, r8, sl, fp, lr}^
    4320:	00295f5f 	eoreq	r5, r9, pc, asr pc
    4324:	75705f5f 	ldrbvc	r5, [r0, #-3935]!	; 0xfffff0a1
    4328:	20326572 	eorscs	r6, r2, r2, ror r5
    432c:	74615f5f 	strbtvc	r5, [r1], #-3935	; 0xfffff0a1
    4330:	62697274 	rsbvs	r7, r9, #116, 4	; 0x40000007
    4334:	5f657475 	svcpl	0x00657475
    4338:	5f28285f 	svcpl	0x0028285f
    433c:	6e6f635f 	mcrvs	3, 3, r6, cr15, cr15, {2}
    4340:	5f5f7473 	svcpl	0x005f7473
    4344:	5f002929 	svcpl	0x00002929
    4348:	4343475f 	movtmi	r4, #14175	; 0x375f
    434c:	4f54415f 	svcmi	0x0054415f
    4350:	5f43494d 	svcpl	0x0043494d
    4354:	52414843 	subpl	r4, r1, #4390912	; 0x430000
    4358:	545f3631 	ldrbpl	r3, [pc], #-1585	; 4360 <_Min_Stack_Size+0x3f60>
    435c:	434f4c5f 	movtmi	r4, #64607	; 0xfc5f
    4360:	52465f4b 	subpl	r5, r6, #300	; 0x12c
    4364:	32204545 	eorcc	r4, r0, #289406976	; 0x11400000
    4368:	64636c00 	strbtvs	r6, [r3], #-3072	; 0xfffff400
    436c:	6e65735f 	mcrvs	3, 3, r7, cr5, cr15, {2}
    4370:	756e5f64 	strbvc	r5, [lr, #-3940]!	; 0xfffff09c
    4374:	7265626d 	rsbvc	r6, r5, #-805306362	; 0xd0000006
    4378:	4e5f5f00 	cdpmi	15, 5, cr5, cr15, cr0, {0}
    437c:	414c4c55 	cmpmi	ip, r5, asr ip
    4380:	494c4942 	stmdbmi	ip, {r1, r6, r8, fp, lr}^
    4384:	505f5954 	subspl	r5, pc, r4, asr r9	; <UNPREDICTABLE>
    4388:	4d474152 	stfmie	f4, [r7, #-328]	; 0xfffffeb8
    438c:	55505f41 	ldrbpl	r5, [r0, #-3905]	; 0xfffff0bf
    4390:	00204853 	eoreq	r4, r0, r3, asr r8
    4394:	41484357 	cmpmi	r8, r7, asr r3
    4398:	494d5f52 	stmdbmi	sp, {r1, r4, r6, r8, r9, sl, fp, ip, lr}^
    439c:	5f28204e 	svcpl	0x0028204e
    43a0:	4843575f 	stmdami	r3, {r0, r1, r2, r3, r4, r6, r8, r9, sl, ip, lr}^
    43a4:	4d5f5241 	lfmmi	f5, 2, [pc, #-260]	; 42a8 <_Min_Stack_Size+0x3ea8>
    43a8:	5f5f4e49 	svcpl	0x005f4e49
    43ac:	434c0029 	movtmi	r0, #49193	; 0xc029
    43b0:	5f00524b 	svcpl	0x0000524b
    43b4:	4c42445f 	cfstrdmi	mvd4, [r2], {95}	; 0x5f
    43b8:	58414d5f 	stmdapl	r1, {r0, r1, r2, r3, r4, r6, r8, sl, fp, lr}^
    43bc:	5058455f 	subspl	r4, r8, pc, asr r5
    43c0:	31205f5f 			; <UNDEFINED> instruction: 0x31205f5f
    43c4:	00343230 	eorseq	r3, r4, r0, lsr r2
    43c8:	49706d74 	ldmdbmi	r0!, {r2, r4, r5, r6, r8, sl, fp, sp, lr}^
    43cc:	0031746e 	eorseq	r7, r1, lr, ror #8
    43d0:	54415f5f 	strbpl	r5, [r1], #-3935	; 0xfffff0a1
    43d4:	43494d4f 	movtmi	r4, #40271	; 0x9d4f
    43d8:	4c45525f 	sfmmi	f5, 2, [r5], {95}	; 0x5f
    43dc:	45534145 	ldrbmi	r4, [r3, #-325]	; 0xfffffebb
    43e0:	75003320 	strvc	r3, [r0, #-800]	; 0xfffffce0
    43e4:	6769736e 	strbvs	r7, [r9, -lr, ror #6]!
    43e8:	2064656e 	rsbcs	r6, r4, lr, ror #10
    43ec:	7300302b 	movwvc	r3, #43	; 0x2b
    43f0:	6e697270 	mcrvs	2, 3, r7, cr9, cr0, {3}
    43f4:	5f006674 	svcpl	0x00006674
    43f8:	544c465f 	strbpl	r4, [ip], #-1631	; 0xfffff9a1
    43fc:	5f583233 	svcpl	0x00583233
    4400:	5f534148 	svcpl	0x00534148
    4404:	4f4e4544 	svcmi	0x004e4544
    4408:	5f5f4d52 	svcpl	0x005f4d52
    440c:	5f003120 	svcpl	0x00003120
    4410:	544c465f 	strbpl	r4, [ip], #-1631	; 0xfffff9a1
    4414:	4e414d5f 	mcrmi	13, 2, r4, cr1, cr15, {2}
    4418:	49445f54 	stmdbmi	r4, {r2, r4, r6, r8, r9, sl, fp, ip, lr}^
    441c:	205f5f47 	subscs	r5, pc, r7, asr #30
    4420:	5f003432 	svcpl	0x00003432
    4424:	444e4152 	strbmi	r4, [lr], #-338	; 0xfffffeae
    4428:	535f3834 	cmppl	pc, #52, 16	; 0x340000
    442c:	5f444545 	svcpl	0x00444545
    4430:	30282031 	eorcc	r2, r8, r1, lsr r0
    4434:	63626178 	cmnvs	r2, #120, 2
    4438:	5f002964 	svcpl	0x00002964
    443c:	5144555f 	cmppl	r4, pc, asr r5
    4440:	4942495f 	stmdbmi	r2, {r0, r1, r2, r3, r4, r6, r8, fp, lr}^
    4444:	205f5f54 	subscs	r5, pc, r4, asr pc	; <UNPREDICTABLE>
    4448:	475f0030 	smmlarmi	pc, r0, r0, r0	; <UNPREDICTABLE>
    444c:	41424f4c 	cmpmi	r2, ip, asr #30
    4450:	54415f4c 	strbpl	r5, [r1], #-3916	; 0xfffff0b4
    4454:	54495845 	strbpl	r5, [r9], #-2117	; 0xfffff7bb
    4458:	6c675f20 	stclvs	15, cr5, [r7], #-128	; 0xffffff80
    445c:	6c61626f 	sfmvs	f6, 2, [r1], #-444	; 0xfffffe44
    4460:	6574615f 	ldrbvs	r6, [r4, #-351]!	; 0xfffffea1
    4464:	00746978 	rsbseq	r6, r4, r8, ror r9
    4468:	544e4955 	strbpl	r4, [lr], #-2389	; 0xfffff6ab
    446c:	5f58414d 	svcpl	0x0058414d
    4470:	2058414d 	subscs	r4, r8, sp, asr #2
    4474:	555f5f28 	ldrbpl	r5, [pc, #-3880]	; 3554 <_Min_Stack_Size+0x3154>
    4478:	4d544e49 	ldclmi	14, cr4, [r4, #-292]	; 0xfffffedc
    447c:	4d5f5841 	ldclmi	8, cr5, [pc, #-260]	; 4380 <_Min_Stack_Size+0x3f80>
    4480:	5f5f5841 	svcpl	0x005f5841
    4484:	564e0029 	strbpl	r0, [lr], -r9, lsr #32
    4488:	425f4349 	subsmi	r4, pc, #603979777	; 0x24000001
    448c:	20455341 	subcs	r5, r5, r1, asr #6
    4490:	30457830 	subcc	r7, r5, r0, lsr r8
    4494:	31453030 	cmpcc	r5, r0, lsr r0
    4498:	4c553030 	mrrcmi	0, 3, r3, r5, cr0
    449c:	555f5f00 	ldrbpl	r5, [pc, #-3840]	; 35a4 <_Min_Stack_Size+0x31a4>
    44a0:	55434341 	strbpl	r4, [r3, #-833]	; 0xfffffcbf
    44a4:	414d5f4d 	cmpmi	sp, sp, asr #30
    44a8:	205f5f58 	subscs	r5, pc, r8, asr pc	; <UNPREDICTABLE>
    44ac:	46465830 			; <UNDEFINED> instruction: 0x46465830
    44b0:	46464646 	strbmi	r4, [r6], -r6, asr #12
    44b4:	2d504646 	ldclcs	6, cr4, [r0, #-280]	; 0xfffffee8
    44b8:	4b553631 	blmi	1551d84 <_Min_Stack_Size+0x1551984>
    44bc:	435f5f00 	cmpmi	pc, #0, 30
    44c0:	55535f43 	ldrbpl	r5, [r3, #-3907]	; 0xfffff0bd
    44c4:	524f5050 	subpl	r5, pc, #80	; 0x50
    44c8:	5f5f5354 	svcpl	0x005f5354
    44cc:	4e55465f 	mrcmi	6, 2, r4, cr5, cr15, {2}
    44d0:	205f5f43 	subscs	r5, pc, r3, asr #30
    44d4:	5f5f0031 	svcpl	0x005f0031
    44d8:	36544c46 	ldrbcc	r4, [r4], -r6, asr #24
    44dc:	4f4e5f34 	svcmi	0x004e5f34
    44e0:	4d5f4d52 	ldclmi	13, cr4, [pc, #-328]	; 43a0 <_Min_Stack_Size+0x3fa0>
    44e4:	5f5f5841 	svcpl	0x005f5841
    44e8:	372e3120 	strcc	r3, [lr, -r0, lsr #2]!
    44ec:	39363739 	ldmdbcc	r6!, {r0, r3, r4, r5, r8, r9, sl, ip, sp}
    44f0:	34333133 	ldrtcc	r3, [r3], #-307	; 0xfffffecd
    44f4:	33323638 	teqcc	r2, #56, 12	; 0x3800000
    44f8:	65373531 	ldrvs	r3, [r7, #-1329]!	; 0xfffffacf
    44fc:	3830332b 	ldmdacc	r0!, {r0, r1, r3, r5, r8, r9, ip, sp}
    4500:	00343646 	eorseq	r3, r4, r6, asr #12
    4504:	5f434e49 	svcpl	0x00434e49
    4508:	4f495047 	svcmi	0x00495047
    450c:	205f485f 	subscs	r4, pc, pc, asr r8	; <UNPREDICTABLE>
    4510:	475f5f00 	ldrbmi	r5, [pc, -r0, lsl #30]
    4514:	4c43554e 	cfstr64mi	mvdx5, [r3], {78}	; 0x4e
    4518:	5f454b49 	svcpl	0x00454b49
    451c:	4854414d 	ldmdami	r4, {r0, r2, r3, r6, r8, lr}^
    4520:	4955425f 	ldmdbmi	r5, {r0, r1, r2, r3, r4, r6, r9, lr}^
    4524:	4e49544c 	cdpmi	4, 4, cr5, cr9, cr12, {2}
    4528:	4e4f435f 	mcrmi	3, 2, r4, cr15, cr15, {2}
    452c:	4e415453 	mcrmi	4, 2, r5, cr1, cr3, {2}
    4530:	00205354 	eoreq	r5, r0, r4, asr r3
    4534:	4f495047 	svcmi	0x00495047
    4538:	4e49505f 	mcrmi	0, 2, r5, cr9, cr15, {2}
    453c:	2820305f 	stmdacs	r0!, {r0, r1, r2, r3, r4, r6, ip, sp}
    4540:	6e697528 	cdpvs	5, 6, cr7, cr9, cr8, {1}
    4544:	5f363174 	svcpl	0x00363174
    4548:	78302974 	ldmdavc	r0!, {r2, r4, r5, r6, r8, fp, sp}
    454c:	31303030 	teqcc	r0, r0, lsr r0
    4550:	525f0029 	subspl	r0, pc, #41	; 0x29
    4554:	544e4545 	strbpl	r4, [lr], #-1349	; 0xfffffabb
    4558:	4353415f 	cmpmi	r3, #-1073741801	; 0xc0000017
    455c:	454d4954 	strbmi	r4, [sp, #-2388]	; 0xfffff6ac
    4560:	4655425f 			; <UNDEFINED> instruction: 0x4655425f
    4564:	72747028 	rsbsvc	r7, r4, #40	; 0x28
    4568:	28282029 	stmdacs	r8!, {r0, r3, r5, sp}
    456c:	29727470 	ldmdbcs	r2!, {r4, r5, r6, sl, ip, sp, lr}^
    4570:	615f3e2d 	cmpvs	pc, sp, lsr #28
    4574:	69746373 	ldmdbvs	r4!, {r0, r1, r4, r5, r6, r8, r9, sp, lr}^
    4578:	625f656d 	subsvs	r6, pc, #457179136	; 0x1b400000
    457c:	00296675 	eoreq	r6, r9, r5, ror r6
    4580:	505f545f 	subspl	r5, pc, pc, asr r4	; <UNPREDICTABLE>
    4584:	49445254 	stmdbmi	r4, {r2, r4, r6, r9, ip, lr}^
    4588:	205f4646 	subscs	r4, pc, r6, asr #12
    458c:	48435300 	stmdami	r3, {r8, r9, ip, lr}^
    4590:	465f4445 	ldrbmi	r4, [pc], -r5, asr #8
    4594:	204f4649 	subcs	r4, pc, r9, asr #12
    4598:	5f5f0031 	svcpl	0x005f0031
    459c:	4c42444c 	cfstrdmi	mvd4, [r2], {76}	; 0x4c
    45a0:	4e45445f 	mcrmi	4, 2, r4, cr5, cr15, {2}
    45a4:	5f4d524f 	svcpl	0x004d524f
    45a8:	5f4e494d 	svcpl	0x004e494d
    45ac:	2e34205f 	mrccs	0, 1, r2, cr4, cr15, {2}
    45b0:	36303439 			; <UNDEFINED> instruction: 0x36303439
    45b4:	35343635 	ldrcc	r3, [r4, #-1589]!	; 0xfffff9cb
    45b8:	32313438 	eorscc	r3, r1, #56, 8	; 0x38000000
    45bc:	34353634 	ldrtcc	r3, [r5], #-1588	; 0xfffff9cc
    45c0:	32332d65 	eorscc	r2, r3, #6464	; 0x1940
    45c4:	5f004c34 	svcpl	0x00004c34
    45c8:	5058455f 	subspl	r4, r8, pc, asr r5
    45cc:	2054524f 	subscs	r5, r4, pc, asr #4
    45d0:	73736100 	cmnvc	r3, #0, 2
    45d4:	28747265 	ldmdacs	r4!, {r0, r2, r5, r6, r9, ip, sp, lr}^
    45d8:	29655f5f 	stmdbcs	r5!, {r0, r1, r2, r3, r4, r6, r8, r9, sl, fp, ip, lr}^
    45dc:	5f282820 	svcpl	0x00282820
    45e0:	2029655f 	eorcs	r6, r9, pc, asr r5
    45e4:	7628203f 			; <UNDEFINED> instruction: 0x7628203f
    45e8:	2964696f 	stmdbcs	r4!, {r0, r1, r2, r3, r5, r6, r8, fp, sp, lr}^
    45ec:	203a2030 	eorscs	r2, sl, r0, lsr r0
    45f0:	73615f5f 	cmnvc	r1, #380	; 0x17c
    45f4:	74726573 	ldrbtvc	r6, [r2], #-1395	; 0xfffffa8d
    45f8:	6e75665f 	mrcvs	6, 3, r6, cr5, cr15, {2}
    45fc:	5f282063 	svcpl	0x00282063
    4600:	4c49465f 	mcrrmi	6, 5, r4, r9, cr15
    4604:	2c5f5f45 	mrrccs	15, 4, r5, pc, cr5	; <UNPREDICTABLE>
    4608:	4c5f5f20 	mrrcmi	15, 2, r5, pc, cr0	; <UNPREDICTABLE>
    460c:	5f454e49 	svcpl	0x00454e49
    4610:	5f202c5f 	svcpl	0x00202c5f
    4614:	5353415f 	cmppl	r3, #-1073741801	; 0xc0000017
    4618:	5f545245 	svcpl	0x00545245
    461c:	434e5546 	movtmi	r5, #58694	; 0xe546
    4620:	5f23202c 	svcpl	0x0023202c
    4624:	2929655f 	stmdbcs	r9!, {r0, r1, r2, r3, r4, r6, r8, sl, sp, lr}
    4628:	555f5f00 	ldrbpl	r5, [pc, #-3840]	; 3730 <_Min_Stack_Size+0x3330>
    462c:	52464c4c 	subpl	r4, r6, #76, 24	; 0x4c00
    4630:	5f544341 	svcpl	0x00544341
    4634:	54494249 	strbpl	r4, [r9], #-585	; 0xfffffdb7
    4638:	30205f5f 	eorcc	r5, r0, pc, asr pc
    463c:	49564e00 	ldmdbmi	r6, {r9, sl, fp, lr}^
    4640:	43495f43 	movtmi	r5, #40771	; 0x9f43
    4644:	20315245 	eorscs	r5, r1, r5, asr #4
    4648:	6f76282a 	svcvs	0x0076282a
    464c:	6974616c 	ldmdbvs	r4!, {r2, r3, r5, r6, r8, sp, lr}^
    4650:	7520656c 	strvc	r6, [r0, #-1388]!	; 0xfffffa94
    4654:	33746e69 	cmncc	r4, #1680	; 0x690
    4658:	20745f32 	rsbscs	r5, r4, r2, lsr pc
    465c:	4e28292a 	vmulmi.f16	s4, s16, s21	; <UNPREDICTABLE>
    4660:	5f434956 	svcpl	0x00434956
    4664:	45534142 	ldrbmi	r4, [r3, #-322]	; 0xfffffebe
    4668:	30202b20 	eorcc	r2, r0, r0, lsr #22
    466c:	29343878 	ldmdbcs	r4!, {r3, r4, r5, r6, fp, ip, sp}
    4670:	4e415f00 	cdpmi	15, 4, cr5, cr1, cr0, {0}
    4674:	535f4953 	cmppl	pc, #1359872	; 0x14c000
    4678:	45444454 	strbmi	r4, [r4, #-1108]	; 0xfffffbac
    467c:	20485f46 	subcs	r5, r8, r6, asr #30
    4680:	44434c00 	strbmi	r4, [r3], #-3072	; 0xfffff400
    4684:	544e455f 	strbpl	r4, [lr], #-1375	; 0xfffffaa1
    4688:	5f595245 	svcpl	0x00595245
    468c:	45444f4d 	strbmi	r4, [r4, #-3917]	; 0xfffff0b3
    4690:	4345445f 	movtmi	r4, #21599	; 0x545f
    4694:	4948535f 	stmdbmi	r8, {r0, r1, r2, r3, r4, r6, r8, r9, ip, lr}^
    4698:	4f5f5446 	svcmi	0x005f5446
    469c:	7830204e 	ldmdavc	r0!, {r1, r2, r3, r6, sp}
    46a0:	5f003530 	svcpl	0x00003530
    46a4:	554e475f 	strbpl	r4, [lr, #-1887]	; 0xfffff8a1
    46a8:	205f5f43 	subscs	r5, pc, r3, asr #30
    46ac:	5f003031 	svcpl	0x00003031
    46b0:	5454494c 	ldrbpl	r4, [r4], #-2380	; 0xfffff6b4
    46b4:	455f454c 	ldrbmi	r4, [pc, #-1356]	; 4170 <_Min_Stack_Size+0x3d70>
    46b8:	4149444e 	cmpmi	r9, lr, asr #8
    46bc:	3231204e 	eorscc	r2, r1, #78	; 0x4e
    46c0:	5f003433 	svcpl	0x00003433
    46c4:	7773625f 			; <UNDEFINED> instruction: 0x7773625f
    46c8:	36317061 	ldrtcc	r7, [r1], -r1, rrx
    46cc:	29785f28 	ldmdbcs	r8!, {r3, r5, r8, r9, sl, fp, ip, lr}^
    46d0:	625f5f20 	subsvs	r5, pc, #32, 30	; 0x80
    46d4:	746c6975 	strbtvc	r6, [ip], #-2421	; 0xfffff68b
    46d8:	625f6e69 	subsvs	r6, pc, #1680	; 0x690
    46dc:	70617773 	rsbvc	r7, r1, r3, ror r7
    46e0:	5f283631 	svcpl	0x00283631
    46e4:	47002978 	smlsdxmi	r0, r8, r9, r2
    46e8:	4320554e 			; <UNDEFINED> instruction: 0x4320554e
    46ec:	31203131 			; <UNDEFINED> instruction: 0x31203131
    46f0:	2e332e30 	mrccs	14, 1, r2, cr3, cr0, {1}
    46f4:	30322031 	eorscc	r2, r2, r1, lsr r0
    46f8:	38303132 	ldmdacc	r0!, {r1, r4, r5, r8, ip, sp}
    46fc:	28203432 	stmdacs	r0!, {r1, r4, r5, sl, ip, sp}
    4700:	656c6572 	strbvs	r6, [ip, #-1394]!	; 0xfffffa8e
    4704:	29657361 	stmdbcs	r5!, {r0, r5, r6, r8, r9, ip, sp, lr}^
    4708:	636d2d20 	cmnvs	sp, #32, 26	; 0x800
    470c:	633d7570 	teqvs	sp, #112, 10	; 0x1c000000
    4710:	6574726f 	ldrbvs	r7, [r4, #-623]!	; 0xfffffd91
    4714:	336d2d78 	cmncc	sp, #120, 26	; 0x1e00
    4718:	666d2d20 	strbtvs	r2, [sp], -r0, lsr #26
    471c:	74616f6c 	strbtvc	r6, [r1], #-3948	; 0xfffff094
    4720:	6962612d 	stmdbvs	r2!, {r0, r2, r3, r5, r8, sp, lr}^
    4724:	666f733d 			; <UNDEFINED> instruction: 0x666f733d
    4728:	6d2d2074 	stcvs	0, cr2, [sp, #-464]!	; 0xfffffe30
    472c:	6d756874 	ldclvs	8, cr6, [r5, #-464]!	; 0xfffffe30
    4730:	6d2d2062 	stcvs	0, cr2, [sp, #-392]!	; 0xfffffe78
    4734:	68637261 	stmdavs	r3!, {r0, r5, r6, r9, ip, sp, lr}^
    4738:	6d72613d 	ldfvse	f6, [r2, #-244]!	; 0xffffff0c
    473c:	6d2d3776 	stcvs	7, cr3, [sp, #-472]!	; 0xfffffe28
    4740:	33672d20 	cmncc	r7, #32, 26	; 0x800
    4744:	304f2d20 	subcc	r2, pc, r0, lsr #26
    4748:	74732d20 	ldrbtvc	r2, [r3], #-3360	; 0xfffff2e0
    474c:	6e673d64 	cdpvs	13, 6, cr3, cr7, cr4, {3}
    4750:	20313175 	eorscs	r3, r1, r5, ror r1
    4754:	7566662d 	strbvc	r6, [r6, #-1581]!	; 0xfffff9d3
    4758:	6974636e 	ldmdbvs	r4!, {r1, r2, r3, r5, r6, r8, r9, sp, lr}^
    475c:	732d6e6f 			; <UNDEFINED> instruction: 0x732d6e6f
    4760:	69746365 	ldmdbvs	r4!, {r0, r2, r5, r6, r8, r9, sp, lr}^
    4764:	20736e6f 	rsbscs	r6, r3, pc, ror #28
    4768:	6164662d 	cmnvs	r4, sp, lsr #12
    476c:	732d6174 			; <UNDEFINED> instruction: 0x732d6174
    4770:	69746365 	ldmdbvs	r4!, {r0, r2, r5, r6, r8, r9, sp, lr}^
    4774:	20736e6f 	rsbscs	r6, r3, pc, ror #28
    4778:	7473662d 	ldrbtvc	r6, [r3], #-1581	; 0xfffff9d3
    477c:	2d6b6361 	stclcs	3, cr6, [fp, #-388]!	; 0xfffffe7c
    4780:	67617375 			; <UNDEFINED> instruction: 0x67617375
    4784:	662d2065 	strtvs	r2, [sp], -r5, rrx
    4788:	6c637963 			; <UNDEFINED> instruction: 0x6c637963
    478c:	74616d6f 	strbtvc	r6, [r1], #-3439	; 0xfffff291
    4790:	632d6369 			; <UNDEFINED> instruction: 0x632d6369
    4794:	6c706d6f 	ldclvs	13, cr6, [r0], #-444	; 0xfffffe44
    4798:	74697865 	strbtvc	r7, [r9], #-2149	; 0xfffff79b
    479c:	564e0079 			; <UNDEFINED> instruction: 0x564e0079
    47a0:	495f4349 	ldmdbmi	pc, {r0, r3, r6, r8, r9, lr}^	; <UNPREDICTABLE>
    47a4:	31524553 	cmpcc	r2, r3, asr r5
    47a8:	76282a20 	strtvc	r2, [r8], -r0, lsr #20
    47ac:	74616c6f 	strbtvc	r6, [r1], #-3183	; 0xfffff391
    47b0:	20656c69 	rsbcs	r6, r5, r9, ror #24
    47b4:	746e6975 	strbtvc	r6, [lr], #-2421	; 0xfffff68b
    47b8:	745f3233 	ldrbvc	r3, [pc], #-563	; 47c0 <_Min_Stack_Size+0x43c0>
    47bc:	28292a20 	stmdacs	r9!, {r5, r9, fp, sp}
    47c0:	4349564e 	movtmi	r5, #38478	; 0x964e
    47c4:	5341425f 	movtpl	r4, #4703	; 0x125f
    47c8:	202b2045 	eorcs	r2, fp, r5, asr #32
    47cc:	34307830 	ldrtcc	r7, [r0], #-2096	; 0xfffff7d0
    47d0:	495f0029 	ldmdbmi	pc, {r0, r3, r5}^	; <UNPREDICTABLE>
    47d4:	4642464f 	strbmi	r4, [r2], -pc, asr #12
    47d8:	5f003020 	svcpl	0x00003020
    47dc:	4e454552 	mcrmi	5, 2, r4, cr5, cr2, {2}
    47e0:	43575f54 	cmpmi	r7, #84, 30	; 0x150
    47e4:	4d4f5452 	cfstrdmi	mvd5, [pc, #-328]	; 46a4 <_Min_Stack_Size+0x42a4>
    47e8:	54535f42 	ldrbpl	r5, [r3], #-3906	; 0xfffff0be
    47ec:	28455441 	stmdacs	r5, {r0, r6, sl, ip, lr}^
    47f0:	29727470 	ldmdbcs	r2!, {r4, r5, r6, sl, ip, sp, lr}^
    47f4:	70282820 	eorvc	r2, r8, r0, lsr #16
    47f8:	2d297274 	sfmcs	f7, 4, [r9, #-464]!	; 0xfffffe30
    47fc:	696d5f3e 	stmdbvs	sp!, {r1, r2, r3, r4, r5, r8, r9, sl, fp, ip, lr}^
    4800:	3e2d6373 	mcrcc	3, 1, r6, cr13, cr3, {3}
    4804:	7263775f 	rsbvc	r7, r3, #24903680	; 0x17c0000
    4808:	626d6f74 	rsbvs	r6, sp, #116, 30	; 0x1d0
    480c:	6174735f 	cmnvs	r4, pc, asr r3
    4810:	00296574 	eoreq	r6, r9, r4, ror r5
    4814:	6c615f5f 	stclvs	15, cr5, [r1], #-380	; 0xfffffe84
    4818:	5f636f6c 	svcpl	0x00636f6c
    481c:	657a6973 	ldrbvs	r6, [sl, #-2419]!	; 0xfffff68d
    4820:	20297828 	eorcs	r7, r9, r8, lsr #16
    4824:	74615f5f 	strbtvc	r5, [r1], #-3935	; 0xfffff0a1
    4828:	62697274 	rsbvs	r7, r9, #116, 4	; 0x40000007
    482c:	5f657475 	svcpl	0x00657475
    4830:	5f28285f 	svcpl	0x0028285f
    4834:	6c6c615f 	stfvse	f6, [ip], #-380	; 0xfffffe84
    4838:	735f636f 	cmpvc	pc, #-1140850687	; 0xbc000001
    483c:	5f657a69 	svcpl	0x00657a69
    4840:	2978285f 	ldmdbcs	r8!, {r0, r1, r2, r3, r4, r6, fp, sp}^
    4844:	5f002929 	svcpl	0x00002929
    4848:	4e4f4c5f 	mcrmi	12, 2, r4, cr15, cr15, {2}
    484c:	49575f47 	ldmdbmi	r7, {r0, r1, r2, r6, r8, r9, sl, fp, ip, lr}^
    4850:	5f485444 	svcpl	0x00485444
    4854:	3233205f 	eorscc	r2, r3, #95	; 0x5f
    4858:	5f545f00 	svcpl	0x00545f00
    485c:	41484357 	cmpmi	r8, r7, asr r3
    4860:	00205f52 	eoreq	r5, r0, r2, asr pc
    4864:	5f44434c 	svcpl	0x0044434c
    4868:	4f495047 	svcmi	0x00495047
    486c:	696e695f 	stmdbvs	lr!, {r0, r1, r2, r3, r4, r6, r8, fp, sp, lr}^
    4870:	5f5f0074 	svcpl	0x005f0074
    4874:	43434155 	movtmi	r4, #12629	; 0x3155
    4878:	465f4d55 			; <UNDEFINED> instruction: 0x465f4d55
    487c:	5f544942 	svcpl	0x00544942
    4880:	3631205f 			; <UNDEFINED> instruction: 0x3631205f
    4884:	775f5f00 	ldrbvc	r5, [pc, -r0, lsl #30]
    4888:	5f6e7261 	svcpl	0x006e7261
    488c:	65666572 	strbvs	r6, [r6, #-1394]!	; 0xfffffa8e
    4890:	636e6572 	cmnvs	lr, #478150656	; 0x1c800000
    4894:	73287365 			; <UNDEFINED> instruction: 0x73287365
    4898:	6d2c6d79 	stcvs	13, cr6, [ip, #-484]!	; 0xfffffe1c
    489c:	20296773 	eorcs	r6, r9, r3, ror r7
    48a0:	73615f5f 	cmnvc	r1, #380	; 0x17c
    48a4:	285f5f6d 	ldmdacs	pc, {r0, r2, r3, r5, r6, r8, r9, sl, fp, ip, lr}^	; <UNPREDICTABLE>
    48a8:	65732e22 	ldrbvs	r2, [r3, #-3618]!	; 0xfffff1de
    48ac:	6f697463 	svcvs	0x00697463
    48b0:	672e206e 	strvs	r2, [lr, -lr, rrx]!
    48b4:	772e756e 	strvc	r7, [lr, -lr, ror #10]!
    48b8:	696e7261 	stmdbvs	lr!, {r0, r5, r6, r9, ip, sp, lr}^
    48bc:	222e676e 	eorcs	r6, lr, #28835840	; 0x1b80000
    48c0:	79732320 	ldmdbvc	r3!, {r5, r8, r9, sp}^
    48c4:	203b296d 	eorscs	r2, fp, sp, ror #18
    48c8:	73615f5f 	cmnvc	r1, #380	; 0x17c
    48cc:	285f5f6d 	ldmdacs	pc, {r0, r2, r3, r5, r6, r8, r9, sl, fp, ip, lr}^	; <UNPREDICTABLE>
    48d0:	73612e22 	cmnvc	r1, #544	; 0x220
    48d4:	207a6963 	rsbscs	r6, sl, r3, ror #18
    48d8:	2022225c 	eorcs	r2, r2, ip, asr r2
    48dc:	2067736d 	rsbcs	r7, r7, sp, ror #6
    48e0:	22225c22 	eorcs	r5, r2, #8704	; 0x2200
    48e4:	5f203b29 	svcpl	0x00203b29
    48e8:	6d73615f 	ldfvse	f6, [r3, #-380]!	; 0xfffffe84
    48ec:	22285f5f 	eorcs	r5, r8, #380	; 0x17c
    48f0:	6572702e 	ldrbvs	r7, [r2, #-46]!	; 0xffffffd2
    48f4:	756f6976 	strbvc	r6, [pc, #-2422]!	; 3f86 <_Min_Stack_Size+0x3b86>
    48f8:	00292273 	eoreq	r2, r9, r3, ror r2
    48fc:	4f495047 	svcmi	0x00495047
    4900:	4e49505f 	mcrmi	0, 2, r5, cr9, cr15, {2}
    4904:	2033315f 	eorscs	r3, r3, pc, asr r1
    4908:	69752828 	ldmdbvs	r5!, {r3, r5, fp, sp}^
    490c:	3631746e 	ldrtcc	r7, [r1], -lr, ror #8
    4910:	3029745f 	eorcc	r7, r9, pc, asr r4
    4914:	30303278 	eorscc	r3, r0, r8, ror r2
    4918:	5f002930 	svcpl	0x00002930
    491c:	7474615f 	ldrbtvc	r6, [r4], #-351	; 0xfffffea1
    4920:	75626972 	strbvc	r6, [r2, #-2418]!	; 0xfffff68e
    4924:	6d5f6574 	cfldr64vs	mvdx6, [pc, #-464]	; 475c <_Min_Stack_Size+0x435c>
    4928:	6f6c6c61 	svcvs	0x006c6c61
    492c:	205f5f63 	subscs	r5, pc, r3, ror #30
    4930:	575f5f00 	ldrbpl	r5, [pc, -r0, lsl #30]
    4934:	52414843 	subpl	r4, r1, #4390912	; 0x430000
    4938:	4e494d5f 	mcrmi	13, 2, r4, cr9, cr15, {2}
    493c:	30205f5f 	eorcc	r5, r0, pc, asr pc
    4940:	636c0055 	cmnvs	ip, #85	; 0x55
    4944:	65735f64 	ldrbvs	r5, [r3, #-3940]!	; 0xfffff09c
    4948:	725f646e 	subsvc	r6, pc, #1845493760	; 0x6e000000
    494c:	5f6c6165 	svcpl	0x006c6165
    4950:	626d756e 	rsbvs	r7, sp, #461373440	; 0x1b800000
    4954:	5f007265 	svcpl	0x00007265
    4958:	5151555f 	cmppl	r1, pc, asr r5
    495c:	4942495f 	stmdbmi	r2, {r0, r1, r2, r3, r4, r6, r8, fp, lr}^
    4960:	205f5f54 	subscs	r5, pc, r4, asr pc	; <UNPREDICTABLE>
    4964:	4e5f0030 	mrcmi	0, 2, r0, cr15, cr0, {1}
    4968:	494c5745 	stmdbmi	ip, {r0, r2, r6, r8, r9, sl, ip, lr}^
    496c:	45565f42 	ldrbmi	r5, [r6, #-3906]	; 0xfffff0be
    4970:	4f495352 	svcmi	0x00495352
    4974:	5f485f4e 	svcpl	0x00485f4e
    4978:	0031205f 	eorseq	r2, r1, pc, asr r0
    497c:	43475f5f 	movtmi	r5, #32607	; 0x7f5f
    4980:	54415f43 	strbpl	r5, [r1], #-3907	; 0xfffff0bd
    4984:	43494d4f 	movtmi	r4, #40271	; 0x9d4f
    4988:	4e4f4c5f 	mcrmi	12, 2, r4, cr15, cr15, {2}
    498c:	4f4c5f47 	svcmi	0x004c5f47
    4990:	465f4b43 	ldrbmi	r4, [pc], -r3, asr #22
    4994:	20454552 	subcs	r4, r5, r2, asr r5
    4998:	5f5f0032 	svcpl	0x005f0032
    499c:	43414c55 	movtmi	r4, #7253	; 0x1c55
    49a0:	5f4d5543 	svcpl	0x004d5543
    49a4:	5f4e494d 	svcpl	0x004e494d
    49a8:	2e30205f 	mrccs	0, 1, r2, cr0, cr15, {2}
    49ac:	4b4c5530 	blmi	1319e74 <_Min_Stack_Size+0x1319a74>
    49b0:	54415f00 	strbpl	r5, [r1], #-3840	; 0xfffff100
    49b4:	54495845 	strbpl	r5, [r9], #-2117	; 0xfffff7bb
    49b8:	4e59445f 	mrcmi	4, 2, r4, cr9, cr15, {2}
    49bc:	43494d41 	movtmi	r4, #40257	; 0x9d41
    49c0:	4c4c415f 	stfmie	f4, [ip], {95}	; 0x5f
    49c4:	3120434f 			; <UNDEFINED> instruction: 0x3120434f
    49c8:	6e5f5f00 	cdpvs	15, 5, cr5, cr15, cr0, {0}
    49cc:	5f646565 	svcpl	0x00646565
    49d0:	657a6973 	ldrbvs	r6, [sl, #-2419]!	; 0xfffff68d
    49d4:	5f00745f 	svcpl	0x0000745f
    49d8:	544e495f 	strbpl	r4, [lr], #-2399	; 0xfffff6a1
    49dc:	58414d5f 	stmdapl	r1, {r0, r1, r2, r3, r4, r6, r8, sl, fp, lr}^
    49e0:	30205f5f 	eorcc	r5, r0, pc, asr pc
    49e4:	66663778 			; <UNDEFINED> instruction: 0x66663778
    49e8:	66666666 	strbtvs	r6, [r6], -r6, ror #12
    49ec:	5f5f0066 	svcpl	0x005f0066
    49f0:	5f4d5241 	svcpl	0x004d5241
    49f4:	48435241 	stmdami	r3, {r0, r6, r9, ip, lr}^
    49f8:	4c003720 	stcmi	7, cr3, [r0], {32}
    49fc:	455f4443 	ldrbmi	r4, [pc, #-1091]	; 45c1 <_Min_Stack_Size+0x41c1>
    4a00:	5245544e 	subpl	r5, r5, #1308622848	; 0x4e000000
    4a04:	4f4d5f59 	svcmi	0x004d5f59
    4a08:	495f4544 	ldmdbmi	pc, {r2, r6, r8, sl, lr}^	; <UNPREDICTABLE>
    4a0c:	535f434e 	cmppl	pc, #939524097	; 0x38000001
    4a10:	54464948 	strbpl	r4, [r6], #-2376	; 0xfffff6b8
    4a14:	46464f5f 			; <UNDEFINED> instruction: 0x46464f5f
    4a18:	30783020 	rsbscc	r3, r8, r0, lsr #32
    4a1c:	50470036 	subpl	r0, r7, r6, lsr r0
    4a20:	505f4f49 	subspl	r4, pc, r9, asr #30
    4a24:	325f4e49 	subscc	r4, pc, #1168	; 0x490
    4a28:	75282820 	strvc	r2, [r8, #-2080]!	; 0xfffff7e0
    4a2c:	31746e69 	cmncc	r4, r9, ror #28
    4a30:	29745f36 	ldmdbcs	r4!, {r1, r2, r4, r5, r8, r9, sl, fp, ip, lr}^
    4a34:	30307830 	eorscc	r7, r0, r0, lsr r8
    4a38:	00293430 	eoreq	r3, r9, r0, lsr r4
    4a3c:	4c465f5f 	mcrrmi	15, 5, r5, r6, cr15
    4a40:	41525f54 	cmpmi	r2, r4, asr pc
    4a44:	5f584944 	svcpl	0x00584944
    4a48:	0032205f 	eorseq	r2, r2, pc, asr r0
    4a4c:	69727473 	ldmdbvs	r2!, {r0, r1, r4, r5, r6, sl, ip, sp, lr}^
    4a50:	20706d63 	rsbscs	r6, r0, r3, ror #26
    4a54:	63727473 	cmnvs	r2, #1929379840	; 0x73000000
    4a58:	63657361 	cmnvs	r5, #-2080374783	; 0x84000001
    4a5c:	4900706d 	stmdbmi	r0, {r0, r2, r3, r5, r6, ip, sp, lr}
    4a60:	3436544e 	ldrtcc	r5, [r6], #-1102	; 0xfffffbb2
    4a64:	58414d5f 	stmdapl	r1, {r0, r1, r2, r3, r4, r6, r8, sl, fp, lr}^
    4a68:	5f5f2820 	svcpl	0x005f2820
    4a6c:	36544e49 	ldrbcc	r4, [r4], -r9, asr #28
    4a70:	414d5f34 	cmpmi	sp, r4, lsr pc
    4a74:	295f5f58 	ldmdbcs	pc, {r3, r4, r6, r8, r9, sl, fp, ip, lr}^	; <UNPREDICTABLE>
    4a78:	415f5f00 	cmpmi	pc, r0, lsl #30
    4a7c:	465f4d52 			; <UNDEFINED> instruction: 0x465f4d52
    4a80:	55544145 	ldrbpl	r4, [r4, #-325]	; 0xfffffebb
    4a84:	435f4552 	cmpmi	pc, #343932928	; 0x14800000
    4a88:	0045534d 	subeq	r5, r5, sp, asr #6
    4a8c:	414c5f5f 	cmpmi	ip, pc, asr pc
    4a90:	4d554343 	ldclmi	3, cr4, [r5, #-268]	; 0xfffffef4
    4a94:	5350455f 	cmppl	r0, #398458880	; 0x17c00000
    4a98:	4e4f4c49 	cdpmi	12, 4, cr4, cr15, cr9, {2}
    4a9c:	30205f5f 	eorcc	r5, r0, pc, asr pc
    4aa0:	2d503178 	ldfcse	f3, [r0, #-480]	; 0xfffffe20
    4aa4:	4b4c3133 	blmi	1310f78 <_Min_Stack_Size+0x1310b78>
    4aa8:	65685400 	strbvs	r5, [r8, #-1024]!	; 0xfffffc00
    4aac:	6168635f 	cmnvs	r8, pc, asr r3
    4ab0:	5f5f0072 	svcpl	0x005f0072
    4ab4:	5f434347 	svcpl	0x00434347
    4ab8:	4d4f5441 	cfstrdmi	mvd5, [pc, #-260]	; 49bc <_Min_Stack_Size+0x45bc>
    4abc:	425f4349 	subsmi	r4, pc, #603979777	; 0x24000001
    4ac0:	5f4c4f4f 	svcpl	0x004c4f4f
    4ac4:	4b434f4c 	blmi	10d87fc <_Min_Stack_Size+0x10d83fc>
    4ac8:	4552465f 	ldrbmi	r4, [r2, #-1631]	; 0xfffff9a1
    4acc:	00322045 	eorseq	r2, r2, r5, asr #32
    4ad0:	63775f5f 	cmnvs	r7, #380	; 0x17c
    4ad4:	5f726168 	svcpl	0x00726168
    4ad8:	205f5f74 	subscs	r5, pc, r4, ror pc	; <UNPREDICTABLE>
    4adc:	45525f00 	ldrbmi	r5, [r2, #-3840]	; 0xfffff100
    4ae0:	5f544e45 	svcpl	0x00544e45
    4ae4:	54494e49 	strbpl	r4, [r9], #-3657	; 0xfffff1b7
    4ae8:	53494d5f 	movtpl	r4, #40287	; 0x9d5f
    4aec:	61762843 	cmnvs	r6, r3, asr #16
    4af0:	64202972 	strtvs	r2, [r0], #-2418	; 0xfffff68e
    4af4:	207b206f 	rsbscs	r2, fp, pc, rrx
    4af8:	75727473 	ldrbvc	r7, [r2, #-1139]!	; 0xfffffb8d
    4afc:	5f207463 	svcpl	0x00207463
    4b00:	6e656572 	mcrvs	5, 3, r6, cr5, cr2, {3}
    4b04:	5f2a2074 	svcpl	0x002a2074
    4b08:	203d2072 	eorscs	r2, sp, r2, ror r0
    4b0c:	72617628 	rsbvc	r7, r1, #40, 12	; 0x2800000
    4b10:	5f203b29 	svcpl	0x00203b29
    4b14:	5f3e2d72 	svcpl	0x003e2d72
    4b18:	6373696d 	cmnvs	r3, #1785856	; 0x1b4000
    4b1c:	735f3e2d 	cmpvc	pc, #720	; 0x2d0
    4b20:	6f747274 	svcvs	0x00747274
    4b24:	616c5f6b 	cmnvs	ip, fp, ror #30
    4b28:	3d207473 	cfstrscc	mvf7, [r0, #-460]!	; 0xfffffe34
    4b2c:	554e5f20 	strbpl	r5, [lr, #-3872]	; 0xfffff0e0
    4b30:	203b4c4c 	eorscs	r4, fp, ip, asr #24
    4b34:	3e2d725f 	mcrcc	2, 1, r7, cr13, cr15, {2}
    4b38:	73696d5f 	cmnvc	r9, #6080	; 0x17c0
    4b3c:	5f3e2d63 	svcpl	0x003e2d63
    4b40:	656c626d 	strbvs	r6, [ip, #-621]!	; 0xfffffd93
    4b44:	74735f6e 	ldrbtvc	r5, [r3], #-3950	; 0xfffff092
    4b48:	2e657461 	cdpcs	4, 6, cr7, cr5, cr1, {3}
    4b4c:	6f635f5f 	svcvs	0x00635f5f
    4b50:	20746e75 	rsbscs	r6, r4, r5, ror lr
    4b54:	3b30203d 	blcc	c0cc50 <_Min_Stack_Size+0xc0c850>
    4b58:	2d725f20 	ldclcs	15, cr5, [r2, #-128]!	; 0xffffff80
    4b5c:	696d5f3e 	stmdbvs	sp!, {r1, r2, r3, r4, r5, r8, r9, sl, fp, ip, lr}^
    4b60:	3e2d6373 	mcrcc	3, 1, r6, cr13, cr3, {3}
    4b64:	6c626d5f 	stclvs	13, cr6, [r2], #-380	; 0xfffffe84
    4b68:	735f6e65 	cmpvc	pc, #1616	; 0x650
    4b6c:	65746174 	ldrbvs	r6, [r4, #-372]!	; 0xfffffe8c
    4b70:	765f5f2e 	ldrbvc	r5, [pc], -lr, lsr #30
    4b74:	65756c61 	ldrbvs	r6, [r5, #-3169]!	; 0xfffff39f
    4b78:	775f5f2e 	ldrbvc	r5, [pc, -lr, lsr #30]
    4b7c:	3d206863 	stccc	8, cr6, [r0, #-396]!	; 0xfffffe74
    4b80:	203b3020 	eorscs	r3, fp, r0, lsr #32
    4b84:	3e2d725f 	mcrcc	2, 1, r7, cr13, cr15, {2}
    4b88:	73696d5f 	cmnvc	r9, #6080	; 0x17c0
    4b8c:	5f3e2d63 	svcpl	0x003e2d63
    4b90:	6f746377 	svcvs	0x00746377
    4b94:	735f626d 	cmpvc	pc, #-805306362	; 0xd0000006
    4b98:	65746174 	ldrbvs	r6, [r4, #-372]!	; 0xfffffe8c
    4b9c:	635f5f2e 	cmpvs	pc, #46, 30	; 0xb8
    4ba0:	746e756f 	strbtvc	r7, [lr], #-1391	; 0xfffffa91
    4ba4:	30203d20 	eorcc	r3, r0, r0, lsr #26
    4ba8:	725f203b 	subsvc	r2, pc, #59	; 0x3b
    4bac:	6d5f3e2d 	ldclvs	14, cr3, [pc, #-180]	; 4b00 <_Min_Stack_Size+0x4700>
    4bb0:	2d637369 	stclcs	3, cr7, [r3, #-420]!	; 0xfffffe5c
    4bb4:	63775f3e 	cmnvs	r7, #62, 30	; 0xf8
    4bb8:	626d6f74 	rsbvs	r6, sp, #116, 30	; 0x1d0
    4bbc:	6174735f 	cmnvs	r4, pc, asr r3
    4bc0:	5f2e6574 	svcpl	0x002e6574
    4bc4:	6c61765f 	stclvs	6, cr7, [r1], #-380	; 0xfffffe84
    4bc8:	5f2e6575 	svcpl	0x002e6575
    4bcc:	6863775f 	stmdavs	r3!, {r0, r1, r2, r3, r4, r6, r8, r9, sl, ip, sp, lr}^
    4bd0:	30203d20 	eorcc	r3, r0, r0, lsr #26
    4bd4:	725f203b 	subsvc	r2, pc, #59	; 0x3b
    4bd8:	6d5f3e2d 	ldclvs	14, cr3, [pc, #-180]	; 4b2c <_Min_Stack_Size+0x472c>
    4bdc:	2d637369 	stclcs	3, cr7, [r3, #-420]!	; 0xfffffe5c
    4be0:	626d5f3e 	rsbvs	r5, sp, #62, 30	; 0xf8
    4be4:	63776f74 	cmnvs	r7, #116, 30	; 0x1d0
    4be8:	6174735f 	cmnvs	r4, pc, asr r3
    4bec:	5f2e6574 	svcpl	0x002e6574
    4bf0:	756f635f 	strbvc	r6, [pc, #-863]!	; 4899 <_Min_Stack_Size+0x4499>
    4bf4:	3d20746e 	cfstrscc	mvf7, [r0, #-440]!	; 0xfffffe48
    4bf8:	203b3020 	eorscs	r3, fp, r0, lsr #32
    4bfc:	3e2d725f 	mcrcc	2, 1, r7, cr13, cr15, {2}
    4c00:	73696d5f 	cmnvc	r9, #6080	; 0x17c0
    4c04:	5f3e2d63 	svcpl	0x003e2d63
    4c08:	6f74626d 	svcvs	0x0074626d
    4c0c:	735f6377 	cmpvc	pc, #-603979775	; 0xdc000001
    4c10:	65746174 	ldrbvs	r6, [r4, #-372]!	; 0xfffffe8c
    4c14:	765f5f2e 	ldrbvc	r5, [pc], -lr, lsr #30
    4c18:	65756c61 	ldrbvs	r6, [r5, #-3169]!	; 0xfffff39f
    4c1c:	775f5f2e 	ldrbvc	r5, [pc, -lr, lsr #30]
    4c20:	3d206863 	stccc	8, cr6, [r0, #-396]!	; 0xfffffe74
    4c24:	203b3020 	eorscs	r3, fp, r0, lsr #32
    4c28:	3e2d725f 	mcrcc	2, 1, r7, cr13, cr15, {2}
    4c2c:	73696d5f 	cmnvc	r9, #6080	; 0x17c0
    4c30:	5f3e2d63 	svcpl	0x003e2d63
    4c34:	6c72626d 	lfmvs	f6, 2, [r2], #-436	; 0xfffffe4c
    4c38:	735f6e65 	cmpvc	pc, #1616	; 0x650
    4c3c:	65746174 	ldrbvs	r6, [r4, #-372]!	; 0xfffffe8c
    4c40:	635f5f2e 	cmpvs	pc, #46, 30	; 0xb8
    4c44:	746e756f 	strbtvc	r7, [lr], #-1391	; 0xfffffa91
    4c48:	30203d20 	eorcc	r3, r0, r0, lsr #26
    4c4c:	725f203b 	subsvc	r2, pc, #59	; 0x3b
    4c50:	6d5f3e2d 	ldclvs	14, cr3, [pc, #-180]	; 4ba4 <_Min_Stack_Size+0x47a4>
    4c54:	2d637369 	stclcs	3, cr7, [r3, #-420]!	; 0xfffffe5c
    4c58:	626d5f3e 	rsbvs	r5, sp, #62, 30	; 0xf8
    4c5c:	6e656c72 	mcrvs	12, 3, r6, cr5, cr2, {3}
    4c60:	6174735f 	cmnvs	r4, pc, asr r3
    4c64:	5f2e6574 	svcpl	0x002e6574
    4c68:	6c61765f 	stclvs	6, cr7, [r1], #-380	; 0xfffffe84
    4c6c:	5f2e6575 	svcpl	0x002e6575
    4c70:	6863775f 	stmdavs	r3!, {r0, r1, r2, r3, r4, r6, r8, r9, sl, ip, sp, lr}^
    4c74:	30203d20 	eorcc	r3, r0, r0, lsr #26
    4c78:	725f203b 	subsvc	r2, pc, #59	; 0x3b
    4c7c:	6d5f3e2d 	ldclvs	14, cr3, [pc, #-180]	; 4bd0 <_Min_Stack_Size+0x47d0>
    4c80:	2d637369 	stclcs	3, cr7, [r3, #-420]!	; 0xfffffe5c
    4c84:	626d5f3e 	rsbvs	r5, sp, #62, 30	; 0xf8
    4c88:	776f7472 			; <UNDEFINED> instruction: 0x776f7472
    4c8c:	74735f63 	ldrbtvc	r5, [r3], #-3939	; 0xfffff09d
    4c90:	2e657461 	cdpcs	4, 6, cr7, cr5, cr1, {3}
    4c94:	6f635f5f 	svcvs	0x00635f5f
    4c98:	20746e75 	rsbscs	r6, r4, r5, ror lr
    4c9c:	3b30203d 	blcc	c0cd98 <_Min_Stack_Size+0xc0c998>
    4ca0:	2d725f20 	ldclcs	15, cr5, [r2, #-128]!	; 0xffffff80
    4ca4:	696d5f3e 	stmdbvs	sp!, {r1, r2, r3, r4, r5, r8, r9, sl, fp, ip, lr}^
    4ca8:	3e2d6373 	mcrcc	3, 1, r6, cr13, cr3, {3}
    4cac:	72626d5f 	rsbvc	r6, r2, #6080	; 0x17c0
    4cb0:	63776f74 	cmnvs	r7, #116, 30	; 0x1d0
    4cb4:	6174735f 	cmnvs	r4, pc, asr r3
    4cb8:	5f2e6574 	svcpl	0x002e6574
    4cbc:	6c61765f 	stclvs	6, cr7, [r1], #-380	; 0xfffffe84
    4cc0:	5f2e6575 	svcpl	0x002e6575
    4cc4:	6863775f 	stmdavs	r3!, {r0, r1, r2, r3, r4, r6, r8, r9, sl, ip, sp, lr}^
    4cc8:	30203d20 	eorcc	r3, r0, r0, lsr #26
    4ccc:	725f203b 	subsvc	r2, pc, #59	; 0x3b
    4cd0:	6d5f3e2d 	ldclvs	14, cr3, [pc, #-180]	; 4c24 <_Min_Stack_Size+0x4824>
    4cd4:	2d637369 	stclcs	3, cr7, [r3, #-420]!	; 0xfffffe5c
    4cd8:	626d5f3e 	rsbvs	r5, sp, #62, 30	; 0xf8
    4cdc:	6f747273 	svcvs	0x00747273
    4ce0:	5f736377 	svcpl	0x00736377
    4ce4:	74617473 	strbtvc	r7, [r1], #-1139	; 0xfffffb8d
    4ce8:	5f5f2e65 	svcpl	0x005f2e65
    4cec:	6e756f63 	cdpvs	15, 7, cr6, cr5, cr3, {3}
    4cf0:	203d2074 	eorscs	r2, sp, r4, ror r0
    4cf4:	5f203b30 	svcpl	0x00203b30
    4cf8:	5f3e2d72 	svcpl	0x003e2d72
    4cfc:	6373696d 	cmnvs	r3, #1785856	; 0x1b4000
    4d00:	6d5f3e2d 	ldclvs	14, cr3, [pc, #-180]	; 4c54 <_Min_Stack_Size+0x4854>
    4d04:	74727362 	ldrbtvc	r7, [r2], #-866	; 0xfffffc9e
    4d08:	7363776f 	cmnvc	r3, #29097984	; 0x1bc0000
    4d0c:	6174735f 	cmnvs	r4, pc, asr r3
    4d10:	5f2e6574 	svcpl	0x002e6574
    4d14:	6c61765f 	stclvs	6, cr7, [r1], #-380	; 0xfffffe84
    4d18:	5f2e6575 	svcpl	0x002e6575
    4d1c:	6863775f 	stmdavs	r3!, {r0, r1, r2, r3, r4, r6, r8, r9, sl, ip, sp, lr}^
    4d20:	30203d20 	eorcc	r3, r0, r0, lsr #26
    4d24:	725f203b 	subsvc	r2, pc, #59	; 0x3b
    4d28:	6d5f3e2d 	ldclvs	14, cr3, [pc, #-180]	; 4c7c <_Min_Stack_Size+0x487c>
    4d2c:	2d637369 	stclcs	3, cr7, [r3, #-420]!	; 0xfffffe5c
    4d30:	63775f3e 	cmnvs	r7, #62, 30	; 0xf8
    4d34:	6d6f7472 	cfstrdvs	mvd7, [pc, #-456]!	; 4b74 <_Min_Stack_Size+0x4774>
    4d38:	74735f62 	ldrbtvc	r5, [r3], #-3938	; 0xfffff09e
    4d3c:	2e657461 	cdpcs	4, 6, cr7, cr5, cr1, {3}
    4d40:	6f635f5f 	svcvs	0x00635f5f
    4d44:	20746e75 	rsbscs	r6, r4, r5, ror lr
    4d48:	3b30203d 	blcc	c0ce44 <_Min_Stack_Size+0xc0ca44>
    4d4c:	2d725f20 	ldclcs	15, cr5, [r2, #-128]!	; 0xffffff80
    4d50:	696d5f3e 	stmdbvs	sp!, {r1, r2, r3, r4, r5, r8, r9, sl, fp, ip, lr}^
    4d54:	3e2d6373 	mcrcc	3, 1, r6, cr13, cr3, {3}
    4d58:	7263775f 	rsbvc	r7, r3, #24903680	; 0x17c0000
    4d5c:	626d6f74 	rsbvs	r6, sp, #116, 30	; 0x1d0
    4d60:	6174735f 	cmnvs	r4, pc, asr r3
    4d64:	5f2e6574 	svcpl	0x002e6574
    4d68:	6c61765f 	stclvs	6, cr7, [r1], #-380	; 0xfffffe84
    4d6c:	5f2e6575 	svcpl	0x002e6575
    4d70:	6863775f 	stmdavs	r3!, {r0, r1, r2, r3, r4, r6, r8, r9, sl, ip, sp, lr}^
    4d74:	30203d20 	eorcc	r3, r0, r0, lsr #26
    4d78:	725f203b 	subsvc	r2, pc, #59	; 0x3b
    4d7c:	6d5f3e2d 	ldclvs	14, cr3, [pc, #-180]	; 4cd0 <_Min_Stack_Size+0x48d0>
    4d80:	2d637369 	stclcs	3, cr7, [r3, #-420]!	; 0xfffffe5c
    4d84:	63775f3e 	cmnvs	r7, #62, 30	; 0xf8
    4d88:	6f747273 	svcvs	0x00747273
    4d8c:	5f73626d 	svcpl	0x0073626d
    4d90:	74617473 	strbtvc	r7, [r1], #-1139	; 0xfffffb8d
    4d94:	5f5f2e65 	svcpl	0x005f2e65
    4d98:	6e756f63 	cdpvs	15, 7, cr6, cr5, cr3, {3}
    4d9c:	203d2074 	eorscs	r2, sp, r4, ror r0
    4da0:	5f203b30 	svcpl	0x00203b30
    4da4:	5f3e2d72 	svcpl	0x003e2d72
    4da8:	6373696d 	cmnvs	r3, #1785856	; 0x1b4000
    4dac:	775f3e2d 	ldrbvc	r3, [pc, -sp, lsr #28]
    4db0:	74727363 	ldrbtvc	r7, [r2], #-867	; 0xfffffc9d
    4db4:	73626d6f 	cmnvc	r2, #7104	; 0x1bc0
    4db8:	6174735f 	cmnvs	r4, pc, asr r3
    4dbc:	5f2e6574 	svcpl	0x002e6574
    4dc0:	6c61765f 	stclvs	6, cr7, [r1], #-380	; 0xfffffe84
    4dc4:	5f2e6575 	svcpl	0x002e6575
    4dc8:	6863775f 	stmdavs	r3!, {r0, r1, r2, r3, r4, r6, r8, r9, sl, ip, sp, lr}^
    4dcc:	30203d20 	eorcc	r3, r0, r0, lsr #26
    4dd0:	725f203b 	subsvc	r2, pc, #59	; 0x3b
    4dd4:	6d5f3e2d 	ldclvs	14, cr3, [pc, #-180]	; 4d28 <_Min_Stack_Size+0x4928>
    4dd8:	2d637369 	stclcs	3, cr7, [r3, #-420]!	; 0xfffffe5c
    4ddc:	366c5f3e 	uqasxcc	r5, ip, lr
    4de0:	625f6134 	subsvs	r6, pc, #52, 2
    4de4:	305b6675 	subscc	r6, fp, r5, ror r6
    4de8:	203d205d 	eorscs	r2, sp, sp, asr r0
    4dec:	27305c27 	ldrcs	r5, [r0, -r7, lsr #24]!
    4df0:	725f203b 	subsvc	r2, pc, #59	; 0x3b
    4df4:	6d5f3e2d 	ldclvs	14, cr3, [pc, #-180]	; 4d48 <_Min_Stack_Size+0x4948>
    4df8:	2d637369 	stclcs	3, cr7, [r3, #-420]!	; 0xfffffe5c
    4dfc:	65675f3e 	strbvs	r5, [r7, #-3902]!	; 0xfffff0c2
    4e00:	74616474 	strbtvc	r6, [r1], #-1140	; 0xfffffb8c
    4e04:	72655f65 	rsbvc	r5, r5, #404	; 0x194
    4e08:	203d2072 	eorscs	r2, sp, r2, ror r0
    4e0c:	7d203b30 	vstmdbvc	r0!, {d3-d26}
    4e10:	69687720 	stmdbvs	r8!, {r5, r8, r9, sl, ip, sp, lr}^
    4e14:	2820656c 	stmdacs	r0!, {r2, r3, r5, r6, r8, sl, sp, lr}
    4e18:	50002930 	andpl	r2, r0, r0, lsr r9
    4e1c:	706d745f 	rsbvc	r7, sp, pc, asr r4
    4e20:	20726964 	rsbscs	r6, r2, r4, ror #18
    4e24:	6d742f22 	ldclvs	15, cr2, [r4, #-136]!	; 0xffffff78
    4e28:	5f002270 	svcpl	0x00002270
    4e2c:	4e4f4c5f 	mcrmi	12, 2, r4, cr15, cr15, {2}
    4e30:	4f4c5f47 	svcmi	0x004c5f47
    4e34:	575f474e 	ldrbpl	r4, [pc, -lr, asr #14]
    4e38:	48544449 	ldmdami	r4, {r0, r3, r6, sl, lr}^
    4e3c:	36205f5f 	qsaxcc	r5, r0, pc	; <UNPREDICTABLE>
    4e40:	49570034 	ldmdbmi	r7, {r2, r4, r5}^
    4e44:	4d5f544e 	cfldrdmi	mvd5, [pc, #-312]	; 4d14 <_Min_Stack_Size+0x4914>
    4e48:	28205841 	stmdacs	r0!, {r0, r6, fp, ip, lr}
    4e4c:	49575f5f 	ldmdbmi	r7, {r0, r1, r2, r3, r4, r6, r8, r9, sl, fp, ip, lr}^
    4e50:	4d5f544e 	cfldrdmi	mvd5, [pc, #-312]	; 4d20 <_Min_Stack_Size+0x4920>
    4e54:	5f5f5841 	svcpl	0x005f5841
    4e58:	50470029 	subpl	r0, r7, r9, lsr #32
    4e5c:	505f4f49 	subspl	r4, pc, r9, asr #30
    4e60:	315f4e49 	cmpcc	pc, r9, asr #28
    4e64:	28282030 	stmdacs	r8!, {r4, r5, sp}
    4e68:	746e6975 	strbtvc	r6, [lr], #-2421	; 0xfffff68b
    4e6c:	745f3631 	ldrbvc	r3, [pc], #-1585	; 4e74 <_Min_Stack_Size+0x4a74>
    4e70:	30783029 	rsbscc	r3, r8, r9, lsr #32
    4e74:	29303034 	ldmdbcs	r0!, {r2, r4, r5, ip, sp}
    4e78:	555f5f00 	ldrbpl	r5, [pc, #-3840]	; 3f80 <_Min_Stack_Size+0x3b80>
    4e7c:	5f544e49 	svcpl	0x00544e49
    4e80:	54534146 	ldrbpl	r4, [r3], #-326	; 0xfffffeba
    4e84:	4d5f3436 	cfldrdmi	mvd3, [pc, #-216]	; 4db4 <_Min_Stack_Size+0x49b4>
    4e88:	5f5f5841 	svcpl	0x005f5841
    4e8c:	66783020 	ldrbtvs	r3, [r8], -r0, lsr #32
    4e90:	66666666 	strbtvs	r6, [r6], -r6, ror #12
    4e94:	66666666 	strbtvs	r6, [r6], -r6, ror #12
    4e98:	66666666 	strbtvs	r6, [r6], -r6, ror #12
    4e9c:	55666666 	strbpl	r6, [r6, #-1638]!	; 0xfffff99a
    4ea0:	5f004c4c 	svcpl	0x00004c4c
    4ea4:	4d52415f 	ldfmie	f4, [r2, #-380]	; 0xfffffe84
    4ea8:	0050465f 	subseq	r4, r0, pc, asr r6
    4eac:	4f434553 	svcmi	0x00434553
    4eb0:	4c5f444e 	cfldrdmi	mvd4, [pc], {78}	; 0x4e
    4eb4:	20454e49 	subcs	r4, r5, r9, asr #28
    4eb8:	525f0031 	subspl	r0, pc, #49	; 0x31
    4ebc:	544e4545 	strbpl	r4, [lr], #-1349	; 0xfffffabb
    4ec0:	4548435f 	strbmi	r4, [r8, #-863]	; 0xfffffca1
    4ec4:	455f4b43 	ldrbmi	r4, [pc, #-2883]	; 4389 <_Min_Stack_Size+0x3f89>
    4ec8:	4752454d 	ldrbmi	r4, [r2, -sp, asr #10]
    4ecc:	59434e45 	stmdbpl	r3, {r0, r2, r6, r9, sl, fp, lr}^
    4ed0:	72617628 	rsbvc	r7, r1, #40, 12	; 0x2800000
    4ed4:	525f2029 	subspl	r2, pc, #41	; 0x29
    4ed8:	544e4545 	strbpl	r4, [lr], #-1349	; 0xfffffabb
    4edc:	4548435f 	strbmi	r4, [r8, #-863]	; 0xfffffca1
    4ee0:	76284b43 	strtvc	r4, [r8], -r3, asr #22
    4ee4:	202c7261 	eorcs	r7, ip, r1, ror #4
    4ee8:	656d655f 	strbvs	r6, [sp, #-1375]!	; 0xfffffaa1
    4eec:	6e656772 	mcrvs	7, 3, r6, cr5, cr2, {3}
    4ef0:	202c7963 	eorcs	r7, ip, r3, ror #18
    4ef4:	72616863 	rsbvc	r6, r1, #6488064	; 0x630000
    4ef8:	202c2a20 	eorcs	r2, ip, r0, lsr #20
    4efc:	4545525f 	strbmi	r5, [r5, #-607]	; 0xfffffda1
    4f00:	455f544e 	ldrbmi	r5, [pc, #-1102]	; 4aba <_Min_Stack_Size+0x46ba>
    4f04:	4752454d 	ldrbmi	r4, [r2, -sp, asr #10]
    4f08:	59434e45 	stmdbpl	r3, {r0, r2, r6, r9, sl, fp, lr}^
    4f0c:	5a49535f 	bpl	1259c90 <_Min_Stack_Size+0x1259890>
    4f10:	29202c45 	stmdbcs	r0!, {r0, r2, r6, sl, fp, sp}
    4f14:	415f5f00 	cmpmi	pc, r0, lsl #30
    4f18:	465f4d52 			; <UNDEFINED> instruction: 0x465f4d52
    4f1c:	55544145 	ldrbpl	r4, [r4, #-325]	; 0xfffffebb
    4f20:	445f4552 	ldrbmi	r4, [pc], #-1362	; 4f28 <_Min_Stack_Size+0x4b28>
    4f24:	5f005053 	svcpl	0x00005053
    4f28:	544e495f 	strbpl	r4, [lr], #-2399	; 0xfffff6a1
    4f2c:	5f525450 	svcpl	0x00525450
    4f30:	54444957 	strbpl	r4, [r4], #-2391	; 0xfffff6a9
    4f34:	205f5f48 	subscs	r5, pc, r8, asr #30
    4f38:	5f003233 	svcpl	0x00003233
    4f3c:	4343475f 	movtmi	r4, #14175	; 0x375f
    4f40:	4f54415f 	svcmi	0x0054415f
    4f44:	5f43494d 	svcpl	0x0043494d
    4f48:	4e4f4c4c 	cdpmi	12, 4, cr4, cr15, cr12, {2}
    4f4c:	4f4c5f47 	svcmi	0x004c5f47
    4f50:	465f4b43 	ldrbmi	r4, [pc], -r3, asr #22
    4f54:	20454552 	subcs	r4, r5, r2, asr r5
    4f58:	4e450031 	mcrmi	0, 2, r0, cr5, cr1, {1}
    4f5c:	49504720 	ldmdbmi	r0, {r5, r8, r9, sl, lr}^
    4f60:	49505f4f 	ldmdbmi	r0, {r0, r1, r2, r3, r6, r8, r9, sl, fp, ip, lr}^
    4f64:	30315f4e 	eorscc	r5, r1, lr, asr #30
    4f68:	49504700 	ldmdbmi	r0, {r8, r9, sl, lr}^
    4f6c:	554f5f4f 	strbpl	r5, [pc, #-3919]	; 4025 <_Min_Stack_Size+0x3c25>
    4f70:	54555054 	ldrbpl	r5, [r5], #-84	; 0xffffffac
    4f74:	4550535f 	ldrbmi	r5, [r0, #-863]	; 0xfffffca1
    4f78:	5f004445 	svcpl	0x00004445
    4f7c:	544c465f 	strbpl	r4, [ip], #-1631	; 0xfffff9a1
    4f80:	5f583233 	svcpl	0x00583233
    4f84:	5f4e494d 	svcpl	0x004e494d
    4f88:	2e32205f 	mrccs	0, 1, r2, cr2, cr15, {2}
    4f8c:	30353232 	eorscc	r3, r5, r2, lsr r2
    4f90:	35383337 	ldrcc	r3, [r8, #-823]!	; 0xfffffcc9
    4f94:	37303538 			; <UNDEFINED> instruction: 0x37303538
    4f98:	34313032 	ldrtcc	r3, [r1], #-50	; 0xffffffce
    4f9c:	30332d65 	eorscc	r2, r3, r5, ror #26
    4fa0:	32334638 	eorscc	r4, r3, #56, 12	; 0x3800000
    4fa4:	50470078 	subpl	r0, r7, r8, ror r0
    4fa8:	525f4f49 	subspl	r4, pc, #292	; 0x124
    4fac:	52555445 	subspl	r5, r5, #1157627904	; 0x45000000
    4fb0:	4f4c5f4e 	svcmi	0x004c5f4e
    4fb4:	4f5f4b43 	svcmi	0x005f4b43
    4fb8:	0031204b 	eorseq	r2, r1, fp, asr #32
    4fbc:	4545525f 	strbmi	r5, [r5, #-607]	; 0xfffffda1
    4fc0:	525f544e 	subspl	r5, pc, #1308622848	; 0x4e000000
    4fc4:	34444e41 	strbcc	r4, [r4], #-3649	; 0xfffff1bf
    4fc8:	554d5f38 	strbpl	r5, [sp, #-3896]	; 0xfffff0c8
    4fcc:	7028544c 	eorvc	r5, r8, ip, asr #8
    4fd0:	20297274 	eorcs	r7, r9, r4, ror r2
    4fd4:	74702828 	ldrbtvc	r2, [r0], #-2088	; 0xfffff7d8
    4fd8:	3e2d2972 			; <UNDEFINED> instruction: 0x3e2d2972
    4fdc:	3834725f 	ldmdacc	r4!, {r0, r1, r2, r3, r4, r6, r9, ip, sp, lr}
    4fe0:	6d5f3e2d 	ldclvs	14, cr3, [pc, #-180]	; 4f34 <_Min_Stack_Size+0x4b34>
    4fe4:	29746c75 	ldmdbcs	r4!, {r0, r2, r4, r5, r6, sl, fp, sp, lr}^
    4fe8:	465f5f00 	ldrbmi	r5, [pc], -r0, lsl #30
    4fec:	3436544c 	ldrtcc	r5, [r6], #-1100	; 0xfffffbb4
    4ff0:	58414d5f 	stmdapl	r1, {r0, r1, r2, r3, r4, r6, r8, sl, fp, lr}^
    4ff4:	5058455f 	subspl	r4, r8, pc, asr r5
    4ff8:	31205f5f 			; <UNDEFINED> instruction: 0x31205f5f
    4ffc:	00343230 	eorseq	r3, r4, r0, lsr r2
    5000:	43575f5f 	cmpmi	r7, #380	; 0x17c
    5004:	5f524148 	svcpl	0x00524148
    5008:	4d002054 	stcmi	0, cr2, [r0, #-336]	; 0xfffffeb0
    500c:	55435f42 	strbpl	r5, [r3, #-3906]	; 0xfffff0be
    5010:	414d5f52 	cmpmi	sp, r2, asr pc
    5014:	5f5f2058 	svcpl	0x005f2058
    5018:	61636f6c 	cmnvs	r3, ip, ror #30
    501c:	6d5f656c 	cfldr64vs	mvdx6, [pc, #-432]	; 4e74 <_Min_Stack_Size+0x4a74>
    5020:	75635f62 	strbvc	r5, [r3, #-3938]!	; 0xfffff09e
    5024:	616d5f72 	smcvs	54770	; 0xd5f2
    5028:	00292878 	eoreq	r2, r9, r8, ror r8
    502c:	4c465f5f 	mcrrmi	15, 5, r5, r6, cr15
    5030:	5f343654 	svcpl	0x00343654
    5034:	5f4e494d 	svcpl	0x004e494d
    5038:	2e32205f 	mrccs	0, 1, r2, cr2, cr15, {2}
    503c:	30353232 	eorscc	r3, r5, r2, lsr r2
    5040:	35383337 	ldrcc	r3, [r8, #-823]!	; 0xfffffcc9
    5044:	37303538 			; <UNDEFINED> instruction: 0x37303538
    5048:	34313032 	ldrtcc	r3, [r1], #-50	; 0xffffffce
    504c:	30332d65 	eorscc	r2, r3, r5, ror #26
    5050:	34364638 	ldrtcc	r4, [r6], #-1592	; 0xfffff9c8
    5054:	5f5f5f00 	svcpl	0x005f5f00
    5058:	33746e69 	cmncc	r4, #1680	; 0x690
    505c:	5f745f32 	svcpl	0x00745f32
    5060:	69666564 	stmdbvs	r6!, {r2, r5, r6, r8, sl, sp, lr}^
    5064:	2064656e 	rsbcs	r6, r4, lr, ror #10
    5068:	485f0031 	ldmdami	pc, {r0, r4, r5}^	; <UNPREDICTABLE>
    506c:	5f455641 	svcpl	0x00455641
    5070:	495f4343 	ldmdbmi	pc, {r0, r1, r6, r8, r9, lr}^	; <UNPREDICTABLE>
    5074:	4249484e 	submi	r4, r9, #5111808	; 0x4e0000
    5078:	4c5f5449 	cfldrdmi	mvd5, [pc], {73}	; 0x49
    507c:	5f504f4f 	svcpl	0x00504f4f
    5080:	4c5f4f54 	mrrcmi	15, 5, r4, pc, cr4	; <UNPREDICTABLE>
    5084:	41434249 	cmpmi	r3, r9, asr #4
    5088:	31204c4c 			; <UNDEFINED> instruction: 0x31204c4c
    508c:	4e5f5f00 	cdpmi	15, 5, cr5, cr15, cr0, {0}
    5090:	414c4c55 	cmpmi	ip, r5, asr ip
    5094:	494c4942 	stmdbmi	ip, {r1, r6, r8, fp, lr}^
    5098:	505f5954 	subspl	r5, pc, r4, asr r9	; <UNPREDICTABLE>
    509c:	4d474152 	stfmie	f4, [r7, #-328]	; 0xfffffeb8
    50a0:	4f505f41 	svcmi	0x00505f41
    50a4:	5f002050 	svcpl	0x00002050
    50a8:	4d52415f 	ldfmie	f4, [r2, #-380]	; 0xfffffe84
    50ac:	4352415f 	cmpmi	r2, #-1073741801	; 0xc0000017
    50b0:	52505f48 	subspl	r5, r0, #72, 30	; 0x120
    50b4:	4c49464f 	mcrrmi	6, 4, r4, r9, cr15
    50b8:	5f5f0045 	svcpl	0x005f0045
    50bc:	36544e49 	ldrbcc	r4, [r4], -r9, asr #28
    50c0:	59545f34 	ldmdbpl	r4, {r2, r4, r5, r8, r9, sl, fp, ip, lr}^
    50c4:	5f5f4550 	svcpl	0x005f4550
    50c8:	6e6f6c20 	cdpvs	12, 6, cr6, cr15, cr0, {1}
    50cc:	6f6c2067 	svcvs	0x006c2067
    50d0:	6920676e 	stmdbvs	r0!, {r1, r2, r3, r5, r6, r8, r9, sl, sp, lr}
    50d4:	5f00746e 	svcpl	0x0000746e
    50d8:	52464c5f 	subpl	r4, r6, #24320	; 0x5f00
    50dc:	5f544341 	svcpl	0x00544341
    50e0:	54494246 	strbpl	r4, [r9], #-582	; 0xfffffdba
    50e4:	33205f5f 			; <UNDEFINED> instruction: 0x33205f5f
    50e8:	5f5f0031 	svcpl	0x005f0031
    50ec:	52414843 	subpl	r4, r1, #4390912	; 0x430000
    50f0:	5449425f 	strbpl	r4, [r9], #-607	; 0xfffffda1
    50f4:	38205f5f 	stmdacc	r0!, {r0, r1, r2, r3, r4, r6, r8, r9, sl, fp, ip, lr}
    50f8:	535f5f00 	cmppl	pc, #0, 30
    50fc:	4f455a49 	svcmi	0x00455a49
    5100:	43575f46 	cmpmi	r7, #280	; 0x118
    5104:	5f524148 	svcpl	0x00524148
    5108:	205f5f54 	subscs	r5, pc, r4, asr pc	; <UNPREDICTABLE>
    510c:	735f0034 	cmpvc	pc, #52	; 0x34
    5110:	6e696474 	mcrvs	4, 3, r6, cr9, cr4, {3}
    5114:	7828725f 	stmdavc	r8!, {r0, r1, r2, r3, r4, r6, r9, ip, sp, lr}
    5118:	28282029 	stmdacs	r8!, {r0, r3, r5, sp}
    511c:	3e2d2978 			; <UNDEFINED> instruction: 0x3e2d2978
    5120:	6474735f 	ldrbtvs	r7, [r4], #-863	; 0xfffffca1
    5124:	00296e69 	eoreq	r6, r9, r9, ror #28
    5128:	53425f5f 	movtpl	r5, #12127	; 0x2f5f
    512c:	49565f44 	ldmdbmi	r6, {r2, r6, r8, r9, sl, fp, ip, lr}^
    5130:	4c424953 	mcrrmi	9, 5, r4, r2, cr3	; <UNPREDICTABLE>
    5134:	00312045 	eorseq	r2, r1, r5, asr #32
    5138:	4c465f5f 	mcrrmi	15, 5, r5, r6, cr15
    513c:	5f343654 	svcpl	0x00343654
    5140:	5f4e494d 	svcpl	0x004e494d
    5144:	5f505845 	svcpl	0x00505845
    5148:	2d28205f 	stccs	0, cr2, [r8, #-380]!	; 0xfffffe84
    514c:	31323031 	teqcc	r2, r1, lsr r0
    5150:	5f5f0029 	svcpl	0x005f0029
    5154:	73756e75 	cmnvc	r5, #1872	; 0x750
    5158:	5f206465 	svcpl	0x00206465
    515c:	7474615f 	ldrbtvc	r6, [r4], #-351	; 0xfffffea1
    5160:	75626972 	strbvc	r6, [r2, #-2418]!	; 0xfffff68e
    5164:	5f5f6574 	svcpl	0x005f6574
    5168:	5f5f2828 	svcpl	0x005f2828
    516c:	73756e75 	cmnvc	r5, #1872	; 0x750
    5170:	5f5f6465 	svcpl	0x005f6465
    5174:	47002929 	strmi	r2, [r0, -r9, lsr #18]
    5178:	5f4f4950 	svcpl	0x004f4950
    517c:	45455053 	strbmi	r5, [r5, #-83]	; 0xffffffad
    5180:	30315f44 	eorscc	r5, r1, r4, asr #30
    5184:	207a484d 	rsbscs	r4, sl, sp, asr #16
    5188:	30307830 	eorscc	r7, r0, r0, lsr r8
    518c:	30303030 	eorscc	r3, r0, r0, lsr r0
    5190:	00753130 	rsbseq	r3, r5, r0, lsr r1
    5194:	6f6e5f5f 	svcvs	0x006e5f5f
    5198:	6c756e6e 	ldclvs	14, cr6, [r5], #-440	; 0xfffffe48
    519c:	6c615f6c 	stclvs	15, cr5, [r1], #-432	; 0xfffffe50
    51a0:	5f5f206c 	svcpl	0x005f206c
    51a4:	72747461 	rsbsvc	r7, r4, #1627389952	; 0x61000000
    51a8:	74756269 	ldrbtvc	r6, [r5], #-617	; 0xfffffd97
    51ac:	285f5f65 	ldmdacs	pc, {r0, r2, r5, r6, r8, r9, sl, fp, ip, lr}^	; <UNPREDICTABLE>
    51b0:	6e5f5f28 	cdpvs	15, 5, cr5, cr15, cr8, {1}
    51b4:	756e6e6f 	strbvc	r6, [lr, #-3695]!	; 0xfffff191
    51b8:	5f5f6c6c 	svcpl	0x005f6c6c
    51bc:	5f002929 	svcpl	0x00002929
    51c0:	5353415f 	cmppl	r3, #-1073741801	; 0xc0000017
    51c4:	5f545245 	svcpl	0x00545245
    51c8:	434e5546 	movtmi	r5, #58694	; 0xe546
    51cc:	665f5f20 	ldrbvs	r5, [pc], -r0, lsr #30
    51d0:	5f636e75 	svcpl	0x00636e75
    51d4:	5f5f005f 	svcpl	0x005f005f
    51d8:	41524655 	cmpmi	r2, r5, asr r6
    51dc:	4d5f5443 	cfldrdmi	mvd5, [pc, #-268]	; 50d8 <_Min_Stack_Size+0x4cd8>
    51e0:	5f5f5841 	svcpl	0x005f5841
    51e4:	46583020 	ldrbmi	r3, [r8], -r0, lsr #32
    51e8:	50464646 	subpl	r4, r6, r6, asr #12
    51ec:	5536312d 	ldrpl	r3, [r6, #-301]!	; 0xfffffed3
    51f0:	50470052 	subpl	r0, r7, r2, asr r0
    51f4:	535f4f49 	cmppl	pc, #292	; 0x124
    51f8:	44454550 	strbmi	r4, [r5], #-1360	; 0xfffffab0
    51fc:	4d30355f 	cfldr32mi	mvfx3, [r0, #-380]!	; 0xfffffe84
    5200:	30207a48 	eorcc	r7, r0, r8, asr #20
    5204:	30303078 	eorscc	r3, r0, r8, ror r0
    5208:	30303030 	eorscc	r3, r0, r0, lsr r0
    520c:	5f007533 	svcpl	0x00007533
    5210:	6e695f5f 	mcrvs	15, 3, r5, cr9, cr15, {2}
    5214:	656c5f74 	strbvs	r5, [ip, #-3956]!	; 0xfffff08c
    5218:	36747361 	ldrbtcc	r7, [r4], -r1, ror #6
    521c:	5f745f34 	svcpl	0x00745f34
    5220:	69666564 	stmdbvs	r6!, {r2, r5, r6, r8, sl, sp, lr}^
    5224:	2064656e 	rsbcs	r6, r4, lr, ror #10
    5228:	545f0031 	ldrbpl	r0, [pc], #-49	; 5230 <_Min_Stack_Size+0x4e30>
    522c:	5f454d49 	svcpl	0x00454d49
    5230:	45445f54 	strbmi	r5, [r4, #-3924]	; 0xfffff0ac
    5234:	52414c43 	subpl	r4, r1, #17152	; 0x4300
    5238:	00204445 	eoreq	r4, r0, r5, asr #8
    523c:	4e41575f 	mcrmi	7, 2, r5, cr1, cr15, {2}
    5240:	45525f54 	ldrbmi	r5, [r2, #-3924]	; 0xfffff0ac
    5244:	5f544e45 	svcpl	0x00544e45
    5248:	4c414d53 	mcrrmi	13, 5, r4, r1, cr3
    524c:	0031204c 	eorseq	r2, r1, ip, asr #32
    5250:	48545f5f 	ldmdami	r4, {r0, r1, r2, r3, r4, r6, r8, r9, sl, fp, ip, lr}^
    5254:	20574f52 	subscs	r4, r7, r2, asr pc
    5258:	45525f00 	ldrbmi	r5, [r2, #-3840]	; 0xfffff100
    525c:	5f544e45 	svcpl	0x00544e45
    5260:	43454843 	movtmi	r4, #22595	; 0x5843
    5264:	504d5f4b 	subpl	r5, sp, fp, asr #30
    5268:	72617628 	rsbvc	r7, r1, #40, 12	; 0x2800000
    526c:	525f2029 	subspl	r2, pc, #41	; 0x29
    5270:	544e4545 	strbpl	r4, [lr], #-1349	; 0xfffffabb
    5274:	4548435f 	strbmi	r4, [r8, #-863]	; 0xfffffca1
    5278:	76284b43 	strtvc	r4, [r8], -r3, asr #22
    527c:	202c7261 	eorcs	r7, ip, r1, ror #4
    5280:	2c706d5f 	ldclcs	13, cr6, [r0], #-380	; 0xfffffe84
    5284:	72747320 	rsbsvc	r7, r4, #32, 6	; 0x80000000
    5288:	20746375 	rsbscs	r6, r4, r5, ror r3
    528c:	72706d5f 	rsbsvc	r6, r0, #6080	; 0x17c0
    5290:	2a206365 	bcs	81e02c <_Min_Stack_Size+0x81dc2c>
    5294:	6973202c 	ldmdbvs	r3!, {r2, r3, r5, sp}^
    5298:	666f657a 			; <UNDEFINED> instruction: 0x666f657a
    529c:	28282a20 	stmdacs	r8!, {r5, r9, fp, sp}
    52a0:	29726176 	ldmdbcs	r2!, {r1, r2, r4, r5, r6, r8, sp, lr}^
    52a4:	6d5f3e2d 	ldclvs	14, cr3, [pc, #-180]	; 51f8 <_Min_Stack_Size+0x4df8>
    52a8:	202c2970 	eorcs	r2, ip, r0, ror r9
    52ac:	4545525f 	strbmi	r5, [r5, #-607]	; 0xfffffda1
    52b0:	495f544e 	ldmdbmi	pc, {r1, r2, r3, r6, sl, ip, lr}^	; <UNPREDICTABLE>
    52b4:	5f54494e 	svcpl	0x0054494e
    52b8:	7628504d 	strtvc	r5, [r8], -sp, asr #32
    52bc:	29297261 	stmdbcs	r9!, {r0, r5, r6, r9, ip, sp, lr}
    52c0:	74757000 	ldrbtvc	r7, [r5], #-0
    52c4:	72616863 	rsbvc	r6, r1, #6488064	; 0x630000
    52c8:	6c6e755f 	cfstr64vs	mvdx7, [lr], #-380	; 0xfffffe84
    52cc:	656b636f 	strbvs	r6, [fp, #-879]!	; 0xfffffc91
    52d0:	635f2864 	cmpvs	pc, #100, 16	; 0x640000
    52d4:	705f2029 	subsvc	r2, pc, r9, lsr #32
    52d8:	68637475 	stmdavs	r3!, {r0, r2, r4, r5, r6, sl, ip, sp, lr}^
    52dc:	755f7261 	ldrbvc	r7, [pc, #-609]	; 5083 <_Min_Stack_Size+0x4c83>
    52e0:	636f6c6e 	cmnvs	pc, #28160	; 0x6e00
    52e4:	2864656b 	stmdacs	r4!, {r0, r1, r3, r5, r6, r8, sl, sp, lr}^
    52e8:	0029635f 	eoreq	r6, r9, pc, asr r3
    52ec:	4349564e 	movtmi	r5, #38478	; 0x964e
    52f0:	5152495f 	cmppl	r2, pc, asr r9
    52f4:	58455f39 	stmdapl	r5, {r0, r3, r4, r5, r8, r9, sl, fp, ip, lr}^
    52f8:	5f334954 	svcpl	0x00334954
    52fc:	42414e45 	submi	r4, r1, #1104	; 0x450
    5300:	2820454c 	stmdacs	r0!, {r2, r3, r6, r8, sl, lr}
    5304:	4349564e 	movtmi	r5, #38478	; 0x964e
    5308:	4553495f 	ldrbmi	r4, [r3, #-2399]	; 0xfffff6a1
    530c:	7c203052 	stcvc	0, cr3, [r0], #-328	; 0xfffffeb8
    5310:	3c31203d 	ldccc	0, cr2, [r1], #-244	; 0xffffff0c
    5314:	0029393c 	eoreq	r3, r9, ip, lsr r9
    5318:	46535f5f 	usaxmi	r5, r3, pc	; <UNPREDICTABLE>
    531c:	54434152 	strbpl	r4, [r3], #-338	; 0xfffffeae
    5320:	4942495f 	stmdbmi	r2, {r0, r1, r2, r3, r4, r6, r8, fp, lr}^
    5324:	205f5f54 	subscs	r5, pc, r4, asr pc	; <UNPREDICTABLE>
    5328:	415f0030 	cmpmi	pc, r0, lsr r0	; <UNPREDICTABLE>
    532c:	4c494654 	mcrrmi	6, 5, r4, r9, cr4
    5330:	4f535f45 	svcmi	0x00535f45
    5334:	45435255 	strbmi	r5, [r3, #-597]	; 0xfffffdab
    5338:	5f003120 	svcpl	0x00003120
    533c:	4454535f 	ldrbmi	r5, [r4], #-863	; 0xfffffca1
    5340:	5f544e49 	svcpl	0x00544e49
    5344:	28505845 	ldmdacs	r0, {r0, r2, r6, fp, ip, lr}^
    5348:	5f202978 	svcpl	0x00202978
    534c:	2323205f 			; <UNDEFINED> instruction: 0x2323205f
    5350:	23232078 			; <UNDEFINED> instruction: 0x23232078
    5354:	5f005f5f 	svcpl	0x00005f5f
    5358:	5058455f 	subspl	r4, r8, pc, asr r5
    535c:	20297828 	eorcs	r7, r9, r8, lsr #16
    5360:	23205f5f 			; <UNDEFINED> instruction: 0x23205f5f
    5364:	23207823 			; <UNDEFINED> instruction: 0x23207823
    5368:	005f5f23 	subseq	r5, pc, r3, lsr #30
    536c:	59425f5f 	stmdbpl	r2, {r0, r1, r2, r3, r4, r6, r8, r9, sl, fp, ip, lr}^
    5370:	4f5f4554 	svcmi	0x005f4554
    5374:	52454452 	subpl	r4, r5, #1375731712	; 0x52000000
    5378:	5f205f5f 	svcpl	0x00205f5f
    537c:	44524f5f 	ldrbmi	r4, [r2], #-3935	; 0xfffff0a1
    5380:	4c5f5245 	lfmmi	f5, 2, [pc], {69}	; 0x45
    5384:	4c545449 	cfldrdmi	mvd5, [r4], {73}	; 0x49
    5388:	4e455f45 	cdpmi	15, 4, cr5, cr5, cr5, {2}
    538c:	4e414944 	vmlsmi.f16	s9, s2, s8	; <UNPREDICTABLE>
    5390:	5f005f5f 	svcpl	0x00005f5f
    5394:	544c465f 	strbpl	r4, [ip], #-1631	; 0xfffff9a1
    5398:	455f3233 	ldrbmi	r3, [pc, #-563]	; 516d <_Min_Stack_Size+0x4d6d>
    539c:	4c495350 	mcrrmi	3, 5, r5, r9, cr0
    53a0:	5f5f4e4f 	svcpl	0x005f4e4f
    53a4:	312e3120 			; <UNDEFINED> instruction: 0x312e3120
    53a8:	39303239 	ldmdbcc	r0!, {r0, r3, r4, r5, r9, ip, sp}
    53ac:	35393832 	ldrcc	r3, [r9, #-2098]!	; 0xfffff7ce
    53b0:	38373035 	ldmdacc	r7!, {r0, r2, r4, r5, ip, sp}
    53b4:	65353231 	ldrvs	r3, [r5, #-561]!	; 0xfffffdcf
    53b8:	3346372d 	movtcc	r3, #26413	; 0x672d
    53bc:	5f5f0032 	svcpl	0x005f0032
    53c0:	5f4d5241 	svcpl	0x004d5241
    53c4:	4e4f454e 	cdpmi	5, 4, cr4, cr15, cr14, {2}
    53c8:	0050465f 	subseq	r4, r0, pc, asr r6
    53cc:	544f4e5f 	strbpl	r4, [pc], #-3679	; 53d4 <_Min_Stack_Size+0x4fd4>
    53d0:	574f5248 	strbpl	r5, [pc, -r8, asr #4]
    53d4:	5f5f0020 	svcpl	0x005f0020
    53d8:	6f656673 	svcvs	0x00656673
    53dc:	29702866 	ldmdbcs	r0!, {r1, r2, r5, r6, fp, sp}^
    53e0:	69282820 	stmdbvs	r8!, {r5, fp, sp}
    53e4:	2829746e 	stmdacs	r9!, {r1, r2, r3, r5, r6, sl, ip, sp, lr}
    53e8:	29702828 	ldmdbcs	r0!, {r3, r5, fp, sp}^
    53ec:	665f3e2d 	ldrbvs	r3, [pc], -sp, lsr #28
    53f0:	7367616c 	cmnvc	r7, #108, 2
    53f4:	5f202620 	svcpl	0x00202620
    53f8:	4f45535f 	svcmi	0x0045535f
    53fc:	21202946 			; <UNDEFINED> instruction: 0x21202946
    5400:	2930203d 	ldmdbcs	r0!, {r0, r2, r3, r4, r5, sp}
    5404:	415f0029 	cmpmi	pc, r9, lsr #32
    5408:	4449534e 	strbmi	r5, [r9], #-846	; 0xfffffcb2
    540c:	5f4c4345 	svcpl	0x004c4345
    5410:	00205f48 	eoreq	r5, r0, r8, asr #30
    5414:	49545845 	ldmdbmi	r4, {r0, r2, r6, fp, ip, lr}^
    5418:	495f3031 	ldmdbmi	pc, {r0, r4, r5, ip, sp}^	; <UNPREDICTABLE>
    541c:	34205152 	strtcc	r5, [r0], #-338	; 0xfffffeae
    5420:	4f450030 	svcmi	0x00450030
    5424:	2d282046 	stccs	0, cr2, [r8, #-280]!	; 0xfffffee8
    5428:	5f002931 	svcpl	0x00002931
    542c:	4749535f 	smlsldmi	r5, r9, pc, r3	; <UNPREDICTABLE>
    5430:	4f54415f 	svcmi	0x0054415f
    5434:	5f43494d 	svcpl	0x0043494d
    5438:	45505954 	ldrbmi	r5, [r0, #-2388]	; 0xfffff6ac
    543c:	69205f5f 	stmdbvs	r0!, {r0, r1, r2, r3, r4, r6, r8, r9, sl, fp, ip, lr}
    5440:	6300746e 	movwvs	r7, #1134	; 0x46e
    5444:	746e756f 	strbtvc	r7, [lr], #-1391	; 0xfffffa91
    5448:	54584500 	ldrbpl	r4, [r8], #-1280	; 0xfffffb00
    544c:	5f343149 	svcpl	0x00343149
    5450:	20515249 	subscs	r5, r1, r9, asr #4
    5454:	43003034 	movwmi	r3, #52	; 0x34
    5458:	6574726f 	ldrbvs	r7, [r4, #-623]!	; 0xfffffd91
    545c:	334d5f78 	movtcc	r5, #57208	; 0xdf78
    5460:	746e495f 	strbtvc	r4, [lr], #-2399	; 0xfffff6a1
    5464:	616e7265 	cmnvs	lr, r5, ror #4
    5468:	65505f6c 	ldrbvs	r5, [r0, #-3948]	; 0xfffff094
    546c:	68706972 	ldmdavs	r0!, {r1, r4, r5, r6, r8, fp, sp, lr}^
    5470:	6c617265 	sfmvs	f7, 2, [r1], #-404	; 0xfffffe6c
    5474:	41425f73 	hvcmi	9715	; 0x25f3
    5478:	30204553 	eorcc	r4, r0, r3, asr r5
    547c:	30304578 	eorscc	r4, r0, r8, ror r5
    5480:	30303030 	eorscc	r3, r0, r0, lsr r0
    5484:	004c5530 	subeq	r5, ip, r0, lsr r5
    5488:	46555f5f 	usaxmi	r5, r5, pc	; <UNPREDICTABLE>
    548c:	54434152 	strbpl	r4, [r3], #-338	; 0xfffffeae
    5490:	4942465f 	stmdbmi	r2, {r0, r1, r2, r3, r4, r6, r9, sl, lr}^
    5494:	205f5f54 	subscs	r5, pc, r4, asr pc	; <UNPREDICTABLE>
    5498:	5f003631 	svcpl	0x00003631
    549c:	5144555f 	cmppl	r4, pc, asr r5
    54a0:	4942465f 	stmdbmi	r2, {r0, r1, r2, r3, r4, r6, r9, sl, lr}^
    54a4:	205f5f54 	subscs	r5, pc, r4, asr pc	; <UNPREDICTABLE>
    54a8:	5f003436 	svcpl	0x00003436
    54ac:	4c42445f 	cfstrdmi	mvd4, [r2], {95}	; 0x5f
    54b0:	524f4e5f 	subpl	r4, pc, #1520	; 0x5f0
    54b4:	414d5f4d 	cmpmi	sp, sp, asr #30
    54b8:	205f5f58 	subscs	r5, pc, r8, asr pc	; <UNPREDICTABLE>
    54bc:	6f642828 	svcvs	0x00642828
    54c0:	656c6275 	strbvs	r6, [ip, #-629]!	; 0xfffffd8b
    54c4:	372e3129 	strcc	r3, [lr, -r9, lsr #2]!
    54c8:	39363739 	ldmdbcc	r6!, {r0, r3, r4, r5, r8, r9, sl, ip, sp}
    54cc:	34333133 	ldrtcc	r3, [r3], #-307	; 0xfffffecd
    54d0:	33323638 	teqcc	r2, #56, 12	; 0x3800000
    54d4:	65373531 	ldrvs	r3, [r7, #-1329]!	; 0xfffffacf
    54d8:	3830332b 	ldmdacc	r0!, {r0, r1, r3, r5, r8, r9, ip, sp}
    54dc:	5f00294c 	svcpl	0x0000294c
    54e0:	554e475f 	strbpl	r4, [lr, #-1887]	; 0xfffff8a1
    54e4:	4b494c43 	blmi	12585f8 <_Min_Stack_Size+0x12581f8>
    54e8:	55425f45 	strbpl	r5, [r2, #-3909]	; 0xfffff0bb
    54ec:	49544c49 	ldmdbmi	r4, {r0, r3, r6, sl, fp, lr}^
    54f0:	454d5f4e 	strbmi	r5, [sp, #-3918]	; 0xfffff0b2
    54f4:	5950434d 	ldmdbpl	r0, {r0, r2, r3, r6, r8, r9, lr}^
    54f8:	5f003120 	svcpl	0x00003120
    54fc:	42444c5f 	submi	r4, r4, #24320	; 0x5f00
    5500:	414d5f4c 	cmpmi	sp, ip, asr #30
    5504:	30315f58 	eorscc	r5, r1, r8, asr pc
    5508:	5058455f 	subspl	r4, r8, pc, asr r5
    550c:	33205f5f 			; <UNDEFINED> instruction: 0x33205f5f
    5510:	5f003830 	svcpl	0x00003830
    5514:	5f535953 	svcpl	0x00535953
    5518:	45484353 	strbmi	r4, [r8, #-851]	; 0xfffffcad
    551c:	5f485f44 	svcpl	0x00485f44
    5520:	5f5f0020 	svcpl	0x005f0020
    5524:	464f4553 			; <UNDEFINED> instruction: 0x464f4553
    5528:	30783020 	rsbscc	r3, r8, r0, lsr #32
    552c:	00303230 	eorseq	r3, r0, r0, lsr r2
    5530:	4545525f 	strbmi	r5, [r5, #-607]	; 0xfffffda1
    5534:	4d5f544e 	cfldrdmi	mvd5, [pc, #-312]	; 5404 <_Min_Stack_Size+0x5004>
    5538:	454c5242 	strbmi	r5, [ip, #-578]	; 0xfffffdbe
    553c:	54535f4e 	ldrbpl	r5, [r3], #-3918	; 0xfffff0b2
    5540:	28455441 	stmdacs	r5, {r0, r6, sl, ip, lr}^
    5544:	29727470 	ldmdbcs	r2!, {r4, r5, r6, sl, ip, sp, lr}^
    5548:	70282820 	eorvc	r2, r8, r0, lsr #16
    554c:	2d297274 	sfmcs	f7, 4, [r9, #-464]!	; 0xfffffe30
    5550:	696d5f3e 	stmdbvs	sp!, {r1, r2, r3, r4, r5, r8, r9, sl, fp, ip, lr}^
    5554:	3e2d6373 	mcrcc	3, 1, r6, cr13, cr3, {3}
    5558:	72626d5f 	rsbvc	r6, r2, #6080	; 0x17c0
    555c:	5f6e656c 	svcpl	0x006e656c
    5560:	74617473 	strbtvc	r7, [r1], #-1139	; 0xfffffb8d
    5564:	5f002965 	svcpl	0x00002965
    5568:	4c42445f 	cfstrdmi	mvd4, [r2], {95}	; 0x5f
    556c:	4e45445f 	mcrmi	4, 2, r4, cr5, cr15, {2}
    5570:	5f4d524f 	svcpl	0x004d524f
    5574:	5f4e494d 	svcpl	0x004e494d
    5578:	2828205f 	stmdacs	r8!, {r0, r1, r2, r3, r4, r6, sp}
    557c:	62756f64 	rsbsvs	r6, r5, #100, 30	; 0x190
    5580:	3429656c 	strtcc	r6, [r9], #-1388	; 0xfffffa94
    5584:	3034392e 	eorscc	r3, r4, lr, lsr #18
    5588:	34363536 	ldrtcc	r3, [r6], #-1334	; 0xfffffaca
    558c:	31343835 	teqcc	r4, r5, lsr r8
    5590:	35363432 	ldrcc	r3, [r6, #-1074]!	; 0xfffffbce
    5594:	332d6534 			; <UNDEFINED> instruction: 0x332d6534
    5598:	294c3432 	stmdbcs	ip, {r1, r4, r5, sl, ip, sp}^
    559c:	495f5f00 	ldmdbmi	pc, {r8, r9, sl, fp, ip, lr}^	; <UNPREDICTABLE>
    55a0:	465f544e 	ldrbmi	r5, [pc], -lr, asr #8
    55a4:	33545341 	cmpcc	r4, #67108865	; 0x4000001
    55a8:	59545f32 	ldmdbpl	r4, {r1, r4, r5, r8, r9, sl, fp, ip, lr}^
    55ac:	5f5f4550 	svcpl	0x005f4550
    55b0:	746e6920 	strbtvc	r6, [lr], #-2336	; 0xfffff6e0
    55b4:	49555f00 	ldmdbmi	r5, {r8, r9, sl, fp, ip, lr}^
    55b8:	3436544e 	ldrtcc	r5, [r6], #-1102	; 0xfffffbb2
    55bc:	445f545f 	ldrbmi	r5, [pc], #-1119	; 55c4 <_Min_Stack_Size+0x51c4>
    55c0:	414c4345 	cmpmi	ip, r5, asr #6
    55c4:	20444552 	subcs	r4, r4, r2, asr r5
    55c8:	64636c00 	strbtvs	r6, [r3], #-3072	; 0xfffff400
    55cc:	6e65735f 	mcrvs	3, 3, r7, cr5, cr15, {2}
    55d0:	74735f64 	ldrbtvc	r5, [r3], #-3940	; 0xfffff09c
    55d4:	676e6972 			; <UNDEFINED> instruction: 0x676e6972
    55d8:	4e5f5f00 	cdpmi	15, 5, cr5, cr15, cr0, {0}
    55dc:	494c5745 	stmdbmi	ip, {r0, r2, r6, r8, r9, sl, ip, lr}^
    55e0:	494d5f42 	stmdbmi	sp, {r1, r6, r8, r9, sl, fp, ip, lr}^
    55e4:	5f524f4e 	svcpl	0x00524f4e
    55e8:	0031205f 	eorseq	r2, r1, pc, asr r0
    55ec:	454c5f5f 	strbmi	r5, [ip, #-3935]	; 0xfffff0a1
    55f0:	38545341 	ldmdacc	r4, {r0, r6, r8, r9, ip, lr}^
    55f4:	68682220 	stmdavs	r8!, {r5, r9, sp}^
    55f8:	58450022 	stmdapl	r5, {r1, r5}^
    55fc:	5f354954 	svcpl	0x00354954
    5600:	20515249 	subscs	r5, r1, r9, asr #4
    5604:	5f003332 	svcpl	0x00003332
    5608:	544c465f 	strbpl	r4, [ip], #-1631	; 0xfffff9a1
    560c:	4e494d5f 	mcrmi	13, 2, r4, cr9, cr15, {2}
    5610:	5058455f 	subspl	r4, r8, pc, asr r5
    5614:	28205f5f 	stmdacs	r0!, {r0, r1, r2, r3, r4, r6, r8, r9, sl, fp, ip, lr}
    5618:	3532312d 	ldrcc	r3, [r2, #-301]!	; 0xfffffed3
    561c:	5f5f0029 	svcpl	0x005f0029
    5620:	36544c46 	ldrbcc	r4, [r4], -r6, asr #24
    5624:	41485f34 	cmpmi	r8, r4, lsr pc
    5628:	55515f53 	ldrbpl	r5, [r1, #-3923]	; 0xfffff0ad
    562c:	5f544549 	svcpl	0x00544549
    5630:	5f4e414e 	svcpl	0x004e414e
    5634:	0031205f 	eorseq	r2, r1, pc, asr r0
    5638:	544e4955 	strbpl	r4, [lr], #-2389	; 0xfffff6ab
    563c:	435f3233 	cmpmi	pc, #805306371	; 0x30000003
    5640:	20297828 	eorcs	r7, r9, r8, lsr #16
    5644:	49555f5f 	ldmdbmi	r5, {r0, r1, r2, r3, r4, r6, r8, r9, sl, fp, ip, lr}^
    5648:	3233544e 	eorscc	r5, r3, #1308622848	; 0x4e000000
    564c:	7828435f 	stmdavc	r8!, {r0, r1, r2, r3, r4, r6, r8, r9, lr}
    5650:	564e0029 	strbpl	r0, [lr], -r9, lsr #32
    5654:	495f4349 	ldmdbmi	pc, {r0, r3, r6, r8, r9, lr}^	; <UNPREDICTABLE>
    5658:	5f385152 	svcpl	0x00385152
    565c:	49545845 	ldmdbmi	r4, {r0, r2, r6, fp, ip, lr}^
    5660:	49445f32 	stmdbmi	r4, {r1, r4, r5, r8, r9, sl, fp, ip, lr}^
    5664:	4c424153 	stfmie	f4, [r2], {83}	; 0x53
    5668:	4e282045 	cdpmi	0, 2, cr2, cr8, cr5, {2}
    566c:	5f434956 	svcpl	0x00434956
    5670:	52454349 	subpl	r4, r5, #603979777	; 0x24000001
    5674:	3d7c2030 	ldclcc	0, cr2, [ip, #-192]!	; 0xffffff40
    5678:	3c3c3120 	ldfccs	f3, [ip], #-128	; 0xffffff80
    567c:	5f002938 	svcpl	0x00002938
    5680:	4c4c555f 	cfstr64mi	mvdx5, [ip], {95}	; 0x5f
    5684:	55434341 	strbpl	r4, [r3, #-833]	; 0xfffffcbf
    5688:	414d5f4d 	cmpmi	sp, sp, asr #30
    568c:	205f5f58 	subscs	r5, pc, r8, asr pc	; <UNPREDICTABLE>
    5690:	46465830 			; <UNDEFINED> instruction: 0x46465830
    5694:	46464646 	strbmi	r4, [r6], -r6, asr #12
    5698:	46464646 	strbmi	r4, [r6], -r6, asr #12
    569c:	46464646 	strbmi	r4, [r6], -r6, asr #12
    56a0:	2d504646 	ldclcs	6, cr4, [r0, #-280]	; 0xfffffee8
    56a4:	4c553233 	lfmmi	f3, 2, [r5], {51}	; 0x33
    56a8:	5f004b4c 	svcpl	0x00004b4c
    56ac:	4153555f 	cmpmi	r3, pc, asr r5
    56b0:	4d554343 	ldclmi	3, cr4, [r5, #-268]	; 0xfffffef4
    56b4:	4942495f 	stmdbmi	r2, {r0, r1, r2, r3, r4, r6, r8, fp, lr}^
    56b8:	205f5f54 	subscs	r5, pc, r4, asr pc	; <UNPREDICTABLE>
    56bc:	4d540038 	ldclmi	0, cr0, [r4, #-224]	; 0xffffff20
    56c0:	414d5f50 	cmpmi	sp, r0, asr pc
    56c4:	36322058 			; <UNDEFINED> instruction: 0x36322058
    56c8:	544e4900 	strbpl	r4, [lr], #-2304	; 0xfffff700
    56cc:	5341465f 	movtpl	r4, #5727	; 0x165f
    56d0:	4d5f3854 	ldclmi	8, cr3, [pc, #-336]	; 5588 <_Min_Stack_Size+0x5188>
    56d4:	28204e49 	stmdacs	r0!, {r0, r3, r6, r9, sl, fp, lr}
    56d8:	495f5f2d 	ldmdbmi	pc, {r0, r2, r3, r5, r8, r9, sl, fp, ip, lr}^	; <UNPREDICTABLE>
    56dc:	465f544e 	ldrbmi	r5, [pc], -lr, asr #8
    56e0:	38545341 	ldmdacc	r4, {r0, r6, r8, r9, ip, lr}^
    56e4:	58414d5f 	stmdapl	r1, {r0, r1, r2, r3, r4, r6, r8, sl, fp, lr}^
    56e8:	2d205f5f 	stccs	15, cr5, [r0, #-380]!	; 0xfffffe84
    56ec:	00293120 	eoreq	r3, r9, r0, lsr #2
    56f0:	72705f5f 	rsbsvc	r5, r0, #380	; 0x17c
    56f4:	63696465 	cmnvs	r9, #1694498816	; 0x65000000
    56f8:	61665f74 	smcvs	26100	; 0x65f4
    56fc:	2865736c 	stmdacs	r5!, {r2, r3, r5, r6, r8, r9, ip, sp, lr}^
    5700:	29707865 	ldmdbcs	r0!, {r0, r2, r5, r6, fp, ip, sp, lr}^
    5704:	625f5f20 	subsvs	r5, pc, #32, 30	; 0x80
    5708:	746c6975 	strbtvc	r6, [ip], #-2421	; 0xfffff68b
    570c:	655f6e69 	ldrbvs	r6, [pc, #-3689]	; 48ab <_Min_Stack_Size+0x44ab>
    5710:	63657078 	cmnvs	r5, #120	; 0x78
    5714:	65282874 	strvs	r2, [r8, #-2164]!	; 0xfffff78c
    5718:	2c297078 	stccs	0, cr7, [r9], #-480	; 0xfffffe20
    571c:	00293020 	eoreq	r3, r9, r0, lsr #32
    5720:	4c465f5f 	mcrrmi	15, 5, r5, r6, cr15
    5724:	5f343654 	svcpl	0x00343654
    5728:	5f534148 	svcpl	0x00534148
    572c:	4f4e4544 	svcmi	0x004e4544
    5730:	5f5f4d52 	svcpl	0x005f4d52
    5734:	5f003120 	svcpl	0x00003120
    5738:	4c4c555f 	cfstr64mi	mvdx5, [ip], {95}	; 0x5f
    573c:	55434341 	strbpl	r4, [r3, #-833]	; 0xfffffcbf
    5740:	42495f4d 	submi	r5, r9, #308	; 0x134
    5744:	5f5f5449 	svcpl	0x005f5449
    5748:	00323320 	eorseq	r3, r2, r0, lsr #6
    574c:	41555f5f 	cmpmi	r5, pc, asr pc
    5750:	4d554343 	ldclmi	3, cr4, [r5, #-268]	; 0xfffffef4
    5754:	5350455f 	cmppl	r0, #398458880	; 0x17c00000
    5758:	4e4f4c49 	cdpmi	12, 4, cr4, cr15, cr9, {2}
    575c:	30205f5f 	eorcc	r5, r0, pc, asr pc
    5760:	2d503178 	ldfcse	f3, [r0, #-480]	; 0xfffffe20
    5764:	4b553631 	blmi	1553030 <_Min_Stack_Size+0x1552c30>
    5768:	43575f00 	cmpmi	r7, #0, 30
    576c:	5f524148 	svcpl	0x00524148
    5770:	45445f54 	strbmi	r5, [r4, #-3924]	; 0xfffff0ac
    5774:	52414c43 	subpl	r4, r1, #17152	; 0x4300
    5778:	00204445 	eoreq	r4, r0, r5, asr #8
    577c:	5f544e49 	svcpl	0x00544e49
    5780:	54534146 	ldrbpl	r4, [r3], #-326	; 0xfffffeba
    5784:	4d5f3631 	ldclmi	6, cr3, [pc, #-196]	; 56c8 <_Min_Stack_Size+0x52c8>
    5788:	28205841 	stmdacs	r0!, {r0, r6, fp, ip, lr}
    578c:	4e495f5f 	mcrmi	15, 2, r5, cr9, cr15, {2}
    5790:	41465f54 	cmpmi	r6, r4, asr pc
    5794:	36315453 			; <UNDEFINED> instruction: 0x36315453
    5798:	58414d5f 	stmdapl	r1, {r0, r1, r2, r3, r4, r6, r8, sl, fp, lr}^
    579c:	00295f5f 	eoreq	r5, r9, pc, asr pc
    57a0:	4e495f5f 	mcrmi	15, 2, r5, cr9, cr15, {2}
    57a4:	5f343654 	svcpl	0x00343654
    57a8:	5f58414d 	svcpl	0x0058414d
    57ac:	7830205f 	ldmdavc	r0!, {r0, r1, r2, r3, r4, r6, sp}
    57b0:	66666637 			; <UNDEFINED> instruction: 0x66666637
    57b4:	66666666 	strbtvs	r6, [r6], -r6, ror #12
    57b8:	66666666 	strbtvs	r6, [r6], -r6, ror #12
    57bc:	66666666 	strbtvs	r6, [r6], -r6, ror #12
    57c0:	5f004c4c 	svcpl	0x00004c4c
    57c4:	5f535953 	svcpl	0x00535953
    57c8:	4e454552 	mcrmi	5, 2, r4, cr5, cr2, {2}
    57cc:	5f485f54 	svcpl	0x00485f54
    57d0:	5f5f0020 	svcpl	0x005f0020
    57d4:	5f544c46 	svcpl	0x00544c46
    57d8:	4c415645 	mcrrmi	6, 4, r5, r1, cr5
    57dc:	54454d5f 	strbpl	r4, [r5], #-3423	; 0xfffff2a1
    57e0:	5f444f48 	svcpl	0x00444f48
    57e4:	0030205f 	eorseq	r2, r0, pc, asr r0
    57e8:	6e695f5f 	mcrvs	15, 3, r5, cr9, cr15, {2}
    57ec:	61665f74 	smcvs	26100	; 0x65f4
    57f0:	36317473 			; <UNDEFINED> instruction: 0x36317473
    57f4:	645f745f 	ldrbvs	r7, [pc], #-1119	; 57fc <_Min_Stack_Size+0x53fc>
    57f8:	6e696665 	cdpvs	6, 6, cr6, cr9, cr5, {3}
    57fc:	31206465 			; <UNDEFINED> instruction: 0x31206465
    5800:	535f5f00 	cmppl	pc, #0, 30
    5804:	52414843 	subpl	r4, r1, #4390912	; 0x430000
    5808:	58414d5f 	stmdapl	r1, {r0, r1, r2, r3, r4, r6, r8, sl, fp, lr}^
    580c:	30205f5f 	eorcc	r5, r0, pc, asr pc
    5810:	00663778 	rsbeq	r3, r6, r8, ror r7
    5814:	5f44434c 	svcpl	0x0044434c
    5818:	50534944 	subspl	r4, r3, r4, asr #18
    581c:	5f59414c 	svcpl	0x0059414c
    5820:	555f4e4f 	ldrbpl	r4, [pc, #-3663]	; 49d9 <_Min_Stack_Size+0x45d9>
    5824:	5245444e 	subpl	r4, r5, #1308622848	; 0x4e000000
    5828:	454e494c 	strbmi	r4, [lr, #-2380]	; 0xfffff6b4
    582c:	5f4e4f5f 	svcpl	0x004e4f5f
    5830:	53525543 	cmppl	r2, #281018368	; 0x10c00000
    5834:	4f5f524f 	svcmi	0x005f524f
    5838:	7830204e 	ldmdavc	r0!, {r1, r2, r3, r6, sp}
    583c:	5f004630 	svcpl	0x00004630
    5840:	544e495f 	strbpl	r4, [lr], #-2399	; 0xfffff6a1
    5844:	5341465f 	movtpl	r4, #5727	; 0x165f
    5848:	575f3854 			; <UNDEFINED> instruction: 0x575f3854
    584c:	48544449 	ldmdami	r4, {r0, r3, r6, sl, lr}^
    5850:	33205f5f 			; <UNDEFINED> instruction: 0x33205f5f
    5854:	5f5f0032 	svcpl	0x005f0032
    5858:	43445453 	movtmi	r5, #17491	; 0x4453
    585c:	4654555f 			; <UNDEFINED> instruction: 0x4654555f
    5860:	5f36315f 	svcpl	0x0036315f
    5864:	0031205f 	eorseq	r2, r1, pc, asr r0
    5868:	4e41525f 	mcrmi	2, 2, r5, cr1, cr15, {2}
    586c:	5f383444 	svcpl	0x00383444
    5870:	544c554d 	strbpl	r5, [ip], #-1357	; 0xfffffab3
    5874:	2820325f 	stmdacs	r0!, {r0, r1, r2, r3, r4, r6, r9, ip, sp}
    5878:	30307830 	eorscc	r7, r0, r0, lsr r8
    587c:	00293530 	eoreq	r3, r9, r0, lsr r5
    5880:	52415f5f 	subpl	r5, r1, #380	; 0x17c
    5884:	45465f4d 	strbmi	r5, [r6, #-3917]	; 0xfffff0b3
    5888:	52555441 	subspl	r5, r5, #1090519040	; 0x41000000
    588c:	444c5f45 	strbmi	r5, [ip], #-3909	; 0xfffff0bb
    5890:	00584552 	subseq	r4, r8, r2, asr r5
    5894:	4545525f 	strbmi	r5, [r5, #-607]	; 0xfffffda1
    5898:	435f544e 	cmpmi	pc, #1308622848	; 0x4e000000
    589c:	4b434548 	blmi	10d6dc4 <_Min_Stack_Size+0x10d69c4>
    58a0:	53494d5f 	movtpl	r4, #40287	; 0x9d5f
    58a4:	61762843 	cmnvs	r6, r3, asr #16
    58a8:	5f202972 	svcpl	0x00202972
    58ac:	4e454552 	mcrmi	5, 2, r4, cr5, cr2, {2}
    58b0:	48435f54 	stmdami	r3, {r2, r4, r6, r8, r9, sl, fp, ip, lr}^
    58b4:	284b4345 	stmdacs	fp, {r0, r2, r6, r8, r9, lr}^
    58b8:	2c726176 	ldfcse	f6, [r2], #-472	; 0xfffffe28
    58bc:	696d5f20 	stmdbvs	sp!, {r5, r8, r9, sl, fp, ip, lr}^
    58c0:	202c6373 	eorcs	r6, ip, r3, ror r3
    58c4:	75727473 	ldrbvc	r7, [r2, #-1139]!	; 0xfffffb8d
    58c8:	5f207463 	svcpl	0x00207463
    58cc:	6373696d 	cmnvs	r3, #1785856	; 0x1b4000
    58d0:	6565725f 	strbvs	r7, [r5, #-607]!	; 0xfffffda1
    58d4:	2a20746e 	bcs	822a94 <_Min_Stack_Size+0x822694>
    58d8:	6973202c 	ldmdbvs	r3!, {r2, r3, r5, sp}^
    58dc:	666f657a 			; <UNDEFINED> instruction: 0x666f657a
    58e0:	28282a20 	stmdacs	r8!, {r5, r9, fp, sp}
    58e4:	29726176 	ldmdbcs	r2!, {r1, r2, r4, r5, r6, r8, sp, lr}^
    58e8:	6d5f3e2d 	ldclvs	14, cr3, [pc, #-180]	; 583c <_Min_Stack_Size+0x543c>
    58ec:	29637369 	stmdbcs	r3!, {r0, r3, r5, r6, r8, r9, ip, sp, lr}^
    58f0:	525f202c 	subspl	r2, pc, #44	; 0x2c
    58f4:	544e4545 	strbpl	r4, [lr], #-1349	; 0xfffffabb
    58f8:	494e495f 	stmdbmi	lr, {r0, r1, r2, r3, r4, r6, r8, fp, lr}^
    58fc:	494d5f54 	stmdbmi	sp, {r2, r4, r6, r8, r9, sl, fp, ip, lr}^
    5900:	76284353 			; <UNDEFINED> instruction: 0x76284353
    5904:	29297261 	stmdbcs	r9!, {r0, r5, r6, r9, ip, sp, lr}
    5908:	5f545f00 	svcpl	0x00545f00
    590c:	44525450 	ldrbmi	r5, [r2], #-1104	; 0xfffffbb0
    5910:	20464649 	subcs	r4, r6, r9, asr #12
    5914:	555f5f00 	ldrbpl	r5, [pc, #-3840]	; 4a1c <_Min_Stack_Size+0x461c>
    5918:	465f5151 			; <UNDEFINED> instruction: 0x465f5151
    591c:	5f544942 	svcpl	0x00544942
    5920:	0038205f 	eorseq	r2, r8, pc, asr r0
    5924:	49575f5f 	ldmdbmi	r7, {r0, r1, r2, r3, r4, r6, r8, r9, sl, fp, ip, lr}^
    5928:	545f544e 	ldrbpl	r5, [pc], #-1102	; 5930 <_Min_Stack_Size+0x5530>
    592c:	5f455059 	svcpl	0x00455059
    5930:	6e75205f 	mrcvs	0, 3, r2, cr5, cr15, {2}
    5934:	6e676973 			; <UNDEFINED> instruction: 0x6e676973
    5938:	69206465 	stmdbvs	r0!, {r0, r2, r5, r6, sl, sp, lr}
    593c:	6900746e 	stmdbvs	r0, {r1, r2, r3, r5, r6, sl, ip, sp, lr}
    5940:	2b20746e 	blcs	822b00 <_Min_Stack_Size+0x822700>
    5944:	5f5f0032 	svcpl	0x005f0032
    5948:	5f4d5241 	svcpl	0x004d5241
    594c:	36315046 	ldrtcc	r5, [r1], -r6, asr #32
    5950:	4752415f 			; <UNDEFINED> instruction: 0x4752415f
    5954:	5f5f0053 	svcpl	0x005f0053
    5958:	5f434347 	svcpl	0x00434347
    595c:	5f434549 	svcpl	0x00434549
    5960:	20393535 	eorscs	r3, r9, r5, lsr r5
    5964:	5f5f0030 	svcpl	0x005f0030
    5968:	75716572 	ldrbvc	r6, [r1, #-1394]!	; 0xfffffa8e
    596c:	73657269 	cmnvc	r5, #-1879048186	; 0x90000006
    5970:	6c6e755f 	cfstr64vs	mvdx7, [lr], #-380	; 0xfffffe84
    5974:	656b636f 	strbvs	r6, [fp, #-879]!	; 0xfffffc91
    5978:	2e2e2864 	cdpcs	8, 2, cr2, cr14, cr4, {3}
    597c:	5f20292e 	svcpl	0x0020292e
    5980:	636f6c5f 	cmnvs	pc, #24320	; 0x5f00
    5984:	6e615f6b 	cdpvs	15, 6, cr5, cr1, cr11, {3}
    5988:	61746f6e 	cmnvs	r4, lr, ror #30
    598c:	6c286574 	cfstr32vs	mvfx6, [r8], #-464	; 0xfffffe30
    5990:	736b636f 	cmnvc	fp, #-1140850687	; 0xbc000001
    5994:	6378655f 	cmnvs	r8, #398458880	; 0x17c00000
    5998:	6564756c 	strbvs	r7, [r4, #-1388]!	; 0xfffffa94
    599c:	5f5f2864 	svcpl	0x005f2864
    59a0:	415f4156 	cmpmi	pc, r6, asr r1	; <UNPREDICTABLE>
    59a4:	5f534752 	svcpl	0x00534752
    59a8:	0029295f 	eoreq	r2, r9, pc, asr r9
    59ac:	72616863 	rsbvc	r6, r1, #6488064	; 0x630000
    59b0:	00302b20 	eorseq	r2, r0, r0, lsr #22
    59b4:	6f6c6c61 	svcvs	0x006c6c61
    59b8:	5f006163 	svcpl	0x00006163
    59bc:	52464c5f 	subpl	r4, r6, #24320	; 0x5f00
    59c0:	5f544341 	svcpl	0x00544341
    59c4:	5f58414d 	svcpl	0x0058414d
    59c8:	5830205f 	ldmdapl	r0!, {r0, r1, r2, r3, r4, r6, sp}
    59cc:	46464637 			; <UNDEFINED> instruction: 0x46464637
    59d0:	46464646 	strbmi	r4, [r6], -r6, asr #12
    59d4:	31332d50 	teqcc	r3, r0, asr sp
    59d8:	5f00524c 	svcpl	0x0000524c
    59dc:	5a49535f 	bpl	125a760 <_Min_Stack_Size+0x125a360>
    59e0:	5f464f45 	svcpl	0x00464f45
    59e4:	44525450 	ldrbmi	r5, [r2], #-1104	; 0xfffffbb0
    59e8:	5f464649 	svcpl	0x00464649
    59ec:	205f5f54 	subscs	r5, pc, r4, asr pc	; <UNPREDICTABLE>
    59f0:	5f5f0034 	svcpl	0x005f0034
    59f4:	41484357 	cmpmi	r8, r7, asr r3
    59f8:	5f545f52 	svcpl	0x00545f52
    59fc:	5f00205f 	svcpl	0x0000205f
    5a00:	6e695f5f 	mcrvs	15, 3, r5, cr9, cr15, {2}
    5a04:	656c5f74 	strbvs	r5, [ip, #-3956]!	; 0xfffff08c
    5a08:	38747361 	ldmdacc	r4!, {r0, r5, r6, r8, r9, ip, sp, lr}^
    5a0c:	645f745f 	ldrbvs	r7, [pc], #-1119	; 5a14 <_Min_Stack_Size+0x5614>
    5a10:	6e696665 	cdpvs	6, 6, cr6, cr9, cr5, {3}
    5a14:	31206465 			; <UNDEFINED> instruction: 0x31206465
    5a18:	415f5f00 	cmpmi	pc, r0, lsl #30
    5a1c:	465f4d52 			; <UNDEFINED> instruction: 0x465f4d52
    5a20:	55544145 	ldrbpl	r4, [r4, #-325]	; 0xfffffebb
    5a24:	495f4552 	ldmdbmi	pc, {r1, r4, r6, r8, sl, lr}^	; <UNPREDICTABLE>
    5a28:	20564944 	subscs	r4, r6, r4, asr #18
    5a2c:	535f0031 	cmppl	pc, #49	; 0x31
    5a30:	535f5359 	cmppl	pc, #1677721601	; 0x64000001
    5a34:	43454c45 	movtmi	r4, #23621	; 0x5c45
    5a38:	20485f54 	subcs	r5, r8, r4, asr pc
    5a3c:	465f5f00 	ldrbmi	r5, [pc], -r0, lsl #30
    5a40:	54414f4c 	strbpl	r4, [r1], #-3916	; 0xfffff0b4
    5a44:	524f575f 	subpl	r5, pc, #24903680	; 0x17c0000
    5a48:	524f5f44 	subpl	r5, pc, #68, 30	; 0x110
    5a4c:	5f524544 	svcpl	0x00524544
    5a50:	5f5f205f 	svcpl	0x005f205f
    5a54:	4544524f 	strbmi	r5, [r4, #-591]	; 0xfffffdb1
    5a58:	494c5f52 	stmdbmi	ip, {r1, r4, r6, r8, r9, sl, fp, ip, lr}^
    5a5c:	454c5454 	strbmi	r5, [ip, #-1108]	; 0xfffffbac
    5a60:	444e455f 	strbmi	r4, [lr], #-1375	; 0xfffffaa1
    5a64:	5f4e4149 	svcpl	0x004e4149
    5a68:	5047005f 	subpl	r0, r7, pc, asr r0
    5a6c:	20454f49 	subcs	r4, r5, r9, asr #30
    5a70:	50472828 	subpl	r2, r7, r8, lsr #16
    5a74:	745f4f49 	ldrbvc	r4, [pc], #-3913	; 5a7c <_Min_Stack_Size+0x567c>
    5a78:	47292a20 	strmi	r2, [r9, -r0, lsr #20]!
    5a7c:	454f4950 	strbmi	r4, [pc, #-2384]	; 5134 <_Min_Stack_Size+0x4d34>
    5a80:	5341425f 	movtpl	r4, #4703	; 0x125f
    5a84:	5f002945 	svcpl	0x00002945
    5a88:	5f434347 	svcpl	0x00434347
    5a8c:	41484357 	cmpmi	r8, r7, asr r3
    5a90:	20545f52 	subscs	r5, r4, r2, asr pc
    5a94:	755f5f00 	ldrbvc	r5, [pc, #-3840]	; 4b9c <_Min_Stack_Size+0x479c>
    5a98:	636f6c6e 	cmnvs	pc, #28160	; 0x6e00
    5a9c:	2e28736b 	cdpcs	3, 2, cr7, cr8, cr11, {3}
    5aa0:	20292e2e 	eorcs	r2, r9, lr, lsr #28
    5aa4:	6f6c5f5f 	svcvs	0x006c5f5f
    5aa8:	615f6b63 	cmpvs	pc, r3, ror #22
    5aac:	746f6e6e 	strbtvc	r6, [pc], #-3694	; 5ab4 <_Min_Stack_Size+0x56b4>
    5ab0:	28657461 	stmdacs	r5!, {r0, r5, r6, sl, ip, sp, lr}^
    5ab4:	6f6c6e75 	svcvs	0x006c6e75
    5ab8:	665f6b63 	ldrbvs	r6, [pc], -r3, ror #22
    5abc:	74636e75 	strbtvc	r6, [r3], #-3701	; 0xfffff18b
    5ac0:	286e6f69 	stmdacs	lr!, {r0, r3, r5, r6, r8, r9, sl, fp, sp, lr}^
    5ac4:	41565f5f 	cmpmi	r6, pc, asr pc
    5ac8:	4752415f 			; <UNDEFINED> instruction: 0x4752415f
    5acc:	295f5f53 	ldmdbcs	pc, {r0, r1, r4, r6, r8, r9, sl, fp, ip, lr}^	; <UNPREDICTABLE>
    5ad0:	5f5f0029 	svcpl	0x005f0029
    5ad4:	544e4955 	strbpl	r4, [lr], #-2389	; 0xfffff6ab
    5ad8:	41454c5f 	cmpmi	r5, pc, asr ip
    5adc:	5f385453 	svcpl	0x00385453
    5ae0:	45505954 	ldrbmi	r5, [r0, #-2388]	; 0xfffff6ac
    5ae4:	75205f5f 	strvc	r5, [r0, #-3935]!	; 0xfffff0a1
    5ae8:	6769736e 	strbvs	r7, [r9, -lr, ror #6]!
    5aec:	2064656e 	rsbcs	r6, r4, lr, ror #10
    5af0:	72616863 	rsbvc	r6, r1, #6488064	; 0x630000
    5af4:	4f5f5f00 	svcmi	0x005f5f00
    5af8:	4c4f5342 	mcrrmi	3, 4, r5, pc, cr2
    5afc:	5f455445 	svcpl	0x00455445
    5b00:	4854414d 	ldmdami	r4, {r0, r2, r3, r6, r8, lr}^
    5b04:	4645445f 			; <UNDEFINED> instruction: 0x4645445f
    5b08:	544c5541 	strbpl	r5, [ip], #-1345	; 0xfffffabf
    5b0c:	5f003120 	svcpl	0x00003120
    5b10:	5248535f 	subpl	r5, r8, #2080374785	; 0x7c000001
    5b14:	49575f54 	ldmdbmi	r7, {r2, r4, r6, r8, r9, sl, fp, ip, lr}^
    5b18:	5f485444 	svcpl	0x00485444
    5b1c:	3631205f 			; <UNDEFINED> instruction: 0x3631205f
    5b20:	45525f00 	ldrbmi	r5, [r2, #-3840]	; 0xfffff100
    5b24:	575f4441 	ldrbpl	r4, [pc, -r1, asr #8]
    5b28:	45544952 	ldrbmi	r4, [r4, #-2386]	; 0xfffff6ae
    5b2c:	4655425f 			; <UNDEFINED> instruction: 0x4655425f
    5b30:	455a4953 	ldrbmi	r4, [sl, #-2387]	; 0xfffff6ad
    5b34:	5059545f 	subspl	r5, r9, pc, asr r4
    5b38:	6e692045 	cdpvs	0, 6, cr2, cr9, cr5, {2}
    5b3c:	50470074 	subpl	r0, r7, r4, ror r0
    5b40:	505f4f49 	subspl	r4, pc, r9, asr #30
    5b44:	435f4e49 	cmpmi	pc, #1168	; 0x490
    5b48:	49464e4f 	stmdbmi	r6, {r0, r1, r2, r3, r6, r9, sl, fp, lr}^
    5b4c:	00545f47 	subseq	r5, r4, r7, asr #30
    5b50:	50544e49 	subspl	r4, r4, r9, asr #28
    5b54:	4d5f5254 	lfmmi	f5, 2, [pc, #-336]	; 5a0c <_Min_Stack_Size+0x560c>
    5b58:	28205841 	stmdacs	r0!, {r0, r6, fp, ip, lr}
    5b5c:	4e495f5f 	mcrmi	15, 2, r5, cr9, cr15, {2}
    5b60:	52545054 	subspl	r5, r4, #84	; 0x54
    5b64:	58414d5f 	stmdapl	r1, {r0, r1, r2, r3, r4, r6, r8, sl, fp, lr}^
    5b68:	00295f5f 	eoreq	r5, r9, pc, asr pc
    5b6c:	4d495f5f 	stclmi	15, cr5, [r9, #-380]	; 0xfffffe84
    5b70:	54524f50 	ldrbpl	r4, [r2], #-3920	; 0xfffff0b0
    5b74:	505f0020 	subspl	r0, pc, r0, lsr #32
    5b78:	49445254 	stmdbmi	r4, {r2, r4, r6, r9, ip, lr}^
    5b7c:	545f4646 	ldrbpl	r4, [pc], #-1606	; 5b84 <_Min_Stack_Size+0x5784>
    5b80:	4345445f 	movtmi	r4, #21599	; 0x545f
    5b84:	4552414c 	ldrbmi	r4, [r2, #-332]	; 0xfffffeb4
    5b88:	5f002044 	svcpl	0x00002044
    5b8c:	4153555f 	cmpmi	r3, pc, asr r5
    5b90:	4942465f 	stmdbmi	r2, {r0, r1, r2, r3, r4, r6, r9, sl, lr}^
    5b94:	205f5f54 	subscs	r5, pc, r4, asr pc	; <UNPREDICTABLE>
    5b98:	5f003631 	svcpl	0x00003631
    5b9c:	6c6f765f 	stclvs	6, cr7, [pc], #-380	; 5a28 <_Min_Stack_Size+0x5628>
    5ba0:	6c697461 	cfstrdvs	mvd7, [r9], #-388	; 0xfffffe7c
    5ba4:	6f762065 	svcvs	0x00762065
    5ba8:	6974616c 	ldmdbvs	r4!, {r2, r3, r5, r6, r8, sp, lr}^
    5bac:	5f00656c 	svcpl	0x0000656c
    5bb0:	4843414d 	stmdami	r3, {r0, r2, r3, r6, r8, lr}^
    5bb4:	5f454e49 	svcpl	0x00454e49
    5bb8:	5059545f 	subspl	r5, r9, pc, asr r4
    5bbc:	485f5345 	ldmdami	pc, {r0, r2, r6, r8, r9, ip, lr}^	; <UNPREDICTABLE>
    5bc0:	5f5f0020 	svcpl	0x005f0020
    5bc4:	45454549 	strbmi	r4, [r5, #-1353]	; 0xfffffab7
    5bc8:	54494c5f 	strbpl	r4, [r9], #-3167	; 0xfffff3a1
    5bcc:	5f454c54 	svcpl	0x00454c54
    5bd0:	49444e45 	stmdbmi	r4, {r0, r2, r6, r9, sl, fp, lr}^
    5bd4:	00204e41 	eoreq	r4, r0, r1, asr #28
    5bd8:	4553555f 	ldrbmi	r5, [r3, #-1375]	; 0xfffffaa1
    5bdc:	444e4f43 	strbmi	r4, [lr], #-3907	; 0xfffff0bd
    5be0:	5f545f53 	svcpl	0x00545f53
    5be4:	4c434544 	cfstr64mi	mvdx4, [r3], {68}	; 0x44
    5be8:	44455241 	strbmi	r5, [r5], #-577	; 0xfffffdbf
    5bec:	5f5f0020 	svcpl	0x005f0020
    5bf0:	4c42444c 	cfstrdmi	mvd4, [r2], {76}	; 0x4c
    5bf4:	4e494d5f 	mcrmi	13, 2, r4, cr9, cr15, {2}
    5bf8:	5f30315f 	svcpl	0x0030315f
    5bfc:	5f505845 	svcpl	0x00505845
    5c00:	2d28205f 	stccs	0, cr2, [r8, #-380]!	; 0xfffffe84
    5c04:	29373033 	ldmdbcs	r7!, {r0, r1, r4, r5, ip, sp}
    5c08:	465f5f00 	ldrbmi	r5, [pc], -r0, lsl #30
    5c0c:	3233544c 	eorscc	r5, r3, #76, 8	; 0x4c000000
    5c10:	50455f58 	subpl	r5, r5, r8, asr pc
    5c14:	4f4c4953 	svcmi	0x004c4953
    5c18:	205f5f4e 	subscs	r5, pc, lr, asr #30
    5c1c:	32322e32 	eorscc	r2, r2, #800	; 0x320
    5c20:	36343430 			; <UNDEFINED> instruction: 0x36343430
    5c24:	32393430 	eorscc	r3, r9, #48, 8	; 0x30000000
    5c28:	31333035 	teqcc	r3, r5, lsr r0
    5c2c:	2d653133 	stfcse	f3, [r5, #-204]!	; 0xffffff34
    5c30:	33463631 	movtcc	r3, #26161	; 0x6631
    5c34:	5f007832 	svcpl	0x00007832
    5c38:	544c465f 	strbpl	r4, [ip], #-1631	; 0xfffff9a1
    5c3c:	5341485f 	movtpl	r4, #6239	; 0x185f
    5c40:	4955515f 	ldmdbmi	r5, {r0, r1, r2, r3, r4, r6, r8, ip, lr}^
    5c44:	4e5f5445 	cdpmi	4, 5, cr5, cr15, cr5, {2}
    5c48:	5f5f4e41 	svcpl	0x005f4e41
    5c4c:	5f003120 	svcpl	0x00003120
    5c50:	4654415f 			; <UNDEFINED> instruction: 0x4654415f
    5c54:	5f454c49 	svcpl	0x00454c49
    5c58:	49534956 	ldmdbmi	r3, {r1, r2, r4, r6, r8, fp, lr}^
    5c5c:	20454c42 	subcs	r4, r5, r2, asr #24
    5c60:	50470031 	subpl	r0, r7, r1, lsr r0
    5c64:	505f4f49 	subspl	r4, pc, r9, asr #30
    5c68:	315f4e49 	cmpcc	pc, r9, asr #28
    5c6c:	28282034 	stmdacs	r8!, {r2, r4, r5, sp}
    5c70:	746e6975 	strbtvc	r6, [lr], #-2421	; 0xfffff68b
    5c74:	745f3631 	ldrbvc	r3, [pc], #-1585	; 5c7c <_Min_Stack_Size+0x587c>
    5c78:	34783029 	ldrbtcc	r3, [r8], #-41	; 0xffffffd7
    5c7c:	29303030 	ldmdbcs	r0!, {r4, r5, ip, sp}
    5c80:	4c5f5f00 	mrrcmi	15, 0, r5, pc, cr0	; <UNPREDICTABLE>
    5c84:	43415246 	movtmi	r5, #4678	; 0x1246
    5c88:	50455f54 	subpl	r5, r5, r4, asr pc
    5c8c:	4f4c4953 	svcmi	0x004c4953
    5c90:	205f5f4e 	subscs	r5, pc, lr, asr #30
    5c94:	50317830 	eorspl	r7, r1, r0, lsr r8
    5c98:	4c31332d 	ldcmi	3, cr3, [r1], #-180	; 0xffffff4c
    5c9c:	425f0052 	subsmi	r0, pc, #82	; 0x52
    5ca0:	4e494745 	cdpmi	7, 4, cr4, cr9, cr5, {2}
    5ca4:	4454535f 	ldrbmi	r5, [r4], #-863	; 0xfffffca1
    5ca8:	0020435f 	eoreq	r4, r0, pc, asr r3
    5cac:	4c41434d 	mcrrmi	3, 4, r4, r1, cr13
    5cb0:	4950475f 	ldmdbmi	r0, {r0, r1, r2, r3, r4, r6, r8, r9, sl, lr}^
    5cb4:	72575f4f 	subsvc	r5, r7, #316	; 0x13c
    5cb8:	50657469 	rsbpl	r7, r5, r9, ror #8
    5cbc:	0074726f 	rsbseq	r7, r4, pc, ror #4
    5cc0:	41535f5f 	cmpmi	r3, pc, asr pc
    5cc4:	30205050 	eorcc	r5, r0, r0, asr r0
    5cc8:	30313078 	eorscc	r3, r1, r8, ror r0
    5ccc:	525f0030 	subspl	r0, pc, #48	; 0x30
    5cd0:	544e4545 	strbpl	r4, [lr], #-1349	; 0xfffffabb
    5cd4:	494e495f 	stmdbmi	lr, {r0, r1, r2, r3, r4, r6, r8, fp, lr}^
    5cd8:	61762854 	cmnvs	r6, r4, asr r8
    5cdc:	7b202972 	blvc	8102ac <_Min_Stack_Size+0x80feac>
    5ce0:	202c3020 	eorcs	r3, ip, r0, lsr #32
    5ce4:	465f5f28 	ldrbmi	r5, [pc], -r8, lsr #30
    5ce8:	20454c49 	subcs	r4, r5, r9, asr #24
    5cec:	5f26292a 	svcpl	0x0026292a
    5cf0:	5f66735f 	svcpl	0x0066735f
    5cf4:	656b6166 	strbvs	r6, [fp, #-358]!	; 0xfffffe9a
    5cf8:	6474735f 	ldrbtvs	r7, [r4], #-863	; 0xfffffca1
    5cfc:	202c6e69 	eorcs	r6, ip, r9, ror #28
    5d00:	465f5f28 	ldrbmi	r5, [pc], -r8, lsr #30
    5d04:	20454c49 	subcs	r4, r5, r9, asr #24
    5d08:	5f26292a 	svcpl	0x0026292a
    5d0c:	5f66735f 	svcpl	0x0066735f
    5d10:	656b6166 	strbvs	r6, [fp, #-358]!	; 0xfffffe9a
    5d14:	6474735f 	ldrbtvs	r7, [r4], #-863	; 0xfffffca1
    5d18:	2c74756f 	cfldr64cs	mvdx7, [r4], #-444	; 0xfffffe44
    5d1c:	5f5f2820 	svcpl	0x005f2820
    5d20:	454c4946 	strbmi	r4, [ip, #-2374]	; 0xfffff6ba
    5d24:	26292a20 	strtcs	r2, [r9], -r0, lsr #20
    5d28:	66735f5f 	uhsaxvs	r5, r3, pc	; <UNPREDICTABLE>
    5d2c:	6b61665f 	blvs	185f6b0 <_Min_Stack_Size+0x185f2b0>
    5d30:	74735f65 	ldrbtvc	r5, [r3], #-3941	; 0xfffff09b
    5d34:	72726564 	rsbsvc	r6, r2, #100, 10	; 0x19000000
    5d38:	2c30202c 	ldccs	0, cr2, [r0], #-176	; 0xffffff50
    5d3c:	554e5f20 	strbpl	r5, [lr, #-3872]	; 0xfffff0e0
    5d40:	202c4c4c 	eorcs	r4, ip, ip, asr #24
    5d44:	30202c30 	eorcc	r2, r0, r0, lsr ip
    5d48:	4e5f202c 	cdpmi	0, 5, cr2, cr15, cr12, {1}
    5d4c:	2c4c4c55 	mcrrcs	12, 5, r4, ip, cr5
    5d50:	554e5f20 	strbpl	r5, [lr, #-3872]	; 0xfffff0e0
    5d54:	202c4c4c 	eorcs	r4, ip, ip, asr #24
    5d58:	4c554e5f 	mrrcmi	14, 5, r4, r5, cr15
    5d5c:	30202c4c 	eorcc	r2, r0, ip, asr #24
    5d60:	2c30202c 	ldccs	0, cr2, [r0], #-176	; 0xffffff50
    5d64:	554e5f20 	strbpl	r5, [lr, #-3872]	; 0xfffff0e0
    5d68:	202c4c4c 	eorcs	r4, ip, ip, asr #24
    5d6c:	4c554e5f 	mrrcmi	14, 5, r4, r5, cr15
    5d70:	5f202c4c 	svcpl	0x00202c4c
    5d74:	4c4c554e 	cfstr64mi	mvdx5, [ip], {78}	; 0x4e
    5d78:	4e5f202c 	cdpmi	0, 5, cr2, cr15, cr12, {1}
    5d7c:	2c4c4c55 	mcrrcs	12, 5, r4, ip, cr5
    5d80:	554e5f20 	strbpl	r5, [lr, #-3872]	; 0xfffff0e0
    5d84:	202c4c4c 	eorcs	r4, ip, ip, asr #24
    5d88:	4545525f 	strbmi	r5, [r5, #-607]	; 0xfffffda1
    5d8c:	495f544e 	ldmdbmi	pc, {r1, r2, r3, r6, sl, ip, lr}^	; <UNPREDICTABLE>
    5d90:	5f54494e 	svcpl	0x0054494e
    5d94:	58455441 	stmdapl	r5, {r0, r6, sl, ip, lr}^
    5d98:	7b205449 	blvc	81aec4 <_Min_Stack_Size+0x81aac4>
    5d9c:	4c554e5f 	mrrcmi	14, 5, r4, r5, cr15
    5da0:	30202c4c 	eorcc	r2, r0, ip, asr #24
    5da4:	4e5f202c 	cdpmi	0, 5, cr2, cr15, cr12, {1}
    5da8:	7d4c4c55 	stclvc	12, cr4, [ip, #-340]	; 0xfffffeac
    5dac:	4e5f202c 	cdpmi	0, 5, cr2, cr15, cr12, {1}
    5db0:	2c4c4c55 	mcrrcs	12, 5, r4, ip, cr5
    5db4:	554e5f20 	strbpl	r5, [lr, #-3872]	; 0xfffff0e0
    5db8:	202c4c4c 	eorcs	r4, ip, ip, asr #24
    5dbc:	4c554e5f 	mrrcmi	14, 5, r4, r5, cr15
    5dc0:	007d204c 	rsbseq	r2, sp, ip, asr #32
    5dc4:	52415f5f 	subpl	r5, r1, #380	; 0x17c
    5dc8:	49535f4d 	ldmdbmi	r3, {r0, r2, r3, r6, r8, r9, sl, fp, ip, lr}^
    5dcc:	464f455a 			; <UNDEFINED> instruction: 0x464f455a
    5dd0:	4e494d5f 	mcrmi	13, 2, r4, cr9, cr15, {2}
    5dd4:	4c414d49 	mcrrmi	13, 4, r4, r1, cr9
    5dd8:	554e455f 	strbpl	r4, [lr, #-1375]	; 0xfffffaa1
    5ddc:	0031204d 	eorseq	r2, r1, sp, asr #32
    5de0:	494f505f 	stmdbmi	pc, {r0, r1, r2, r3, r4, r6, ip, lr}^	; <UNPREDICTABLE>
    5de4:	5245544e 	subpl	r5, r5, #1308622848	; 0x4e000000
    5de8:	544e495f 	strbpl	r4, [lr], #-2399	; 0xfffff6a1
    5dec:	6e6f6c20 	cdpvs	12, 6, cr6, cr15, cr0, {1}
    5df0:	5f5f0067 	svcpl	0x005f0067
    5df4:	33544c46 	cmpcc	r4, #17920	; 0x4600
    5df8:	4e5f5832 	mrcmi	8, 2, r5, cr15, cr2, {1}
    5dfc:	5f4d524f 	svcpl	0x004d524f
    5e00:	5f58414d 	svcpl	0x0058414d
    5e04:	2e31205f 	mrccs	0, 1, r2, cr1, cr15, {2}
    5e08:	36373937 			; <UNDEFINED> instruction: 0x36373937
    5e0c:	33313339 	teqcc	r1, #-469762048	; 0xe4000000
    5e10:	32363834 	eorscc	r3, r6, #52, 16	; 0x340000
    5e14:	37353133 			; <UNDEFINED> instruction: 0x37353133
    5e18:	30332b65 	eorscc	r2, r3, r5, ror #22
    5e1c:	32334638 	eorscc	r4, r3, #56, 12	; 0x3800000
    5e20:	5f5f0078 	svcpl	0x005f0078
    5e24:	5f6d7261 	svcpl	0x006d7261
    5e28:	0031205f 	eorseq	r2, r1, pc, asr r0
    5e2c:	5453465f 	ldrbpl	r4, [r3], #-1631	; 0xfffff9a1
    5e30:	204f4944 	subcs	r4, pc, r4, asr #18
    5e34:	465f5f00 	ldrbmi	r5, [pc], -r0, lsl #30
    5e38:	54434152 	strbpl	r4, [r3], #-338	; 0xfffffeae
    5e3c:	5350455f 	cmppl	r0, #398458880	; 0x17c00000
    5e40:	4e4f4c49 	cdpmi	12, 4, cr4, cr15, cr9, {2}
    5e44:	30205f5f 	eorcc	r5, r0, pc, asr pc
    5e48:	2d503178 	ldfcse	f3, [r0, #-480]	; 0xfffffe20
    5e4c:	00523531 	subseq	r3, r2, r1, lsr r5
    5e50:	69745f5f 	ldmdbvs	r4!, {r0, r1, r2, r3, r4, r6, r8, r9, sl, fp, ip, lr}^
    5e54:	5f72656d 	svcpl	0x0072656d
    5e58:	65645f74 	strbvs	r5, [r4, #-3956]!	; 0xfffff08c
    5e5c:	656e6966 	strbvs	r6, [lr, #-2406]!	; 0xfffff69a
    5e60:	5f002064 	svcpl	0x00002064
    5e64:	544c465f 	strbpl	r4, [ip], #-1631	; 0xfffff9a1
    5e68:	4d5f3233 	lfmmi	f3, 2, [pc, #-204]	; 5da4 <_Min_Stack_Size+0x59a4>
    5e6c:	315f4e49 	cmpcc	pc, r9, asr #28
    5e70:	58455f30 	stmdapl	r5, {r4, r5, r8, r9, sl, fp, ip, lr}^
    5e74:	205f5f50 	subscs	r5, pc, r0, asr pc	; <UNPREDICTABLE>
    5e78:	37332d28 	ldrcc	r2, [r3, -r8, lsr #26]!
    5e7c:	525f0029 	subspl	r0, pc, #41	; 0x29
    5e80:	544e4545 	strbpl	r4, [lr], #-1349	; 0xfffffabb
    5e84:	5443575f 	strbpl	r5, [r3], #-1887	; 0xfffff8a1
    5e88:	5f424d4f 	svcpl	0x00424d4f
    5e8c:	54415453 	strbpl	r5, [r1], #-1107	; 0xfffffbad
    5e90:	74702845 	ldrbtvc	r2, [r0], #-2117	; 0xfffff7bb
    5e94:	28202972 	stmdacs	r0!, {r1, r4, r5, r6, r8, fp, sp}
    5e98:	72747028 	rsbsvc	r7, r4, #40	; 0x28
    5e9c:	5f3e2d29 	svcpl	0x003e2d29
    5ea0:	6373696d 	cmnvs	r3, #1785856	; 0x1b4000
    5ea4:	775f3e2d 	ldrbvc	r3, [pc, -sp, lsr #28]
    5ea8:	6d6f7463 	cfstrdvs	mvd7, [pc, #-396]!	; 5d24 <_Min_Stack_Size+0x5924>
    5eac:	74735f62 	ldrbtvc	r5, [r3], #-3938	; 0xfffff09e
    5eb0:	29657461 	stmdbcs	r5!, {r0, r5, r6, sl, ip, sp, lr}^
    5eb4:	495f5f00 	ldmdbmi	pc, {r8, r9, sl, fp, ip, lr}^	; <UNPREDICTABLE>
    5eb8:	435f4f53 	cmpmi	pc, #332	; 0x14c
    5ebc:	5349565f 	movtpl	r5, #38495	; 0x965f
    5ec0:	454c4249 	strbmi	r4, [ip, #-585]	; 0xfffffdb7
    5ec4:	31303220 	teqcc	r0, r0, lsr #4
    5ec8:	564e0031 			; <UNDEFINED> instruction: 0x564e0031
    5ecc:	495f4349 	ldmdbmi	pc, {r0, r3, r6, r8, r9, lr}^	; <UNPREDICTABLE>
    5ed0:	5f385152 	svcpl	0x00385152
    5ed4:	49545845 	ldmdbmi	r4, {r0, r2, r6, fp, ip, lr}^
    5ed8:	4e455f32 	mcrmi	15, 2, r5, cr5, cr2, {1}
    5edc:	454c4241 	strbmi	r4, [ip, #-577]	; 0xfffffdbf
    5ee0:	564e2820 	strbpl	r2, [lr], -r0, lsr #16
    5ee4:	495f4349 	ldmdbmi	pc, {r0, r3, r6, r8, r9, lr}^	; <UNPREDICTABLE>
    5ee8:	30524553 	subscc	r4, r2, r3, asr r5
    5eec:	203d7c20 	eorscs	r7, sp, r0, lsr #24
    5ef0:	383c3c31 	ldmdacc	ip!, {r0, r4, r5, sl, fp, ip, sp}
    5ef4:	5f5f0029 	svcpl	0x005f0029
    5ef8:	5f4d5241 	svcpl	0x004d5241
    5efc:	36315046 	ldrtcc	r5, [r1], -r6, asr #32
    5f00:	524f465f 	subpl	r4, pc, #99614720	; 0x5f00000
    5f04:	5f54414d 	svcpl	0x0054414d
    5f08:	45544c41 	ldrbmi	r4, [r4, #-3137]	; 0xfffff3bf
    5f0c:	54414e52 	strbpl	r4, [r1], #-3666	; 0xfffff1ae
    5f10:	00455649 	subeq	r5, r5, r9, asr #12
    5f14:	42465f5f 	submi	r5, r6, #380	; 0x17c
    5f18:	44494453 	strbmi	r4, [r9], #-1107	; 0xfffffbad
    5f1c:	20297328 	eorcs	r7, r9, r8, lsr #6
    5f20:	75727473 	ldrbvc	r7, [r2, #-1139]!	; 0xfffffb8d
    5f24:	5f207463 	svcpl	0x00207463
    5f28:	6361685f 	cmnvs	r1, #6225920	; 0x5f0000
    5f2c:	5f5f006b 	svcpl	0x005f006b
    5f30:	4c42444c 	cfstrdmi	mvd4, [r2], {76}	; 0x4c
    5f34:	524f4e5f 	subpl	r4, pc, #1520	; 0x5f0
    5f38:	414d5f4d 	cmpmi	sp, sp, asr #30
    5f3c:	205f5f58 	subscs	r5, pc, r8, asr pc	; <UNPREDICTABLE>
    5f40:	39372e31 	ldmdbcc	r7!, {r0, r4, r5, r9, sl, fp, sp}
    5f44:	33393637 	teqcc	r9, #57671680	; 0x3700000
    5f48:	38343331 	ldmdacc	r4!, {r0, r4, r5, r8, r9, ip, sp}
    5f4c:	31333236 	teqcc	r3, r6, lsr r2
    5f50:	2b653735 	blcs	1953c2c <_Min_Stack_Size+0x195382c>
    5f54:	4c383033 	ldcmi	0, cr3, [r8], #-204	; 0xffffff34
    5f58:	6e5f5f00 	cdpvs	15, 5, cr5, cr15, cr0, {0}
    5f5c:	73686f74 	cmnvc	r8, #116, 30	; 0x1d0
    5f60:	29785f28 	ldmdbcs	r8!, {r3, r5, r8, r9, sl, fp, ip, lr}^
    5f64:	625f5f20 	subsvs	r5, pc, #32, 30	; 0x80
    5f68:	70617773 	rsbvc	r7, r1, r3, ror r7
    5f6c:	5f283631 	svcpl	0x00283631
    5f70:	49002978 	stmdbmi	r0, {r3, r4, r5, r6, r8, fp, sp}
    5f74:	465f544e 	ldrbmi	r5, [pc], -lr, asr #8
    5f78:	36545341 	ldrbcc	r5, [r4], -r1, asr #6
    5f7c:	494d5f34 	stmdbmi	sp, {r2, r4, r5, r8, r9, sl, fp, ip, lr}^
    5f80:	2d28204e 	stccs	0, cr2, [r8, #-312]!	; 0xfffffec8
    5f84:	4e495f5f 	mcrmi	15, 2, r5, cr9, cr15, {2}
    5f88:	41465f54 	cmpmi	r6, r4, asr pc
    5f8c:	34365453 	ldrtcc	r5, [r6], #-1107	; 0xfffffbad
    5f90:	58414d5f 	stmdapl	r1, {r0, r1, r2, r3, r4, r6, r8, sl, fp, lr}^
    5f94:	2d205f5f 	stccs	15, cr5, [r0, #-380]!	; 0xfffffe84
    5f98:	00293120 	eoreq	r3, r9, r0, lsr #2
    5f9c:	5359535f 	cmppl	r9, #2080374785	; 0x7c000001
    5fa0:	4d49545f 	cfstrdmi	mvd5, [r9, #-380]	; 0xfffffe84
    5fa4:	45505345 	ldrbmi	r5, [r0, #-837]	; 0xfffffcbb
    5fa8:	5f485f43 	svcpl	0x00485f43
    5fac:	4d5f0020 	ldclmi	0, cr0, [pc, #-128]	; 5f34 <_Min_Stack_Size+0x5b34>
    5fb0:	49484341 	stmdbmi	r8, {r0, r6, r8, r9, lr}^
    5fb4:	5f5f454e 	svcpl	0x005f454e
    5fb8:	41464544 	cmpmi	r6, r4, asr #10
    5fbc:	5f544c55 	svcpl	0x00544c55
    5fc0:	45505954 	ldrbmi	r5, [r0, #-2388]	; 0xfffff6ac
    5fc4:	20485f53 	subcs	r5, r8, r3, asr pc
    5fc8:	425f5f00 	subsmi	r5, pc, #0, 30
    5fcc:	45474749 	strbmi	r4, [r7, #-1865]	; 0xfffff8b7
    5fd0:	415f5453 	cmpmi	pc, r3, asr r4	; <UNPREDICTABLE>
    5fd4:	4e47494c 	vmlsmi.f16	s9, s14, s24	; <UNPREDICTABLE>
    5fd8:	544e454d 	strbpl	r4, [lr], #-1357	; 0xfffffab3
    5fdc:	38205f5f 	stmdacc	r0!, {r0, r1, r2, r3, r4, r6, r8, r9, sl, fp, ip, lr}
    5fe0:	54494c00 	strbpl	r4, [r9], #-3072	; 0xfffff400
    5fe4:	5f454c54 	svcpl	0x00454c54
    5fe8:	49444e45 	stmdbmi	r4, {r0, r2, r6, r9, sl, fp, lr}^
    5fec:	5f204e41 	svcpl	0x00204e41
    5ff0:	5454494c 	ldrbpl	r4, [r4], #-2380	; 0xfffff6b4
    5ff4:	455f454c 	ldrbmi	r4, [pc, #-1356]	; 5ab0 <_Min_Stack_Size+0x56b0>
    5ff8:	4149444e 	cmpmi	r9, lr, asr #8
    5ffc:	475f004e 	ldrbmi	r0, [pc, -lr, asr #32]
    6000:	505f4343 	subspl	r4, pc, r3, asr #6
    6004:	49445254 	stmdbmi	r4, {r2, r4, r6, r9, ip, lr}^
    6008:	545f4646 	ldrbpl	r4, [pc], #-1606	; 6010 <_Min_Stack_Size+0x5c10>
    600c:	5f5f0020 	svcpl	0x005f0020
    6010:	43554e47 	cmpmi	r5, #1136	; 0x470
    6014:	454b494c 	strbmi	r4, [fp, #-2380]	; 0xfffff6b4
    6018:	4955425f 	ldmdbmi	r5, {r0, r1, r2, r3, r4, r6, r9, lr}^
    601c:	4e49544c 	cdpmi	4, 4, cr5, cr9, cr12, {2}
    6020:	58454e5f 	stmdapl	r5, {r0, r1, r2, r3, r4, r6, r9, sl, fp, lr}^
    6024:	52415f54 	subpl	r5, r1, #84, 30	; 0x150
    6028:	00312047 	eorseq	r2, r1, r7, asr #32
    602c:	41545f5f 	cmpmi	r4, pc, asr pc
    6030:	4942495f 	stmdbmi	r2, {r0, r1, r2, r3, r4, r6, r8, fp, lr}^
    6034:	205f5f54 	subscs	r5, pc, r4, asr pc	; <UNPREDICTABLE>
    6038:	47003436 	smladxmi	r0, r6, r4, r3
    603c:	5f4f4950 	svcpl	0x004f4950
    6040:	45455053 	strbmi	r5, [r5, #-83]	; 0xffffffad
    6044:	4d325f44 	ldcmi	15, cr5, [r2, #-272]!	; 0xfffffef0
    6048:	30207a48 	eorcc	r7, r0, r8, asr #20
    604c:	30303078 	eorscc	r3, r0, r8, ror r0
    6050:	30303030 	eorscc	r3, r0, r0, lsr r0
    6054:	53007532 	movwpl	r7, #1330	; 0x532
    6058:	32334d54 	eorscc	r4, r3, #84, 26	; 0x1500
    605c:	5f003120 	svcpl	0x00003120
    6060:	41454c5f 	cmpmi	r5, pc, asr ip
    6064:	34365453 	ldrtcc	r5, [r6], #-1107	; 0xfffffbad
    6068:	6c6c2220 	sfmvs	f2, 2, [ip], #-128	; 0xffffff80
    606c:	58450022 	stmdapl	r5, {r1, r5}^
    6070:	28204954 	stmdacs	r0!, {r2, r4, r6, r8, fp, lr}
    6074:	54584528 	ldrbpl	r4, [r8], #-1320	; 0xfffffad8
    6078:	20745f49 	rsbscs	r5, r4, r9, asr #30
    607c:	5845292a 	stmdapl	r5, {r1, r3, r5, r8, fp, sp}^
    6080:	425f4954 	subsmi	r4, pc, #84, 18	; 0x150000
    6084:	29455341 	stmdbcs	r5, {r0, r6, r8, r9, ip, lr}^
    6088:	725f5f00 	subsvc	r5, pc, #0, 30
    608c:	746e6565 	strbtvc	r6, [lr], #-1381	; 0xfffffa9b
    6090:	7373615f 	cmnvc	r3, #-1073741801	; 0xc0000017
    6094:	28747265 	ldmdacs	r4!, {r0, r2, r5, r6, r9, ip, sp, lr}^
    6098:	28202978 	stmdacs	r0!, {r3, r4, r5, r6, r8, fp, sp}
    609c:	20297828 	eorcs	r7, r9, r8, lsr #16
    60a0:	7628203f 			; <UNDEFINED> instruction: 0x7628203f
    60a4:	2964696f 	stmdbcs	r4!, {r0, r1, r2, r3, r5, r6, r8, fp, sp, lr}^
    60a8:	203a2030 	eorscs	r2, sl, r0, lsr r0
    60ac:	73615f5f 	cmnvc	r1, #380	; 0x17c
    60b0:	74726573 	ldrbtvc	r6, [r2], #-1395	; 0xfffffa8d
    60b4:	6e75665f 	mrcvs	6, 3, r6, cr5, cr15, {2}
    60b8:	5f5f2863 	svcpl	0x005f2863
    60bc:	454c4946 	strbmi	r4, [ip, #-2374]	; 0xfffff6ba
    60c0:	202c5f5f 	eorcs	r5, ip, pc, asr pc
    60c4:	494c5f5f 	stmdbmi	ip, {r0, r1, r2, r3, r4, r6, r8, r9, sl, fp, ip, lr}^
    60c8:	5f5f454e 	svcpl	0x005f454e
    60cc:	6328202c 			; <UNDEFINED> instruction: 0x6328202c
    60d0:	20726168 	rsbscs	r6, r2, r8, ror #2
    60d4:	2c30292a 			; <UNDEFINED> instruction: 0x2c30292a
    60d8:	45522220 	ldrbmi	r2, [r2, #-544]	; 0xfffffde0
    60dc:	20544e45 	subscs	r4, r4, r5, asr #28
    60e0:	6c6c616d 	stfvse	f6, [ip], #-436	; 0xfffffe4c
    60e4:	7320636f 			; <UNDEFINED> instruction: 0x7320636f
    60e8:	65636375 	strbvs	r6, [r3, #-885]!	; 0xfffffc8b
    60ec:	64656465 	strbtvs	r6, [r5], #-1125	; 0xfffffb9b
    60f0:	00292922 	eoreq	r2, r9, r2, lsr #18
    60f4:	52415f5f 	subpl	r5, r1, #380	; 0x17c
    60f8:	45465f4d 	strbmi	r5, [r6, #-3917]	; 0xfffff0b3
    60fc:	52555441 	subspl	r5, r5, #1090519040	; 0x41000000
    6100:	52515f45 	subspl	r5, r1, #276	; 0x114
    6104:	00584d44 	subseq	r4, r8, r4, asr #26
    6108:	69745f5f 	ldmdbvs	r4!, {r0, r1, r2, r3, r4, r6, r8, r9, sl, fp, ip, lr}^
    610c:	745f656d 	ldrbvc	r6, [pc], #-1389	; 6114 <_Min_Stack_Size+0x5d14>
    6110:	6665645f 			; <UNDEFINED> instruction: 0x6665645f
    6114:	64656e69 	strbtvs	r6, [r5], #-3689	; 0xfffff197
    6118:	5f5f0020 	svcpl	0x005f0020
    611c:	5f4d5241 	svcpl	0x004d5241
    6120:	48435241 	stmdami	r3, {r0, r6, r9, ip, lr}^
    6124:	4153495f 	cmpmi	r3, pc, asr r9
    6128:	5548545f 	strbpl	r5, [r8, #-1119]	; 0xfffffba1
    612c:	3220424d 	eorcc	r4, r0, #-805306364	; 0xd0000004
    6130:	4f495f00 	svcmi	0x00495f00
    6134:	2046424e 	subcs	r4, r6, lr, asr #4
    6138:	5f5f0032 	svcpl	0x005f0032
    613c:	474e4f4c 	strbmi	r4, [lr, -ip, asr #30]
    6140:	4e4f4c5f 	mcrmi	12, 2, r4, cr15, cr15, {2}
    6144:	414d5f47 	cmpmi	sp, r7, asr #30
    6148:	205f5f58 	subscs	r5, pc, r8, asr pc	; <UNPREDICTABLE>
    614c:	66377830 			; <UNDEFINED> instruction: 0x66377830
    6150:	66666666 	strbtvs	r6, [r6], -r6, ror #12
    6154:	66666666 	strbtvs	r6, [r6], -r6, ror #12
    6158:	66666666 	strbtvs	r6, [r6], -r6, ror #12
    615c:	4c4c6666 	mcrrmi	6, 6, r6, ip, cr6
    6160:	615f5f00 	cmpvs	pc, r0, lsl #30
    6164:	745f6772 	ldrbvc	r6, [pc], #-1906	; 616c <_Min_Stack_Size+0x5d6c>
    6168:	5f657079 	svcpl	0x00657079
    616c:	28676174 	stmdacs	r7!, {r2, r4, r5, r6, r8, sp, lr}^
    6170:	5f677261 	svcpl	0x00677261
    6174:	646e696b 	strbtvs	r6, [lr], #-2411	; 0xfffff695
    6178:	6772612c 	ldrbvs	r6, [r2, -ip, lsr #2]!
    617c:	7864695f 	stmdavc	r4!, {r0, r1, r2, r3, r4, r6, r8, fp, sp, lr}^
    6180:	7079742c 	rsbsvc	r7, r9, ip, lsr #8
    6184:	61745f65 	cmnvs	r4, r5, ror #30
    6188:	64695f67 	strbtvs	r5, [r9], #-3943	; 0xfffff099
    618c:	00202978 	eoreq	r2, r0, r8, ror r9
    6190:	54535f5f 	ldrbpl	r5, [r3], #-3935	; 0xfffff0a1
    6194:	474e4952 	smlsldmi	r4, lr, r2, r9
    6198:	20297828 	eorcs	r7, r9, r8, lsr #16
    619c:	73007823 	movwvc	r7, #2083	; 0x823
    61a0:	74726f68 	ldrbtvc	r6, [r2], #-3944	; 0xfffff098
    61a4:	45525f00 	ldrbmi	r5, [r2, #-3840]	; 0xfffff100
    61a8:	5f544e45 	svcpl	0x00544e45
    61ac:	54494e49 	strbpl	r4, [r9], #-3657	; 0xfffff1b7
    61b0:	5254505f 	subspl	r5, r4, #95	; 0x5f
    61b4:	72617628 	rsbvc	r7, r1, #40, 12	; 0x2800000
    61b8:	207b2029 	rsbscs	r2, fp, r9, lsr #32
    61bc:	736d656d 	cmnvc	sp, #457179136	; 0x1b400000
    61c0:	28287465 	stmdacs	r8!, {r0, r2, r5, r6, sl, ip, sp, lr}
    61c4:	29726176 	ldmdbcs	r2!, {r1, r2, r4, r5, r6, r8, sp, lr}^
    61c8:	2c30202c 	ldccs	0, cr2, [r0], #-176	; 0xffffff50
    61cc:	7a697320 	bvc	1a62e54 <_Min_Stack_Size+0x1a62a54>
    61d0:	28666f65 	stmdacs	r6!, {r0, r2, r5, r6, r8, r9, sl, fp, sp, lr}^
    61d4:	6176282a 	cmnvs	r6, sl, lsr #16
    61d8:	29292972 	stmdbcs	r9!, {r1, r4, r5, r6, r8, fp, sp}
    61dc:	525f203b 	subspl	r2, pc, #59	; 0x3b
    61e0:	544e4545 	strbpl	r4, [lr], #-1349	; 0xfffffabb
    61e4:	494e495f 	stmdbmi	lr, {r0, r1, r2, r3, r4, r6, r8, fp, lr}^
    61e8:	54505f54 	ldrbpl	r5, [r0], #-3924	; 0xfffff0ac
    61ec:	455a5f52 	ldrbmi	r5, [sl, #-3922]	; 0xfffff0ae
    61f0:	44454f52 	strbmi	r4, [r5], #-3922	; 0xfffff0ae
    61f4:	72617628 	rsbvc	r7, r1, #40, 12	; 0x2800000
    61f8:	7d203b29 	fstmdbxvc	r0!, {d3-d22}	;@ Deprecated
    61fc:	435f5f00 	cmpmi	pc, #0, 30
    6200:	5259504f 	subspl	r5, r9, #79	; 0x4f
    6204:	54484749 	strbpl	r4, [r8], #-1865	; 0xfffff8b7
    6208:	20297328 	eorcs	r7, r9, r8, lsr #6
    620c:	75727473 	ldrbvc	r7, [r2, #-1139]!	; 0xfffffb8d
    6210:	5f207463 	svcpl	0x00207463
    6214:	6361685f 	cmnvs	r1, #6225920	; 0x5f0000
    6218:	5f5f006b 	svcpl	0x005f006b
    621c:	41524655 	cmpmi	r2, r5, asr r6
    6220:	495f5443 	ldmdbmi	pc, {r0, r1, r6, sl, ip, lr}^	; <UNPREDICTABLE>
    6224:	5f544942 	svcpl	0x00544942
    6228:	0030205f 	eorseq	r2, r0, pc, asr r0
    622c:	52415f5f 	subpl	r5, r1, #380	; 0x17c
    6230:	32335f4d 	eorscc	r5, r3, #308	; 0x134
    6234:	5f544942 	svcpl	0x00544942
    6238:	54415453 	strbpl	r5, [r1], #-1107	; 0xfffffbad
    623c:	00312045 	eorseq	r2, r1, r5, asr #32
    6240:	53524946 	cmppl	r2, #1146880	; 0x118000
    6244:	494c5f54 	stmdbmi	ip, {r2, r4, r6, r8, r9, sl, fp, ip, lr}^
    6248:	3020454e 	eorcc	r4, r0, lr, asr #10
    624c:	495f5f00 	ldmdbmi	pc, {r8, r9, sl, fp, ip, lr}^	; <UNPREDICTABLE>
    6250:	5f38544e 	svcpl	0x0038544e
    6254:	29632843 	stmdbcs	r3!, {r0, r1, r6, fp, sp}^
    6258:	5f006320 	svcpl	0x00006320
    625c:	52464c5f 	subpl	r4, r6, #24320	; 0x5f00
    6260:	5f544341 	svcpl	0x00544341
    6264:	54494249 	strbpl	r4, [r9], #-585	; 0xfffffdb7
    6268:	30205f5f 	eorcc	r5, r0, pc, asr pc
    626c:	54535f00 	ldrbpl	r5, [r3], #-3840	; 0xfffff100
    6270:	46454444 	strbmi	r4, [r5], -r4, asr #8
    6274:	205f485f 	subscs	r4, pc, pc, asr r8	; <UNPREDICTABLE>
    6278:	535f5f00 	cmppl	pc, #0, 30
    627c:	43415246 	movtmi	r5, #4678	; 0x1246
    6280:	50455f54 	subpl	r5, r5, r4, asr pc
    6284:	4f4c4953 	svcmi	0x004c4953
    6288:	205f5f4e 	subscs	r5, pc, lr, asr #30
    628c:	50317830 	eorspl	r7, r1, r0, lsr r8
    6290:	5248372d 	subpl	r3, r8, #11796480	; 0xb40000
    6294:	445f5f00 	ldrbmi	r5, [pc], #-3840	; 629c <_Min_Stack_Size+0x5e9c>
    6298:	4d5f4c42 	ldclmi	12, cr4, [pc, #-264]	; 6198 <_Min_Stack_Size+0x5d98>
    629c:	455f4e49 	ldrbmi	r4, [pc, #-3657]	; 545b <_Min_Stack_Size+0x505b>
    62a0:	5f5f5058 	svcpl	0x005f5058
    62a4:	312d2820 			; <UNDEFINED> instruction: 0x312d2820
    62a8:	29313230 	ldmdbcs	r1!, {r4, r5, r9, ip, sp}
    62ac:	535f5f00 	cmppl	pc, #0, 30
    62b0:	5f455a49 	svcpl	0x00455a49
    62b4:	5f002054 	svcpl	0x00002054
    62b8:	695f755f 	ldmdbvs	pc, {r0, r1, r2, r3, r4, r6, r8, sl, ip, sp, lr}^	; <UNPREDICTABLE>
    62bc:	645f746e 	ldrbvs	r7, [pc], #-1134	; 62c4 <_Min_Stack_Size+0x5ec4>
    62c0:	6e696665 	cdpvs	6, 6, cr6, cr9, cr5, {3}
    62c4:	00206465 	eoreq	r6, r0, r5, ror #8
    62c8:	72705f5f 	rsbsvc	r5, r0, #380	; 0x17c
    62cc:	66746e69 	ldrbtvs	r6, [r4], -r9, ror #28
    62d0:	6b696c30 	blvs	1a61398 <_Min_Stack_Size+0x1a60f98>
    62d4:	6d662865 	stclvs	8, cr2, [r6, #-404]!	; 0xfffffe6c
    62d8:	67726174 			; <UNDEFINED> instruction: 0x67726174
    62dc:	7269662c 	rsbvc	r6, r9, #44, 12	; 0x2c00000
    62e0:	61767473 	cmnvs	r6, r3, ror r4
    62e4:	67726172 			; <UNDEFINED> instruction: 0x67726172
    62e8:	6c002029 	stcvs	0, cr2, [r0], {41}	; 0x29
    62ec:	735f6463 	cmpvc	pc, #1660944384	; 0x63000000
    62f0:	705f7465 	subsvc	r7, pc, r5, ror #8
    62f4:	7469736f 	strbtvc	r7, [r9], #-879	; 0xfffffc91
    62f8:	006e6f69 	rsbeq	r6, lr, r9, ror #30
    62fc:	5f64636c 	svcpl	0x0064636c
    6300:	74696e69 	strbtvc	r6, [r9], #-3689	; 0xfffff197
    6304:	49504700 	ldmdbmi	r0, {r8, r9, sl, lr}^
    6308:	4f4d5f4f 	svcmi	0x004d5f4f
    630c:	4f5f4544 	svcmi	0x005f4544
    6310:	55505455 	ldrbpl	r5, [r0, #-1109]	; 0xfffffbab
    6314:	46415f54 			; <UNDEFINED> instruction: 0x46415f54
    6318:	20444f5f 	subcs	r4, r4, pc, asr pc
    631c:	30307830 	eorscc	r7, r0, r0, lsr r8
    6320:	30303030 	eorscc	r3, r0, r0, lsr r0
    6324:	00753730 	rsbseq	r3, r5, r0, lsr r7
    6328:	6f635f5f 	svcvs	0x00635f5f
    632c:	7261706d 	rsbvc	r7, r1, #109	; 0x6d
    6330:	5f6e665f 	svcpl	0x006e665f
    6334:	65645f74 	strbvs	r5, [r4, #-3956]!	; 0xfffff08c
    6338:	656e6966 	strbvs	r6, [lr, #-2406]!	; 0xfffff69a
    633c:	55002064 	strpl	r2, [r0, #-100]	; 0xffffff9c
    6340:	4d544e49 	ldclmi	14, cr4, [r4, #-292]	; 0xfffffedc
    6344:	435f5841 	cmpmi	pc, #4259840	; 0x410000
    6348:	20297828 	eorcs	r7, r9, r8, lsr #16
    634c:	49555f5f 	ldmdbmi	r5, {r0, r1, r2, r3, r4, r6, r8, r9, sl, fp, ip, lr}^
    6350:	414d544e 	cmpmi	sp, lr, asr #8
    6354:	28435f58 	stmdacs	r3, {r3, r4, r6, r8, r9, sl, fp, ip, lr}^
    6358:	5f002978 	svcpl	0x00002978
    635c:	53494d5f 	movtpl	r4, #40287	; 0x9d5f
    6360:	49565f43 	ldmdbmi	r6, {r0, r1, r6, r8, r9, sl, fp, ip, lr}^
    6364:	4c424953 	mcrrmi	9, 5, r4, r2, cr3	; <UNPREDICTABLE>
    6368:	00312045 	eorseq	r2, r1, r5, asr #32
    636c:	58455f5f 	stmdapl	r5, {r0, r1, r2, r3, r4, r6, r8, r9, sl, fp, ip, lr}^
    6370:	44460050 	strbmi	r0, [r6], #-80	; 0xffffffb0
    6374:	524c435f 	subpl	r4, ip, #2080374785	; 0x7c000001
    6378:	702c6e28 	eorvc	r6, ip, r8, lsr #28
    637c:	28282029 	stmdacs	r8!, {r0, r3, r5, sp}
    6380:	3e2d2970 			; <UNDEFINED> instruction: 0x3e2d2970
    6384:	64665f5f 	strbtvs	r5, [r6], #-3935	; 0xfffff0a1
    6388:	69625f73 	stmdbvs	r2!, {r0, r1, r4, r5, r6, r8, r9, sl, fp, ip, lr}^
    638c:	285b7374 	ldmdacs	fp, {r2, r4, r5, r6, r8, r9, ip, sp, lr}^
    6390:	5f2f296e 	svcpl	0x002f296e
    6394:	4244464e 	submi	r4, r4, #81788928	; 0x4e00000
    6398:	5d535449 	cfldrdpl	mvd5, [r3, #-292]	; 0xfffffedc
    639c:	203d2620 	eorscs	r2, sp, r0, lsr #12
    63a0:	665f5f7e 	usub16vs	r5, pc, lr	; <UNPREDICTABLE>
    63a4:	74657364 	strbtvc	r7, [r5], #-868	; 0xfffffc9c
    63a8:	73616d5f 	cmnvc	r1, #6080	; 0x17c0
    63ac:	296e286b 	stmdbcs	lr!, {r0, r1, r3, r5, r6, fp, sp}^
    63b0:	5f5f0029 	svcpl	0x005f0029
    63b4:	746e695f 	strbtvc	r6, [lr], #-2399	; 0xfffff6a1
    63b8:	745f3436 	ldrbvc	r3, [pc], #-1078	; 63c0 <_Min_Stack_Size+0x5fc0>
    63bc:	6665645f 			; <UNDEFINED> instruction: 0x6665645f
    63c0:	64656e69 	strbtvs	r6, [r5], #-3689	; 0xfffff197
    63c4:	5f003120 	svcpl	0x00003120
    63c8:	42444c5f 	submi	r4, r4, #24320	; 0x5f00
    63cc:	41485f4c 	cmpmi	r8, ip, asr #30
    63d0:	45445f53 	strbmi	r5, [r4, #-3923]	; 0xfffff0ad
    63d4:	4d524f4e 	ldclmi	15, cr4, [r2, #-312]	; 0xfffffec8
    63d8:	31205f5f 			; <UNDEFINED> instruction: 0x31205f5f
    63dc:	485f5f00 	ldmdami	pc, {r8, r9, sl, fp, ip, lr}^	; <UNPREDICTABLE>
    63e0:	5f455641 	svcpl	0x00455641
    63e4:	43455053 	movtmi	r5, #20563	; 0x5053
    63e8:	54414c55 	strbpl	r4, [r1], #-3157	; 0xfffff3ab
    63ec:	5f4e4f49 	svcpl	0x004e4f49
    63f0:	45464153 	strbmi	r4, [r6, #-339]	; 0xfffffead
    63f4:	4c41565f 	mcrrmi	6, 5, r5, r1, cr15
    63f8:	31204555 			; <UNDEFINED> instruction: 0x31204555
    63fc:	535f5f00 	cmppl	pc, #0, 30
    6400:	55434341 	strbpl	r4, [r3, #-833]	; 0xfffffcbf
    6404:	42465f4d 	submi	r5, r6, #308	; 0x134
    6408:	5f5f5449 	svcpl	0x005f5449
    640c:	5f003720 	svcpl	0x00003720
    6410:	4343475f 	movtmi	r4, #14175	; 0x375f
    6414:	5641485f 			; <UNDEFINED> instruction: 0x5641485f
    6418:	59535f45 	ldmdbpl	r3, {r0, r2, r6, r8, r9, sl, fp, ip, lr}^
    641c:	435f434e 	cmpmi	pc, #939524097	; 0x38000001
    6420:	41504d4f 	cmpmi	r0, pc, asr #26
    6424:	415f4552 	cmpmi	pc, r2, asr r5	; <UNPREDICTABLE>
    6428:	535f444e 	cmppl	pc, #1308622848	; 0x4e000000
    642c:	5f504157 	svcpl	0x00504157
    6430:	00312034 	eorseq	r2, r1, r4, lsr r0
    6434:	45425f5f 	strbmi	r5, [r2, #-3935]	; 0xfffff0a1
    6438:	5f4e4947 	svcpl	0x004e4947
    643c:	4c434544 	cfstr64mi	mvdx4, [r3], {68}	; 0x44
    6440:	5f002053 	svcpl	0x00002053
    6444:	4343415f 	movtmi	r4, #12639	; 0x315f
    6448:	4d5f4d55 	ldclmi	13, cr4, [pc, #-340]	; 62fc <_Min_Stack_Size+0x5efc>
    644c:	5f5f4e49 	svcpl	0x005f4e49
    6450:	302d2820 	eorcc	r2, sp, r0, lsr #16
    6454:	31503158 	cmpcc	r0, r8, asr r1
    6458:	302d4b35 	eorcc	r4, sp, r5, lsr fp
    645c:	31503158 	cmpcc	r0, r8, asr r1
    6460:	00294b35 	eoreq	r4, r9, r5, lsr fp
    6464:	4e475f5f 	mcrmi	15, 2, r5, cr7, cr15, {2}
    6468:	565f4355 			; <UNDEFINED> instruction: 0x565f4355
    646c:	494c5f41 	stmdbmi	ip, {r0, r6, r8, r9, sl, fp, ip, lr}^
    6470:	435f5453 	cmpmi	pc, #1392508928	; 0x53000000
    6474:	41504d4f 	cmpmi	r0, pc, asr #26
    6478:	49424954 	stmdbmi	r2, {r2, r4, r6, r8, fp, lr}^
    647c:	5954494c 	ldmdbpl	r4, {r2, r3, r6, r8, fp, lr}^
    6480:	5f003120 	svcpl	0x00003120
    6484:	4d52415f 	ldfmie	f4, [r2, #-380]	; 0xfffffe84
    6488:	4145465f 	cmpmi	r5, pc, asr r6
    648c:	45525554 	ldrbmi	r5, [r2, #-1364]	; 0xfffffaac
    6490:	5952435f 	ldmdbpl	r2, {r0, r1, r2, r3, r4, r6, r8, r9, lr}^
    6494:	004f5450 	subeq	r5, pc, r0, asr r4	; <UNPREDICTABLE>
    6498:	49706d74 	ldmdbmi	r0!, {r2, r4, r5, r6, r8, sl, fp, sp, lr}^
    649c:	0032746e 	eorseq	r7, r2, lr, ror #8
    64a0:	4e495f5f 	mcrmi	15, 2, r5, cr9, cr15, {2}
    64a4:	454c5f54 	strbmi	r5, [ip, #-3924]	; 0xfffff0ac
    64a8:	33545341 	cmpcc	r4, #67108865	; 0x4000001
    64ac:	59545f32 	ldmdbpl	r4, {r1, r4, r5, r8, r9, sl, fp, ip, lr}^
    64b0:	5f5f4550 	svcpl	0x005f4550
    64b4:	6e6f6c20 	cdpvs	12, 6, cr6, cr15, cr0, {1}
    64b8:	6e692067 	cdpvs	0, 6, cr2, cr9, cr7, {3}
    64bc:	58450074 	stmdapl	r5, {r2, r4, r5, r6}^
    64c0:	5f344954 	svcpl	0x00344954
    64c4:	20515249 	subscs	r5, r1, r9, asr #4
    64c8:	46003031 			; <UNDEFINED> instruction: 0x46003031
    64cc:	4f435f44 	svcmi	0x00435f44
    64d0:	66285950 			; <UNDEFINED> instruction: 0x66285950
    64d4:	2029742c 	eorcs	r7, r9, ip, lsr #8
    64d8:	696f7628 	stmdbvs	pc!, {r3, r5, r9, sl, ip, sp, lr}^	; <UNPREDICTABLE>
    64dc:	2a282964 	bcs	a10a74 <_Min_Stack_Size+0xa10674>
    64e0:	20297428 	eorcs	r7, r9, r8, lsr #8
    64e4:	282a203d 	stmdacs	sl!, {r0, r2, r3, r4, r5, sp}
    64e8:	00292966 	eoreq	r2, r9, r6, ror #18
    64ec:	49555f5f 	ldmdbmi	r5, {r0, r1, r2, r3, r4, r6, r8, r9, sl, fp, ip, lr}^
    64f0:	4c5f544e 	cfldrdmi	mvd5, [pc], {78}	; 0x4e
    64f4:	54534145 	ldrbpl	r4, [r3], #-325	; 0xfffffebb
    64f8:	4d5f3436 	cfldrdmi	mvd3, [pc, #-216]	; 6428 <_Min_Stack_Size+0x6028>
    64fc:	5f5f5841 	svcpl	0x005f5841
    6500:	66783020 	ldrbtvs	r3, [r8], -r0, lsr #32
    6504:	66666666 	strbtvs	r6, [r6], -r6, ror #12
    6508:	66666666 	strbtvs	r6, [r6], -r6, ror #12
    650c:	66666666 	strbtvs	r6, [r6], -r6, ror #12
    6510:	55666666 	strbpl	r6, [r6, #-1638]!	; 0xfffff99a
    6514:	5f004c4c 	svcpl	0x00004c4c
    6518:	4152465f 	cmpmi	r2, pc, asr r6
    651c:	495f5443 	ldmdbmi	pc, {r0, r1, r6, sl, ip, lr}^	; <UNPREDICTABLE>
    6520:	5f544942 	svcpl	0x00544942
    6524:	0030205f 	eorseq	r2, r0, pc, asr r0
    6528:	49545845 	ldmdbmi	r4, {r0, r2, r6, fp, ip, lr}^
    652c:	495f3131 	ldmdbmi	pc, {r0, r4, r5, r8, ip, sp}^	; <UNPREDICTABLE>
    6530:	34205152 	strtcc	r5, [r0], #-338	; 0xfffffeae
    6534:	5f5f0030 	svcpl	0x005f0030
    6538:	5f544e49 	svcpl	0x00544e49
    653c:	54444957 	strbpl	r4, [r4], #-2391	; 0xfffff6a9
    6540:	205f5f48 	subscs	r5, pc, r8, asr #30
    6544:	5f003233 	svcpl	0x00003233
    6548:	57454e5f 	smlsldpl	r4, r5, pc, lr	; <UNPREDICTABLE>
    654c:	5f42494c 	svcpl	0x0042494c
    6550:	43544150 	cmpmi	r4, #80, 2
    6554:	56454c48 	strbpl	r4, [r5], -r8, asr #24
    6558:	5f5f4c45 	svcpl	0x005f4c45
    655c:	5f003020 	svcpl	0x00003020
    6560:	636f6c5f 	cmnvs	pc, #24320	; 0x5f00
    6564:	63615f6b 	cmnvs	r1, #428	; 0x1ac
    6568:	72697571 	rsbvc	r7, r9, #473956352	; 0x1c400000
    656c:	6f6c2865 	svcvs	0x006c2865
    6570:	20296b63 	eorcs	r6, r9, r3, ror #22
    6574:	65725f5f 	ldrbvs	r5, [r2, #-3935]!	; 0xfffff0a1
    6578:	67726174 			; <UNDEFINED> instruction: 0x67726174
    657c:	6c5f7465 	cfldrdvs	mvd7, [pc], {101}	; 0x65
    6580:	5f6b636f 	svcpl	0x006b636f
    6584:	75716361 	ldrbvc	r6, [r1, #-865]!	; 0xfffffc9f
    6588:	28657269 	stmdacs	r5!, {r0, r3, r5, r6, r9, ip, sp, lr}^
    658c:	6b636f6c 	blvs	18e2344 <_Min_Stack_Size+0x18e1f44>
    6590:	5f5f0029 	svcpl	0x005f0029
    6594:	4544524f 	strbmi	r5, [r4, #-591]	; 0xfffffdb1
    6598:	494c5f52 	stmdbmi	ip, {r1, r4, r6, r8, r9, sl, fp, ip, lr}^
    659c:	454c5454 	strbmi	r5, [ip, #-1108]	; 0xfffffbac
    65a0:	444e455f 	strbmi	r4, [lr], #-1375	; 0xfffffaa1
    65a4:	5f4e4149 	svcpl	0x004e4149
    65a8:	3231205f 	eorscc	r2, r1, #95	; 0x5f
    65ac:	5f003433 	svcpl	0x00003433
    65b0:	7a69735f 	bvc	1a63334 <_Min_Stack_Size+0x1a62f34>
    65b4:	00745f65 	rsbseq	r5, r4, r5, ror #30
    65b8:	4f495047 	svcmi	0x00495047
    65bc:	4e49505f 	mcrmi	0, 2, r5, cr9, cr15, {2}
    65c0:	2031315f 	eorscs	r3, r1, pc, asr r1
    65c4:	69752828 	ldmdbvs	r5!, {r3, r5, fp, sp}^
    65c8:	3631746e 	ldrtcc	r7, [r1], -lr, ror #8
    65cc:	3029745f 	eorcc	r7, r9, pc, asr r4
    65d0:	30383078 	eorscc	r3, r8, r8, ror r0
    65d4:	5f002930 	svcpl	0x00002930
    65d8:	544c465f 	strbpl	r4, [ip], #-1631	; 0xfffff9a1
    65dc:	524f4e5f 	subpl	r4, pc, #1520	; 0x5f0
    65e0:	414d5f4d 	cmpmi	sp, sp, asr #30
    65e4:	205f5f58 	subscs	r5, pc, r8, asr pc	; <UNPREDICTABLE>
    65e8:	30342e33 	eorscc	r2, r4, r3, lsr lr
    65ec:	33323832 	teqcc	r2, #3276800	; 0x320000
    65f0:	33363634 	teqcc	r6, #52, 12	; 0x3400000
    65f4:	38323538 	ldmdacc	r2!, {r3, r4, r5, r8, sl, ip, sp}
    65f8:	2b653638 	blcs	1953ee0 <_Min_Stack_Size+0x1953ae0>
    65fc:	00463833 	subeq	r3, r6, r3, lsr r8
    6600:	4f445f5f 	svcmi	0x00445f5f
    6604:	2c205354 	stccs	3, cr5, [r0], #-336	; 0xfffffeb0
    6608:	2e2e2e20 	cdpcs	14, 2, cr2, cr14, cr0, {1}
    660c:	45525f00 	ldrbmi	r5, [r2, #-3840]	; 0xfffff100
    6610:	5f544e45 	svcpl	0x00544e45
    6614:	44544547 	ldrbmi	r4, [r4], #-1351	; 0xfffffab9
    6618:	5f455441 	svcpl	0x00455441
    661c:	5f525245 	svcpl	0x00525245
    6620:	74702850 	ldrbtvc	r2, [r0], #-2128	; 0xfffff7b0
    6624:	28202972 	stmdacs	r0!, {r1, r4, r5, r6, r8, fp, sp}
    6628:	70282826 	eorvc	r2, r8, r6, lsr #16
    662c:	2d297274 	sfmcs	f7, 4, [r9, #-464]!	; 0xfffffe30
    6630:	696d5f3e 	stmdbvs	sp!, {r1, r2, r3, r4, r5, r8, r9, sl, fp, ip, lr}^
    6634:	3e2d6373 	mcrcc	3, 1, r6, cr13, cr3, {3}
    6638:	7465675f 	strbtvc	r6, [r5], #-1887	; 0xfffff8a1
    663c:	65746164 	ldrbvs	r6, [r4, #-356]!	; 0xfffffe9c
    6640:	7272655f 	rsbsvc	r6, r2, #398458880	; 0x17c00000
    6644:	5f002929 	svcpl	0x00002929
    6648:	544c465f 	strbpl	r4, [ip], #-1631	; 0xfffff9a1
    664c:	4e494d5f 	mcrmi	13, 2, r4, cr9, cr15, {2}
    6650:	5f30315f 	svcpl	0x0030315f
    6654:	5f505845 	svcpl	0x00505845
    6658:	2d28205f 	stccs	0, cr2, [r8, #-380]!	; 0xfffffe84
    665c:	00293733 	eoreq	r3, r9, r3, lsr r7
    6660:	4f495047 	svcmi	0x00495047
    6664:	4e49505f 	mcrmi	0, 2, r5, cr9, cr15, {2}
    6668:	2820315f 	stmdacs	r0!, {r0, r1, r2, r3, r4, r6, r8, ip, sp}
    666c:	6e697528 	cdpvs	5, 6, cr7, cr9, cr8, {1}
    6670:	5f363174 	svcpl	0x00363174
    6674:	78302974 	ldmdavc	r0!, {r2, r4, r5, r6, r8, fp, sp}
    6678:	32303030 	eorscc	r3, r0, #48	; 0x30
    667c:	5f5f0029 	svcpl	0x005f0029
    6680:	43414c55 	movtmi	r4, #7253	; 0x1c55
    6684:	5f4d5543 	svcpl	0x004d5543
    6688:	54494249 	strbpl	r4, [r9], #-585	; 0xfffffdb7
    668c:	33205f5f 			; <UNDEFINED> instruction: 0x33205f5f
    6690:	49550032 	ldmdbmi	r5, {r1, r4, r5}^
    6694:	465f544e 	ldrbmi	r5, [pc], -lr, asr #8
    6698:	38545341 	ldmdacc	r4, {r0, r6, r8, r9, ip, lr}^
    669c:	58414d5f 	stmdapl	r1, {r0, r1, r2, r3, r4, r6, r8, sl, fp, lr}^
    66a0:	5f5f2820 	svcpl	0x005f2820
    66a4:	544e4955 	strbpl	r4, [lr], #-2389	; 0xfffff6ab
    66a8:	5341465f 	movtpl	r4, #5727	; 0x165f
    66ac:	4d5f3854 	ldclmi	8, cr3, [pc, #-336]	; 6564 <_Min_Stack_Size+0x6164>
    66b0:	5f5f5841 	svcpl	0x005f5841
    66b4:	5f5f0029 	svcpl	0x005f0029
    66b8:	414c4c55 	cmpmi	ip, r5, asr ip
    66bc:	4d554343 	ldclmi	3, cr4, [r5, #-268]	; 0xfffffef4
    66c0:	5350455f 	cmppl	r0, #398458880	; 0x17c00000
    66c4:	4e4f4c49 	cdpmi	12, 4, cr4, cr15, cr9, {2}
    66c8:	30205f5f 	eorcc	r5, r0, pc, asr pc
    66cc:	2d503178 	ldfcse	f3, [r0, #-480]	; 0xfffffe20
    66d0:	4c553233 	lfmmi	f3, 2, [r5], {51}	; 0x33
    66d4:	5f004b4c 	svcpl	0x00004b4c
    66d8:	455a4953 	ldrbmi	r4, [sl, #-2387]	; 0xfffff6ad
    66dc:	445f545f 	ldrbmi	r5, [pc], #-1119	; 66e4 <_Min_Stack_Size+0x62e4>
    66e0:	4e494645 	cdpmi	6, 4, cr4, cr9, cr5, {2}
    66e4:	00204445 	eoreq	r4, r0, r5, asr #8
    66e8:	51445f5f 	cmppl	r4, pc, asr pc
    66ec:	4942465f 	stmdbmi	r2, {r0, r1, r2, r3, r4, r6, r9, sl, lr}^
    66f0:	205f5f54 	subscs	r5, pc, r4, asr pc	; <UNPREDICTABLE>
    66f4:	5f003336 	svcpl	0x00003336
    66f8:	554e475f 	strbpl	r4, [lr, #-1887]	; 0xfffff8a1
    66fc:	5349565f 	movtpl	r5, #38495	; 0x965f
    6700:	454c4249 	strbmi	r4, [ip, #-585]	; 0xfffffdb7
    6704:	4c003020 	stcmi	0, cr3, [r0], {32}
    6708:	525f4443 	subspl	r4, pc, #1124073472	; 0x43000000
    670c:	49445f53 	stmdbmi	r4, {r0, r1, r4, r6, r8, r9, sl, fp, ip, lr}^
    6710:	4c424153 	stfmie	f4, [r2], {83}	; 0x53
    6714:	00302045 	eorseq	r2, r0, r5, asr #32
    6718:	41535f5f 	cmpmi	r3, pc, asr pc
    671c:	4d554343 	ldclmi	3, cr4, [r5, #-268]	; 0xfffffef4
    6720:	4942495f 	stmdbmi	r2, {r0, r1, r2, r3, r4, r6, r8, fp, lr}^
    6724:	205f5f54 	subscs	r5, pc, r4, asr pc	; <UNPREDICTABLE>
    6728:	5f5f0038 	svcpl	0x005f0038
    672c:	44525450 	ldrbmi	r5, [r2], #-1104	; 0xfffffbb0
    6730:	5f464649 	svcpl	0x00464649
    6734:	5f002054 	svcpl	0x00002054
    6738:	5148555f 	cmppl	r8, pc, asr r5
    673c:	4942495f 	stmdbmi	r2, {r0, r1, r2, r3, r4, r6, r8, fp, lr}^
    6740:	205f5f54 	subscs	r5, pc, r4, asr pc	; <UNPREDICTABLE>
    6744:	50470030 	subpl	r0, r7, r0, lsr r0
    6748:	505f4f49 	subspl	r4, pc, r9, asr #30
    674c:	355f4e49 	ldrbcc	r4, [pc, #-3657]	; 590b <_Min_Stack_Size+0x550b>
    6750:	75282820 	strvc	r2, [r8, #-2080]!	; 0xfffff7e0
    6754:	31746e69 	cmncc	r4, r9, ror #28
    6758:	29745f36 	ldmdbcs	r4!, {r1, r2, r4, r5, r8, r9, sl, fp, ip, lr}^
    675c:	30307830 	eorscc	r7, r0, r0, lsr r8
    6760:	00293032 	eoreq	r3, r9, r2, lsr r0
    6764:	4f495047 	svcmi	0x00495047
    6768:	41425f43 	cmpmi	r2, r3, asr #30
    676c:	28204553 	stmdacs	r0!, {r0, r1, r4, r6, r8, sl, lr}
    6770:	69726550 	ldmdbvs	r2!, {r4, r6, r8, sl, sp, lr}^
    6774:	72656870 	rsbvc	r6, r5, #112, 16	; 0x700000
    6778:	5f736c61 	svcpl	0x00736c61
    677c:	45534142 	ldrbmi	r4, [r3, #-322]	; 0xfffffebe
    6780:	30202b20 	eorcc	r2, r0, r0, lsr #22
    6784:	30303078 	eorscc	r3, r0, r8, ror r0
    6788:	30303131 	eorscc	r3, r0, r1, lsr r1
    678c:	294c5530 	stmdbcs	ip, {r4, r5, r8, sl, ip, lr}^
    6790:	49504700 	ldmdbmi	r0, {r8, r9, sl, lr}^
    6794:	425f424f 	subsmi	r4, pc, #-268435452	; 0xf0000004
    6798:	20455341 	subcs	r5, r5, r1, asr #6
    679c:	72655028 	rsbvc	r5, r5, #40	; 0x28
    67a0:	65687069 	strbvs	r7, [r8, #-105]!	; 0xffffff97
    67a4:	736c6172 	cmnvc	ip, #-2147483620	; 0x8000001c
    67a8:	5341425f 	movtpl	r4, #4703	; 0x125f
    67ac:	202b2045 	eorcs	r2, fp, r5, asr #32
    67b0:	30307830 	eorscc	r7, r0, r0, lsr r8
    67b4:	43303130 	teqmi	r0, #48, 2
    67b8:	4c553030 	mrrcmi	0, 3, r3, r5, cr0
    67bc:	5f5f0029 	svcpl	0x005f0029
    67c0:	5f544e49 	svcpl	0x00544e49
    67c4:	54534146 	ldrbpl	r4, [r3], #-326	; 0xfffffeba
    67c8:	545f3631 	ldrbpl	r3, [pc], #-1585	; 67d0 <_Min_Stack_Size+0x63d0>
    67cc:	5f455059 	svcpl	0x00455059
    67d0:	6e69205f 	mcrvs	0, 3, r2, cr9, cr15, {2}
    67d4:	555f0074 	ldrbpl	r0, [pc, #-116]	; 6768 <_Min_Stack_Size+0x6368>
    67d8:	4d544e49 	ldclmi	14, cr4, [r4, #-292]	; 0xfffffedc
    67dc:	545f5841 	ldrbpl	r5, [pc], #-2113	; 67e4 <_Min_Stack_Size+0x63e4>
    67e0:	4345445f 	movtmi	r4, #21599	; 0x545f
    67e4:	4552414c 	ldrbmi	r4, [r2, #-332]	; 0xfffffeb4
    67e8:	5f002044 	svcpl	0x00002044
    67ec:	4341535f 	movtmi	r5, #4959	; 0x135f
    67f0:	5f4d5543 	svcpl	0x004d5543
    67f4:	5f4e494d 	svcpl	0x004e494d
    67f8:	2d28205f 	stccs	0, cr2, [r8, #-380]!	; 0xfffffe84
    67fc:	50315830 	eorspl	r5, r1, r0, lsr r8
    6800:	2d4b4837 	stclcs	8, cr4, [fp, #-220]	; 0xffffff24
    6804:	50315830 	eorspl	r5, r1, r0, lsr r8
    6808:	294b4837 	stmdbcs	fp, {r0, r1, r2, r4, r5, fp, lr}^
    680c:	555f5f00 	ldrbpl	r5, [pc, #-3840]	; 5914 <_Min_Stack_Size+0x5514>
    6810:	4152464c 	cmpmi	r2, ip, asr #12
    6814:	4d5f5443 	cfldrdmi	mvd5, [pc, #-268]	; 6710 <_Min_Stack_Size+0x6310>
    6818:	5f5f5841 	svcpl	0x005f5841
    681c:	46583020 	ldrbmi	r3, [r8], -r0, lsr #32
    6820:	46464646 	strbmi	r4, [r6], -r6, asr #12
    6824:	50464646 	subpl	r4, r6, r6, asr #12
    6828:	5532332d 	ldrpl	r3, [r2, #-813]!	; 0xfffffcd3
    682c:	5f00524c 	svcpl	0x0000524c
    6830:	4e49555f 	mcrmi	5, 2, r5, cr9, cr15, {2}
    6834:	454c5f54 	strbmi	r5, [ip, #-3924]	; 0xfffff0ac
    6838:	31545341 	cmpcc	r4, r1, asr #6
    683c:	59545f36 	ldmdbpl	r4, {r1, r2, r4, r5, r8, r9, sl, fp, ip, lr}^
    6840:	5f5f4550 	svcpl	0x005f4550
    6844:	6f687320 	svcvs	0x00687320
    6848:	75207472 	strvc	r7, [r0, #-1138]!	; 0xfffffb8e
    684c:	6769736e 	strbvs	r7, [r9, -lr, ror #6]!
    6850:	2064656e 	rsbcs	r6, r4, lr, ror #10
    6854:	00746e69 	rsbseq	r6, r4, r9, ror #28
    6858:	5f44495f 	svcpl	0x0044495f
    685c:	45445f54 	strbmi	r5, [r4, #-3924]	; 0xfffff0ac
    6860:	52414c43 	subpl	r4, r1, #17152	; 0x4300
    6864:	00204445 	eoreq	r4, r0, r5, asr #8
    6868:	52415f5f 	subpl	r5, r1, #380	; 0x17c
    686c:	45465f4d 	strbmi	r5, [r6, #-3917]	; 0xfffff0b3
    6870:	52555441 	subspl	r5, r5, #1090519040	; 0x41000000
    6874:	4d465f45 	stclmi	15, cr5, [r6, #-276]	; 0xfffffeec
    6878:	5f5f0041 	svcpl	0x005f0041
    687c:	4343414c 	movtmi	r4, #12620	; 0x314c
    6880:	4d5f4d55 	ldclmi	13, cr4, [pc, #-340]	; 6734 <_Min_Stack_Size+0x6334>
    6884:	5f5f5841 	svcpl	0x005f5841
    6888:	37583020 	ldrbcc	r3, [r8, -r0, lsr #32]
    688c:	46464646 	strbmi	r4, [r6], -r6, asr #12
    6890:	46464646 	strbmi	r4, [r6], -r6, asr #12
    6894:	46464646 	strbmi	r4, [r6], -r6, asr #12
    6898:	50464646 	subpl	r4, r6, r6, asr #12
    689c:	4c31332d 	ldcmi	3, cr3, [r1], #-180	; 0xffffff4c
    68a0:	5f5f004b 	svcpl	0x005f004b
    68a4:	52414843 	subpl	r4, r1, #4390912	; 0x430000
    68a8:	545f3631 	ldrbpl	r3, [pc], #-1585	; 68b0 <_Min_Stack_Size+0x64b0>
    68ac:	5f455059 	svcpl	0x00455059
    68b0:	6873205f 	ldmdavs	r3!, {r0, r1, r2, r3, r4, r6, sp}^
    68b4:	2074726f 	rsbscs	r7, r4, pc, ror #4
    68b8:	69736e75 	ldmdbvs	r3!, {r0, r2, r4, r5, r6, r9, sl, fp, sp, lr}^
    68bc:	64656e67 	strbtvs	r6, [r5], #-3687	; 0xfffff199
    68c0:	746e6920 	strbtvc	r6, [lr], #-2336	; 0xfffff6e0
    68c4:	49504700 	ldmdbmi	r0, {r8, r9, sl, lr}^
    68c8:	49505f4f 	ldmdbmi	r0, {r0, r1, r2, r3, r6, r8, r9, sl, fp, ip, lr}^
    68cc:	20365f4e 	eorscs	r5, r6, lr, asr #30
    68d0:	69752828 	ldmdbvs	r5!, {r3, r5, fp, sp}^
    68d4:	3631746e 	ldrtcc	r7, [r1], -lr, ror #8
    68d8:	3029745f 	eorcc	r7, r9, pc, asr r4
    68dc:	34303078 	ldrtcc	r3, [r0], #-120	; 0xffffff88
    68e0:	5f002930 	svcpl	0x00002930
    68e4:	544c465f 	strbpl	r4, [ip], #-1631	; 0xfffff9a1
    68e8:	5f583233 	svcpl	0x00583233
    68ec:	5f474944 	svcpl	0x00474944
    68f0:	3531205f 	ldrcc	r2, [r1, #-95]!	; 0xffffffa1
    68f4:	735f5f00 	cmpvc	pc, #0, 30
    68f8:	656e6769 	strbvs	r6, [lr, #-1897]!	; 0xfffff897
    68fc:	69732064 	ldmdbvs	r3!, {r2, r5, r6, sp}^
    6900:	64656e67 	strbtvs	r6, [r5], #-3687	; 0xfffff199
    6904:	555f5f00 	ldrbpl	r5, [pc, #-3840]	; 5a0c <_Min_Stack_Size+0x560c>
    6908:	465f5154 			; <UNDEFINED> instruction: 0x465f5154
    690c:	5f544942 	svcpl	0x00544942
    6910:	3231205f 	eorscc	r2, r1, #95	; 0x5f
    6914:	564e0038 			; <UNDEFINED> instruction: 0x564e0038
    6918:	495f4349 	ldmdbmi	pc, {r0, r3, r6, r8, r9, lr}^	; <UNPREDICTABLE>
    691c:	30315152 	eorscc	r5, r1, r2, asr r1
    6920:	5458455f 	ldrbpl	r4, [r8], #-1375	; 0xfffffaa1
    6924:	455f3449 	ldrbmi	r3, [pc, #-1097]	; 64e3 <_Min_Stack_Size+0x60e3>
    6928:	4c42414e 	stfmie	f4, [r2], {78}	; 0x4e
    692c:	4e282045 	cdpmi	0, 2, cr2, cr8, cr5, {2}
    6930:	5f434956 	svcpl	0x00434956
    6934:	52455349 	subpl	r5, r5, #603979777	; 0x24000001
    6938:	3d7c2030 	ldclcc	0, cr2, [ip, #-192]!	; 0xffffff40
    693c:	3c3c3120 	ldfccs	f3, [ip], #-128	; 0xffffff80
    6940:	00293031 	eoreq	r3, r9, r1, lsr r0
    6944:	4b4c425f 	blmi	13172c8 <_Min_Stack_Size+0x1316ec8>
    6948:	5f544e43 	svcpl	0x00544e43
    694c:	45445f54 	strbmi	r5, [r4, #-3924]	; 0xfffff0ac
    6950:	52414c43 	subpl	r4, r1, #17152	; 0x4300
    6954:	00204445 	eoreq	r4, r0, r5, asr #8
    6958:	49465f5f 	stmdbmi	r6, {r0, r1, r2, r3, r4, r6, r8, r9, sl, fp, ip, lr}^
    695c:	4554494e 	ldrbmi	r4, [r4, #-2382]	; 0xfffff6b2
    6960:	54414d5f 	strbpl	r4, [r1], #-3423	; 0xfffff2a1
    6964:	4e4f5f48 	cdpmi	15, 4, cr5, cr15, cr8, {2}
    6968:	5f5f594c 	svcpl	0x005f594c
    696c:	5f003020 	svcpl	0x00003020
    6970:	544e495f 	strbpl	r4, [lr], #-2399	; 0xfffff6a1
    6974:	5341465f 	movtpl	r4, #5727	; 0x165f
    6978:	5f363154 	svcpl	0x00363154
    697c:	5f58414d 	svcpl	0x0058414d
    6980:	7830205f 	ldmdavc	r0!, {r0, r1, r2, r3, r4, r6, sp}
    6984:	66666637 			; <UNDEFINED> instruction: 0x66666637
    6988:	66666666 	strbtvs	r6, [r6], -r6, ror #12
    698c:	685f5f00 	ldmdavs	pc, {r8, r9, sl, fp, ip, lr}^	; <UNPREDICTABLE>
    6990:	5f657661 	svcpl	0x00657661
    6994:	676e6f6c 	strbvs	r6, [lr, -ip, ror #30]!
    6998:	676e6f6c 	strbvs	r6, [lr, -ip, ror #30]!
    699c:	31203436 			; <UNDEFINED> instruction: 0x31203436
    69a0:	44434c00 	strbmi	r4, [r3], #-3072	; 0xfffff400
    69a4:	5f53525f 	svcpl	0x0053525f
    69a8:	42414e45 	submi	r4, r1, #1104	; 0x450
    69ac:	3120454c 			; <UNDEFINED> instruction: 0x3120454c
    69b0:	49564e00 	ldmdbmi	r6, {r9, sl, fp, lr}^
    69b4:	52495f43 	subpl	r5, r9, #268	; 0x10c
    69b8:	455f3751 	ldrbmi	r3, [pc, #-1873]	; 626f <_Min_Stack_Size+0x5e6f>
    69bc:	31495458 	cmpcc	r9, r8, asr r4
    69c0:	5349445f 	movtpl	r4, #37983	; 0x945f
    69c4:	454c4241 	strbmi	r4, [ip, #-577]	; 0xfffffdbf
    69c8:	564e2820 	strbpl	r2, [lr], -r0, lsr #16
    69cc:	495f4349 	ldmdbmi	pc, {r0, r3, r6, r8, r9, lr}^	; <UNPREDICTABLE>
    69d0:	30524543 	subscc	r4, r2, r3, asr #10
    69d4:	203d7c20 	eorscs	r7, sp, r0, lsr #24
    69d8:	373c3c31 			; <UNDEFINED> instruction: 0x373c3c31
    69dc:	45530029 	ldrbmi	r0, [r3, #-41]	; 0xffffffd7
    69e0:	455f4b45 	ldrbmi	r4, [pc, #-2885]	; 5ea3 <_Min_Stack_Size+0x5aa3>
    69e4:	3220444e 	eorcc	r4, r0, #1308622848	; 0x4e000000
    69e8:	465f5f00 	ldrbmi	r5, [pc], -r0, lsl #30
    69ec:	36545341 	ldrbcc	r5, [r4], -r1, asr #6
    69f0:	6c222034 	stcvs	0, cr2, [r2], #-208	; 0xffffff30
    69f4:	5f00226c 	svcpl	0x0000226c
    69f8:	6f6c635f 	svcvs	0x006c635f
    69fc:	745f6b63 	ldrbvc	r6, [pc], #-2915	; 6a04 <_Min_Stack_Size+0x6604>
    6a00:	6665645f 			; <UNDEFINED> instruction: 0x6665645f
    6a04:	64656e69 	strbtvs	r6, [r5], #-3689	; 0xfffff197
    6a08:	5f5f0020 	svcpl	0x005f0020
    6a0c:	6b636f6c 	blvs	18e27c4 <_Min_Stack_Size+0x18e23c4>
    6a10:	7972745f 	ldmdbvc	r2!, {r0, r1, r2, r3, r4, r6, sl, ip, sp, lr}^
    6a14:	7163615f 	cmnvc	r3, pc, asr r1
    6a18:	65726975 	ldrbvs	r6, [r2, #-2421]!	; 0xfffff68b
    6a1c:	636f6c28 	cmnvs	pc, #40, 24	; 0x2800
    6a20:	5f20296b 	svcpl	0x0020296b
    6a24:	7465725f 	strbtvc	r7, [r5], #-607	; 0xfffffda1
    6a28:	65677261 	strbvs	r7, [r7, #-609]!	; 0xfffffd9f
    6a2c:	6f6c5f74 	svcvs	0x006c5f74
    6a30:	745f6b63 	ldrbvc	r6, [pc], #-2915	; 6a38 <_Min_Stack_Size+0x6638>
    6a34:	615f7972 	cmpvs	pc, r2, ror r9	; <UNPREDICTABLE>
    6a38:	69757163 	ldmdbvs	r5!, {r0, r1, r5, r6, r8, ip, sp, lr}^
    6a3c:	6c286572 	cfstr32vs	mvfx6, [r8], #-456	; 0xfffffe38
    6a40:	296b636f 	stmdbcs	fp!, {r0, r1, r2, r3, r5, r6, r8, r9, sp, lr}^
    6a44:	49555f00 	ldmdbmi	r5, {r8, r9, sl, fp, ip, lr}^
    6a48:	5450544e 	ldrbpl	r5, [r0], #-1102	; 0xfffffbb2
    6a4c:	5f545f52 	svcpl	0x00545f52
    6a50:	4c434544 	cfstr64mi	mvdx4, [r3], {68}	; 0x44
    6a54:	44455241 	strbmi	r5, [r5], #-577	; 0xfffffdbf
    6a58:	58450020 	stmdapl	r5, {r5}^
    6a5c:	35314954 	ldrcc	r4, [r1, #-2388]!	; 0xfffff6ac
    6a60:	5152495f 	cmppl	r2, pc, asr r9
    6a64:	00303420 	eorseq	r3, r0, r0, lsr #8
    6a68:	54495257 	strbpl	r5, [r9], #-599	; 0xfffffda9
    6a6c:	4f545f45 	svcmi	0x00545f45
    6a70:	44434c5f 	strbmi	r4, [r3], #-3167	; 0xfffff3a1
    6a74:	5f003020 	svcpl	0x00003020
    6a78:	41484357 	cmpmi	r8, r7, asr r3
    6a7c:	5f545f52 	svcpl	0x00545f52
    6a80:	49464544 	stmdbmi	r6, {r2, r6, r8, sl, lr}^
    6a84:	2044454e 	subcs	r4, r4, lr, asr #10
    6a88:	48545000 	ldmdami	r4, {ip, lr}^
    6a8c:	44414552 	strbmi	r4, [r1], #-1362	; 0xfffffaae
    6a90:	4552435f 	ldrbmi	r4, [r2, #-863]	; 0xfffffca1
    6a94:	5f455441 	svcpl	0x00455441
    6a98:	4e494f4a 	cdpmi	15, 4, cr4, cr9, cr10, {2}
    6a9c:	454c4241 	strbmi	r4, [ip, #-577]	; 0xfffffdbf
    6aa0:	5f003120 	svcpl	0x00003120
    6aa4:	414c555f 	cmpmi	ip, pc, asr r5
    6aa8:	4d554343 	ldclmi	3, cr4, [r5, #-268]	; 0xfffffef4
    6aac:	58414d5f 	stmdapl	r1, {r0, r1, r2, r3, r4, r6, r8, sl, fp, lr}^
    6ab0:	30205f5f 	eorcc	r5, r0, pc, asr pc
    6ab4:	46464658 			; <UNDEFINED> instruction: 0x46464658
    6ab8:	46464646 	strbmi	r4, [r6], -r6, asr #12
    6abc:	46464646 	strbmi	r4, [r6], -r6, asr #12
    6ac0:	46464646 	strbmi	r4, [r6], -r6, asr #12
    6ac4:	332d5046 			; <UNDEFINED> instruction: 0x332d5046
    6ac8:	4b4c5532 	blmi	131bf98 <_Min_Stack_Size+0x131bb98>
    6acc:	745f5f00 	ldrbvc	r5, [pc], #-3840	; 6ad4 <_Min_Stack_Size+0x66d4>
    6ad0:	6f6c7972 	svcvs	0x006c7972
    6ad4:	5f736b63 	svcpl	0x00736b63
    6ad8:	6c637865 	stclvs	8, cr7, [r3], #-404	; 0xfffffe6c
    6adc:	76697375 			; <UNDEFINED> instruction: 0x76697375
    6ae0:	2e2e2865 	cdpcs	8, 2, cr2, cr14, cr5, {3}
    6ae4:	5f20292e 	svcpl	0x0020292e
    6ae8:	636f6c5f 	cmnvs	pc, #24320	; 0x5f00
    6aec:	6e615f6b 	cdpvs	15, 6, cr5, cr1, cr11, {3}
    6af0:	61746f6e 	cmnvs	r4, lr, ror #30
    6af4:	65286574 	strvs	r6, [r8, #-1396]!	; 0xfffffa8c
    6af8:	756c6378 	strbvc	r6, [ip, #-888]!	; 0xfffffc88
    6afc:	65766973 	ldrbvs	r6, [r6, #-2419]!	; 0xfffff68d
    6b00:	7972745f 	ldmdbvc	r2!, {r0, r1, r2, r3, r4, r6, sl, ip, sp, lr}^
    6b04:	6b636f6c 	blvs	18e28bc <_Min_Stack_Size+0x18e24bc>
    6b08:	6e75665f 	mrcvs	6, 3, r6, cr5, cr15, {2}
    6b0c:	6f697463 	svcvs	0x00697463
    6b10:	5f5f286e 	svcpl	0x005f286e
    6b14:	415f4156 	cmpmi	pc, r6, asr r1	; <UNPREDICTABLE>
    6b18:	5f534752 	svcpl	0x00534752
    6b1c:	0029295f 	eoreq	r2, r9, pc, asr r9
    6b20:	4d415253 	sfmmi	f5, 2, [r1, #-332]	; 0xfffffeb4
    6b24:	5341425f 	movtpl	r4, #4703	; 0x125f
    6b28:	78302045 	ldmdavc	r0!, {r0, r2, r6, sp}
    6b2c:	30303032 	eorscc	r3, r0, r2, lsr r0
    6b30:	30303030 	eorscc	r3, r0, r0, lsr r0
    6b34:	5f004c55 	svcpl	0x00004c55
    6b38:	6f74685f 	svcvs	0x0074685f
    6b3c:	5f28736e 	svcpl	0x0028736e
    6b40:	5f202978 	svcpl	0x00202978
    6b44:	7773625f 			; <UNDEFINED> instruction: 0x7773625f
    6b48:	36317061 	ldrtcc	r7, [r1], -r1, rrx
    6b4c:	29785f28 	ldmdbcs	r8!, {r3, r5, r8, r9, sl, fp, ip, lr}^
    6b50:	45525f00 	ldrbmi	r5, [r2, #-3840]	; 0xfffff100
    6b54:	5f544e45 	svcpl	0x00544e45
    6b58:	444e4152 	strbmi	r4, [lr], #-338	; 0xfffffeae
    6b5c:	58454e5f 	stmdapl	r5, {r0, r1, r2, r3, r4, r6, r9, sl, fp, lr}^
    6b60:	74702854 	ldrbtvc	r2, [r0], #-2132	; 0xfffff7ac
    6b64:	28202972 	stmdacs	r0!, {r1, r4, r5, r6, r8, fp, sp}
    6b68:	72747028 	rsbsvc	r7, r4, #40	; 0x28
    6b6c:	5f3e2d29 	svcpl	0x003e2d29
    6b70:	2d383472 	cfldrscs	mvf3, [r8, #-456]!	; 0xfffffe38
    6b74:	61725f3e 	cmnvs	r2, lr, lsr pc
    6b78:	6e5f646e 	cdpvs	4, 5, cr6, cr15, cr14, {3}
    6b7c:	29747865 	ldmdbcs	r4!, {r0, r2, r5, r6, fp, ip, sp, lr}^
    6b80:	41455200 	mrsmi	r5, (UNDEF: 101)
    6b84:	52465f44 	subpl	r5, r6, #68, 30	; 0x110
    6b88:	4c5f4d4f 	mrrcmi	13, 4, r4, pc, cr15	; <UNPREDICTABLE>
    6b8c:	31204443 			; <UNDEFINED> instruction: 0x31204443
    6b90:	54584500 	ldrbpl	r4, [r8], #-1280	; 0xfffffb00
    6b94:	495f3049 	ldmdbmi	pc, {r0, r3, r6, ip, sp}^	; <UNPREDICTABLE>
    6b98:	36205152 			; <UNDEFINED> instruction: 0x36205152
    6b9c:	555f5f00 	ldrbpl	r5, [pc, #-3840]	; 5ca4 <_Min_Stack_Size+0x58a4>
    6ba0:	4152464c 	cmpmi	r2, ip, asr #12
    6ba4:	4d5f5443 	cfldrdmi	mvd5, [pc, #-268]	; 6aa0 <_Min_Stack_Size+0x66a0>
    6ba8:	5f5f4e49 	svcpl	0x005f4e49
    6bac:	302e3020 	eorcc	r3, lr, r0, lsr #32
    6bb0:	00524c55 	subseq	r4, r2, r5, asr ip
    6bb4:	455a4953 	ldrbmi	r4, [sl, #-2387]	; 0xfffff6ad
    6bb8:	58414d5f 	stmdapl	r1, {r0, r1, r2, r3, r4, r6, r8, sl, fp, lr}^
    6bbc:	5f5f2820 	svcpl	0x005f2820
    6bc0:	455a4953 	ldrbmi	r4, [sl, #-2387]	; 0xfffff6ad
    6bc4:	58414d5f 	stmdapl	r1, {r0, r1, r2, r3, r4, r6, r8, sl, fp, lr}^
    6bc8:	00295f5f 	eoreq	r5, r9, pc, asr pc
    6bcc:	51445f5f 	cmppl	r4, pc, asr pc
    6bd0:	4942495f 	stmdbmi	r2, {r0, r1, r2, r3, r4, r6, r8, fp, lr}^
    6bd4:	205f5f54 	subscs	r5, pc, r4, asr pc	; <UNPREDICTABLE>
    6bd8:	5f5f0030 	svcpl	0x005f0030
    6bdc:	5f4d5241 	svcpl	0x004d5241
    6be0:	36314642 	ldrtcc	r4, [r1], -r2, asr #12
    6be4:	524f465f 	subpl	r4, pc, #99614720	; 0x5f00000
    6be8:	5f54414d 	svcpl	0x0054414d
    6bec:	45544c41 	ldrbmi	r4, [r4, #-3137]	; 0xfffff3bf
    6bf0:	54414e52 	strbpl	r4, [r1], #-3666	; 0xfffff1ae
    6bf4:	00455649 	subeq	r5, r5, r9, asr #12
    6bf8:	4e495f5f 	mcrmi	15, 2, r5, cr9, cr15, {2}
    6bfc:	5f323354 	svcpl	0x00323354
    6c00:	45505954 	ldrbmi	r5, [r0, #-2388]	; 0xfffff6ac
    6c04:	6c205f5f 	stcvs	15, cr5, [r0], #-380	; 0xfffffe84
    6c08:	20676e6f 	rsbcs	r6, r7, pc, ror #28
    6c0c:	00746e69 	rsbseq	r6, r4, r9, ror #28
    6c10:	49555f5f 	ldmdbmi	r5, {r0, r1, r2, r3, r4, r6, r8, r9, sl, fp, ip, lr}^
    6c14:	4c5f544e 	cfldrdmi	mvd5, [pc], {78}	; 0x4e
    6c18:	54534145 	ldrbpl	r4, [r3], #-325	; 0xfffffebb
    6c1c:	414d5f38 	cmpmi	sp, r8, lsr pc
    6c20:	205f5f58 	subscs	r5, pc, r8, asr pc	; <UNPREDICTABLE>
    6c24:	66667830 			; <UNDEFINED> instruction: 0x66667830
    6c28:	48435300 	stmdami	r3, {r8, r9, ip, lr}^
    6c2c:	4f5f4445 	svcmi	0x005f4445
    6c30:	52454854 	subpl	r4, r5, #84, 16	; 0x540000
    6c34:	5f003020 	svcpl	0x00003020
    6c38:	58455441 	stmdapl	r5, {r0, r6, sl, ip, lr}^
    6c3c:	535f5449 	cmppl	pc, #1224736768	; 0x49000000
    6c40:	20455a49 	subcs	r5, r5, r9, asr #20
    6c44:	5f003233 	svcpl	0x00003233
    6c48:	5f445342 	svcpl	0x00445342
    6c4c:	455a4953 	ldrbmi	r4, [sl, #-2387]	; 0xfffff6ad
    6c50:	205f545f 	subscs	r5, pc, pc, asr r4	; <UNPREDICTABLE>
    6c54:	695f5f00 	ldmdbvs	pc, {r8, r9, sl, fp, ip, lr}^	; <UNPREDICTABLE>
    6c58:	3032746e 	eorscc	r7, r2, lr, ror #8
    6c5c:	2b205f5f 	blcs	81e9e0 <_Min_Stack_Size+0x81e5e0>
    6c60:	5f5f0032 	svcpl	0x005f0032
    6c64:	6c5f6f6e 	mrrcvs	15, 6, r6, pc, cr14	; <UNPREDICTABLE>
    6c68:	5f6b636f 	svcpl	0x006b636f
    6c6c:	6c616e61 	stclvs	14, cr6, [r1], #-388	; 0xfffffe7c
    6c70:	73697379 	cmnvc	r9, #-469762047	; 0xe4000001
    6c74:	6c5f5f20 	mrrcvs	15, 2, r5, pc, cr0	; <UNPREDICTABLE>
    6c78:	5f6b636f 	svcpl	0x006b636f
    6c7c:	6f6e6e61 	svcvs	0x006e6e61
    6c80:	65746174 	ldrbvs	r6, [r4, #-372]!	; 0xfffffe8c
    6c84:	5f6f6e28 	svcpl	0x006f6e28
    6c88:	65726874 	ldrbvs	r6, [r2, #-2164]!	; 0xfffff78c
    6c8c:	735f6461 	cmpvc	pc, #1627389952	; 0x61000000
    6c90:	74656661 	strbtvc	r6, [r5], #-1633	; 0xfffff99f
    6c94:	6e615f79 	mcrvs	15, 3, r5, cr1, cr9, {3}
    6c98:	73796c61 	cmnvc	r9, #24832	; 0x6100
    6c9c:	00297369 	eoreq	r7, r9, r9, ror #6
    6ca0:	544e495f 	strbpl	r4, [lr], #-2399	; 0xfffff6a1
    6ca4:	545f3436 	ldrbpl	r3, [pc], #-1078	; 6cac <_Min_Stack_Size+0x68ac>
    6ca8:	4345445f 	movtmi	r4, #21599	; 0x545f
    6cac:	4552414c 	ldrbmi	r4, [r2, #-332]	; 0xfffffeb4
    6cb0:	5f002044 	svcpl	0x00002044
    6cb4:	4e454552 	mcrmi	5, 2, r4, cr5, cr2, {2}
    6cb8:	504d5f54 	subpl	r5, sp, r4, asr pc
    6cbc:	4552465f 	ldrbmi	r4, [r2, #-1631]	; 0xfffff9a1
    6cc0:	53494c45 	movtpl	r4, #40005	; 0x9c45
    6cc4:	74702854 	ldrbtvc	r2, [r0], #-2132	; 0xfffff7ac
    6cc8:	28202972 	stmdacs	r0!, {r1, r4, r5, r6, r8, fp, sp}
    6ccc:	72747028 	rsbsvc	r7, r4, #40	; 0x28
    6cd0:	5f3e2d29 	svcpl	0x003e2d29
    6cd4:	3e2d706d 	cdpcc	0, 2, cr7, cr13, cr13, {3}
    6cd8:	6572665f 	ldrbvs	r6, [r2, #-1631]!	; 0xfffff9a1
    6cdc:	73696c65 	cmnvc	r9, #25856	; 0x6500
    6ce0:	61002974 	tstvs	r0, r4, ror r9
    6ce4:	636f6c6c 	cmnvs	pc, #108, 24	; 0x6c00
    6ce8:	69732861 	ldmdbvs	r3!, {r0, r5, r6, fp, sp}^
    6cec:	2029657a 	eorcs	r6, r9, sl, ror r5
    6cf0:	75625f5f 	strbvc	r5, [r2, #-3935]!	; 0xfffff0a1
    6cf4:	69746c69 	ldmdbvs	r4!, {r0, r3, r5, r6, sl, fp, sp, lr}^
    6cf8:	6c615f6e 	stclvs	15, cr5, [r1], #-440	; 0xfffffe48
    6cfc:	61636f6c 	cmnvs	r3, ip, ror #30
    6d00:	7a697328 	bvc	1a639a8 <_Min_Stack_Size+0x1a635a8>
    6d04:	5f002965 	svcpl	0x00002965
    6d08:	434f4c43 	movtmi	r4, #64579	; 0xfc43
    6d0c:	5f44494b 	svcpl	0x0044494b
    6d10:	75205f54 	strvc	r5, [r0, #-3924]!	; 0xfffff0ac
    6d14:	6769736e 	strbvs	r7, [r9, -lr, ror #6]!
    6d18:	2064656e 	rsbcs	r6, r4, lr, ror #10
    6d1c:	676e6f6c 	strbvs	r6, [lr, -ip, ror #30]!
    6d20:	61757100 	cmnvs	r5, r0, lsl #2
    6d24:	75712064 	ldrbvc	r2, [r1, #-100]!	; 0xffffff9c
    6d28:	745f6461 	ldrbvc	r6, [pc], #-1121	; 6d30 <_Min_Stack_Size+0x6930>
    6d2c:	555f5f00 	ldrbpl	r5, [pc, #-3840]	; 5e34 <_Min_Stack_Size+0x5a34>
    6d30:	495f5154 	ldmdbmi	pc, {r2, r4, r6, r8, ip, lr}^	; <UNPREDICTABLE>
    6d34:	5f544942 	svcpl	0x00544942
    6d38:	0030205f 	eorseq	r2, r0, pc, asr r0
    6d3c:	41535f5f 	cmpmi	r3, pc, asr pc
    6d40:	4942465f 	stmdbmi	r2, {r0, r1, r2, r3, r4, r6, r9, sl, lr}^
    6d44:	205f5f54 	subscs	r5, pc, r4, asr pc	; <UNPREDICTABLE>
    6d48:	5f003531 	svcpl	0x00003531
    6d4c:	544e495f 	strbpl	r4, [lr], #-2399	; 0xfffff6a1
    6d50:	4843575f 	stmdami	r3, {r0, r1, r2, r3, r4, r6, r8, r9, sl, ip, lr}^
    6d54:	545f5241 	ldrbpl	r5, [pc], #-577	; 6d5c <_Min_Stack_Size+0x695c>
    6d58:	0020485f 	eoreq	r4, r0, pc, asr r8
    6d5c:	4c465f5f 	mcrrmi	15, 5, r5, r6, cr15
    6d60:	58323354 	ldmdapl	r2!, {r2, r4, r6, r8, r9, ip, sp}
    6d64:	58414d5f 	stmdapl	r1, {r0, r1, r2, r3, r4, r6, r8, sl, fp, lr}^
    6d68:	31205f5f 			; <UNDEFINED> instruction: 0x31205f5f
    6d6c:	3739372e 	ldrcc	r3, [r9, -lr, lsr #14]!
    6d70:	31333936 	teqcc	r3, r6, lsr r9
    6d74:	36383433 			; <UNDEFINED> instruction: 0x36383433
    6d78:	35313332 	ldrcc	r3, [r1, #-818]!	; 0xfffffcce
    6d7c:	332b6537 			; <UNDEFINED> instruction: 0x332b6537
    6d80:	33463830 	movtcc	r3, #26672	; 0x6830
    6d84:	5f007832 	svcpl	0x00007832
    6d88:	6e695f5f 	mcrvs	15, 3, r5, cr9, cr15, {2}
    6d8c:	5f363174 	svcpl	0x00363174
    6d90:	65645f74 	strbvs	r5, [r4, #-3956]!	; 0xfffff08c
    6d94:	656e6966 	strbvs	r6, [lr, #-2406]!	; 0xfffff69a
    6d98:	00312064 	eorseq	r2, r1, r4, rrx
    6d9c:	41484357 	cmpmi	r8, r7, asr r3
    6da0:	414d5f52 	cmpmi	sp, r2, asr pc
    6da4:	5f282058 	svcpl	0x00282058
    6da8:	4843575f 	stmdami	r3, {r0, r1, r2, r3, r4, r6, r8, r9, sl, ip, lr}^
    6dac:	4d5f5241 	lfmmi	f5, 2, [pc, #-260]	; 6cb0 <_Min_Stack_Size+0x68b0>
    6db0:	5f5f5841 	svcpl	0x005f5841
    6db4:	5f5f0029 	svcpl	0x005f0029
    6db8:	33544c46 	cmpcc	r4, #17920	; 0x4600
    6dbc:	494d5f32 	stmdbmi	sp, {r1, r4, r5, r8, r9, sl, fp, ip, lr}^
    6dc0:	205f5f4e 	subscs	r5, pc, lr, asr #30
    6dc4:	37312e31 			; <UNDEFINED> instruction: 0x37312e31
    6dc8:	34393435 	ldrtcc	r3, [r9], #-1077	; 0xfffffbcb
    6dcc:	38303533 	ldmdacc	r0!, {r0, r1, r4, r5, r8, sl, ip, sp}
    6dd0:	38323232 	ldmdacc	r2!, {r1, r4, r5, r9, ip, sp}
    6dd4:	2d653537 	cfstr64cs	mvdx3, [r5, #-220]!	; 0xffffff24
    6dd8:	33463833 	movtcc	r3, #26675	; 0x6833
    6ddc:	5f5f0032 	svcpl	0x005f0032
    6de0:	5f464c45 	svcpl	0x00464c45
    6de4:	0031205f 	eorseq	r2, r1, pc, asr r0
    6de8:	33544e49 	cmpcc	r4, #1168	; 0x490
    6dec:	494d5f32 	stmdbmi	sp, {r1, r4, r5, r8, r9, sl, fp, ip, lr}^
    6df0:	2d28204e 	stccs	0, cr2, [r8, #-312]!	; 0xfffffec8
    6df4:	4e495f5f 	mcrmi	15, 2, r5, cr9, cr15, {2}
    6df8:	5f323354 	svcpl	0x00323354
    6dfc:	5f58414d 	svcpl	0x0058414d
    6e00:	202d205f 	eorcs	r2, sp, pc, asr r0
    6e04:	5f002931 	svcpl	0x00002931
    6e08:	5548545f 	strbpl	r5, [r8, #-1119]	; 0xfffffba1
    6e0c:	4c45424d 	sfmmi	f4, 2, [r5], {77}	; 0x4d
    6e10:	31205f5f 			; <UNDEFINED> instruction: 0x31205f5f
    6e14:	515f5f00 	cmppl	pc, r0, lsl #30
    6e18:	42495f51 	submi	r5, r9, #324	; 0x144
    6e1c:	5f5f5449 	svcpl	0x005f5449
    6e20:	5f003020 	svcpl	0x00003020
    6e24:	524f535f 	subpl	r5, pc, #2080374785	; 0x7c000001
    6e28:	78302044 	ldmdavc	r0!, {r2, r6, sp}
    6e2c:	30303032 	eorscc	r3, r0, r2, lsr r0
    6e30:	44434c00 	strbmi	r4, [r3], #-3072	; 0xfffff400
    6e34:	4942345f 	stmdbmi	r2, {r0, r1, r2, r3, r4, r6, sl, ip, sp}^
    6e38:	4f4d5f54 	svcmi	0x004d5f54
    6e3c:	325f4544 	subscc	r4, pc, #68, 10	; 0x11000000
    6e40:	4e494c5f 	mcrmi	12, 2, r4, cr9, cr15, {2}
    6e44:	78302045 	ldmdavc	r0!, {r0, r2, r6, sp}
    6e48:	5f003832 	svcpl	0x00003832
    6e4c:	49445453 	stmdbmi	r4, {r0, r1, r4, r6, sl, ip, lr}^
    6e50:	5f485f4f 	svcpl	0x00485f4f
    6e54:	74730020 	ldrbtvc	r0, [r3], #-32	; 0xffffffe0
    6e58:	63697461 	cmnvs	r9, #1627389952	; 0x61000000
    6e5c:	7373615f 	cmnvc	r3, #-1073741801	; 0xc0000017
    6e60:	20747265 	rsbscs	r7, r4, r5, ror #4
    6e64:	6174535f 	cmnvs	r4, pc, asr r3
    6e68:	5f636974 	svcpl	0x00636974
    6e6c:	65737361 	ldrbvs	r7, [r3, #-865]!	; 0xfffffc9f
    6e70:	5f007472 	svcpl	0x00007472
    6e74:	434f4c5f 	movtmi	r4, #64607	; 0xfc5f
    6e78:	4e495f4b 	cdpmi	15, 4, cr5, cr9, cr11, {2}
    6e7c:	525f5449 	subspl	r5, pc, #1224736768	; 0x49000000
    6e80:	52554345 	subspl	r4, r5, #335544321	; 0x14000001
    6e84:	45564953 	ldrbmi	r4, [r6, #-2387]	; 0xfffff6ad
    6e88:	616c6328 	cmnvs	ip, r8, lsr #6
    6e8c:	6c2c7373 	stcvs	3, cr7, [ip], #-460	; 0xfffffe34
    6e90:	296b636f 	stmdbcs	fp!, {r0, r1, r2, r3, r5, r6, r8, r9, sp, lr}^
    6e94:	4c5f5f20 	mrrcmi	15, 2, r5, pc, cr0	; <UNPREDICTABLE>
    6e98:	5f4b434f 	svcpl	0x004b434f
    6e9c:	54494e49 	strbpl	r4, [r9], #-3657	; 0xfffff1b7
    6ea0:	616c6328 	cmnvs	ip, r8, lsr #6
    6ea4:	6c2c7373 	stcvs	3, cr7, [ip], #-460	; 0xfffffe34
    6ea8:	296b636f 	stmdbcs	fp!, {r0, r1, r2, r3, r5, r6, r8, r9, sp, lr}^
    6eac:	4c5f5f00 	mrrcmi	15, 0, r5, pc, cr0	; <UNPREDICTABLE>
    6eb0:	4343414c 	movtmi	r4, #12620	; 0x314c
    6eb4:	465f4d55 			; <UNDEFINED> instruction: 0x465f4d55
    6eb8:	5f544942 	svcpl	0x00544942
    6ebc:	3133205f 	teqcc	r3, pc, asr r0
    6ec0:	4e495500 	cdpmi	5, 4, cr5, cr9, cr0, {0}
    6ec4:	5f363154 	svcpl	0x00363154
    6ec8:	2058414d 	subscs	r4, r8, sp, asr #2
    6ecc:	555f5f28 	ldrbpl	r5, [pc, #-3880]	; 5fac <_Min_Stack_Size+0x5bac>
    6ed0:	31544e49 	cmpcc	r4, r9, asr #28
    6ed4:	414d5f36 	cmpmi	sp, r6, lsr pc
    6ed8:	295f5f58 	ldmdbcs	pc, {r3, r4, r6, r8, r9, sl, fp, ip, lr}^	; <UNPREDICTABLE>
    6edc:	465f5f00 	ldrbmi	r5, [pc], -r0, lsl #30
    6ee0:	3233544c 	eorscc	r5, r3, #76, 8	; 0x4c000000
    6ee4:	494d5f58 	stmdbmi	sp, {r3, r4, r6, r8, r9, sl, fp, ip, lr}^
    6ee8:	30315f4e 	eorscc	r5, r1, lr, asr #30
    6eec:	5058455f 	subspl	r4, r8, pc, asr r5
    6ef0:	28205f5f 	stmdacs	r0!, {r0, r1, r2, r3, r4, r6, r8, r9, sl, fp, ip, lr}
    6ef4:	3730332d 	ldrcc	r3, [r0, -sp, lsr #6]!
    6ef8:	49550029 	ldmdbmi	r5, {r0, r3, r5}^
    6efc:	4c5f544e 	cfldrdmi	mvd5, [pc], {78}	; 0x4e
    6f00:	54534145 	ldrbpl	r4, [r3], #-325	; 0xfffffebb
    6f04:	414d5f38 	cmpmi	sp, r8, lsr pc
    6f08:	5f282058 	svcpl	0x00282058
    6f0c:	4e49555f 	mcrmi	5, 2, r5, cr9, cr15, {2}
    6f10:	454c5f54 	strbmi	r5, [ip, #-3924]	; 0xfffff0ac
    6f14:	38545341 	ldmdacc	r4, {r0, r6, r8, r9, ip, lr}^
    6f18:	58414d5f 	stmdapl	r1, {r0, r1, r2, r3, r4, r6, r8, sl, fp, lr}^
    6f1c:	00295f5f 	eoreq	r5, r9, pc, asr pc
    6f20:	53555f5f 	cmppl	r5, #380	; 0x17c
    6f24:	42495f51 	submi	r5, r9, #324	; 0x144
    6f28:	5f5f5449 	svcpl	0x005f5449
    6f2c:	5f003020 	svcpl	0x00003020
    6f30:	554e475f 	strbpl	r4, [lr, #-1887]	; 0xfffff8a1
    6f34:	494d5f43 	stmdbmi	sp, {r0, r1, r6, r8, r9, sl, fp, ip, lr}^
    6f38:	5f524f4e 	svcpl	0x00524f4e
    6f3c:	0033205f 	eorseq	r2, r3, pc, asr r0
    6f40:	4c465f5f 	mcrrmi	15, 5, r5, r6, cr15
    6f44:	58323354 	ldmdapl	r2!, {r2, r4, r6, r8, r9, ip, sp}
    6f48:	4e494d5f 	mcrmi	13, 2, r4, cr9, cr15, {2}
    6f4c:	5058455f 	subspl	r4, r8, pc, asr r5
    6f50:	28205f5f 	stmdacs	r0!, {r0, r1, r2, r3, r4, r6, r8, r9, sl, fp, ip, lr}
    6f54:	3230312d 	eorscc	r3, r0, #1073741835	; 0x4000000b
    6f58:	5f002931 	svcpl	0x00002931
    6f5c:	4e49555f 	mcrmi	5, 2, r5, cr9, cr15, {2}
    6f60:	454c5f54 	strbmi	r5, [ip, #-3924]	; 0xfffff0ac
    6f64:	33545341 	cmpcc	r4, #67108865	; 0x4000001
    6f68:	59545f32 	ldmdbpl	r4, {r1, r4, r5, r8, r9, sl, fp, ip, lr}^
    6f6c:	5f5f4550 	svcpl	0x005f4550
    6f70:	6e6f6c20 	cdpvs	12, 6, cr6, cr15, cr0, {1}
    6f74:	6e752067 	cdpvs	0, 7, cr2, cr5, cr7, {3}
    6f78:	6e676973 			; <UNDEFINED> instruction: 0x6e676973
    6f7c:	69206465 	stmdbvs	r0!, {r0, r2, r5, r6, sl, sp, lr}
    6f80:	5f00746e 	svcpl	0x0000746e
    6f84:	4d52415f 	ldfmie	f4, [r2, #-380]	; 0xfffffe84
    6f88:	4145465f 	cmpmi	r5, pc, asr r6
    6f8c:	45525554 	ldrbmi	r5, [r2, #-1364]	; 0xfffffaac
    6f90:	4d554e5f 	ldclmi	14, cr4, [r5, #-380]	; 0xfffffe84
    6f94:	43495245 	movtmi	r5, #37445	; 0x9245
    6f98:	58414d5f 	stmdapl	r1, {r0, r1, r2, r3, r4, r6, r8, sl, fp, lr}^
    6f9c:	004e494d 	subeq	r4, lr, sp, asr #18
    6fa0:	4e41525f 	mcrmi	2, 2, r5, cr1, cr15, {2}
    6fa4:	5f383444 	svcpl	0x00383444
    6fa8:	544c554d 	strbpl	r5, [ip], #-1357	; 0xfffffab3
    6fac:	2820315f 	stmdacs	r0!, {r0, r1, r2, r3, r4, r6, r8, ip, sp}
    6fb0:	65647830 	strbvs	r7, [r4, #-2096]!	; 0xfffff7d0
    6fb4:	00296365 	eoreq	r6, r9, r5, ror #6
    6fb8:	4e495f5f 	mcrmi	15, 2, r5, cr9, cr15, {2}
    6fbc:	58414d54 	stmdapl	r1, {r2, r4, r6, r8, sl, fp, lr}^
    6fc0:	5059545f 	subspl	r5, r9, pc, asr r4
    6fc4:	205f5f45 	subscs	r5, pc, r5, asr #30
    6fc8:	676e6f6c 	strbvs	r6, [lr, -ip, ror #30]!
    6fcc:	6e6f6c20 	cdpvs	12, 6, cr6, cr15, cr0, {1}
    6fd0:	6e692067 	cdpvs	0, 6, cr2, cr9, cr7, {3}
    6fd4:	735f0074 	cmpvc	pc, #116	; 0x74
    6fd8:	756f6474 	strbvc	r6, [pc, #-1140]!	; 6b6c <_Min_Stack_Size+0x676c>
    6fdc:	28725f74 	ldmdacs	r2!, {r2, r4, r5, r6, r8, r9, sl, fp, ip, lr}^
    6fe0:	28202978 	stmdacs	r0!, {r3, r4, r5, r6, r8, fp, sp}
    6fe4:	2d297828 	stccs	8, cr7, [r9, #-160]!	; 0xffffff60
    6fe8:	74735f3e 	ldrbtvc	r5, [r3], #-3902	; 0xfffff0c2
    6fec:	74756f64 	ldrbtvc	r6, [r5], #-3940	; 0xfffff09c
    6ff0:	49550029 	ldmdbmi	r5, {r0, r3, r5}^
    6ff4:	465f544e 	ldrbmi	r5, [pc], -lr, asr #8
    6ff8:	33545341 	cmpcc	r4, #67108865	; 0x4000001
    6ffc:	414d5f32 	cmpmi	sp, r2, lsr pc
    7000:	5f282058 	svcpl	0x00282058
    7004:	4e49555f 	mcrmi	5, 2, r5, cr9, cr15, {2}
    7008:	41465f54 	cmpmi	r6, r4, asr pc
    700c:	32335453 	eorscc	r5, r3, #1392508928	; 0x53000000
    7010:	58414d5f 	stmdapl	r1, {r0, r1, r2, r3, r4, r6, r8, sl, fp, lr}^
    7014:	00295f5f 	eoreq	r5, r9, pc, asr pc
    7018:	43475f5f 	movtmi	r5, #32607	; 0x7f5f
    701c:	54415f43 	strbpl	r5, [r1], #-3907	; 0xfffff0bd
    7020:	43494d4f 	movtmi	r4, #40271	; 0x9d4f
    7024:	544e495f 	strbpl	r4, [lr], #-2399	; 0xfffff6a1
    7028:	434f4c5f 	movtmi	r4, #64607	; 0xfc5f
    702c:	52465f4b 	subpl	r5, r6, #300	; 0x12c
    7030:	32204545 	eorcc	r4, r0, #289406976	; 0x11400000
    7034:	44434c00 	strbmi	r4, [r3], #-3072	; 0xfffff400
    7038:	5349445f 	movtpl	r4, #37983	; 0x945f
    703c:	454c4241 	strbmi	r4, [ip, #-577]	; 0xfffffdbf
    7040:	5f003020 	svcpl	0x00003020
    7044:	444e4152 	strbmi	r4, [lr], #-338	; 0xfffffeae
    7048:	535f3834 	cmppl	pc, #52, 16	; 0x340000
    704c:	5f444545 	svcpl	0x00444545
    7050:	30282030 	eorcc	r2, r8, r0, lsr r0
    7054:	30333378 	eorscc	r3, r3, r8, ror r3
    7058:	47002965 	strmi	r2, [r0, -r5, ror #18]
    705c:	444f4950 	strbmi	r4, [pc], #-2384	; 7064 <_Min_Stack_Size+0x6c64>
    7060:	47282820 	strmi	r2, [r8, -r0, lsr #16]!
    7064:	5f4f4950 	svcpl	0x004f4950
    7068:	292a2074 	stmdbcs	sl!, {r2, r4, r5, r6, sp}
    706c:	4f495047 	svcmi	0x00495047
    7070:	41425f44 	cmpmi	r2, r4, asr #30
    7074:	00294553 	eoreq	r4, r9, r3, asr r5
    7078:	4343475f 	movtmi	r4, #14175	; 0x375f
    707c:	58414d5f 	stmdapl	r1, {r0, r1, r2, r3, r4, r6, r8, sl, fp, lr}^
    7080:	494c415f 	stmdbmi	ip, {r0, r1, r2, r3, r4, r6, r8, lr}^
    7084:	545f4e47 	ldrbpl	r4, [pc], #-3655	; 708c <_Min_Stack_Size+0x6c8c>
    7088:	5f5f0020 	svcpl	0x005f0020
    708c:	676e6f4c 	strbvs	r6, [lr, -ip, asr #30]!
    7090:	6e6f6c20 	cdpvs	12, 6, cr6, cr15, cr0, {1}
    7094:	535f0067 	cmppl	pc, #103	; 0x67
    7098:	54455a49 	strbpl	r5, [r5], #-2633	; 0xfffff5b7
    709c:	4700205f 	smlsdmi	r0, pc, r0, r2	; <UNPREDICTABLE>
    70a0:	5f4f4950 	svcpl	0x004f4950
    70a4:	45444f4d 	strbmi	r4, [r4, #-3917]	; 0xfffff0b3
    70a8:	504e495f 	subpl	r4, lr, pc, asr r9
    70ac:	465f5455 			; <UNDEFINED> instruction: 0x465f5455
    70b0:	30204f4c 	eorcc	r4, r0, ip, asr #30
    70b4:	30303078 	eorscc	r3, r0, r8, ror r0
    70b8:	30303030 	eorscc	r3, r0, r0, lsr r0
    70bc:	5f007531 	svcpl	0x00007531
    70c0:	4c445453 	cfstrdmi	mvd5, [r4], {83}	; 0x53
    70c4:	485f4249 	ldmdami	pc, {r0, r3, r6, r9, lr}^	; <UNPREDICTABLE>
    70c8:	5f00205f 	svcpl	0x0000205f
    70cc:	4c42445f 	cfstrdmi	mvd4, [r2], {95}	; 0x5f
    70d0:	5341485f 	movtpl	r4, #6239	; 0x185f
    70d4:	4955515f 	ldmdbmi	r5, {r0, r1, r2, r3, r4, r6, r8, ip, lr}^
    70d8:	4e5f5445 	cdpmi	4, 5, cr5, cr15, cr5, {2}
    70dc:	5f5f4e41 	svcpl	0x005f4e41
    70e0:	47003120 	strmi	r3, [r0, -r0, lsr #2]
    70e4:	5f4f4950 	svcpl	0x004f4950
    70e8:	5f4e4950 	svcpl	0x004e4950
    70ec:	28282037 	stmdacs	r8!, {r0, r1, r2, r4, r5, sp}
    70f0:	746e6975 	strbtvc	r6, [lr], #-2421	; 0xfffff68b
    70f4:	745f3631 	ldrbvc	r3, [pc], #-1585	; 70fc <_Min_Stack_Size+0x6cfc>
    70f8:	30783029 	rsbscc	r3, r8, r9, lsr #32
    70fc:	29303830 	ldmdbcs	r0!, {r4, r5, fp, ip, sp}
    7100:	544e4900 	strbpl	r4, [lr], #-2304	; 0xfffff700
    7104:	435f3233 	cmpmi	pc, #805306371	; 0x30000003
    7108:	20297828 	eorcs	r7, r9, r8, lsr #16
    710c:	4e495f5f 	mcrmi	15, 2, r5, cr9, cr15, {2}
    7110:	5f323354 	svcpl	0x00323354
    7114:	29782843 	ldmdbcs	r8!, {r0, r1, r6, fp, sp}^
    7118:	705f5f00 	subsvc	r5, pc, r0, lsl #30
    711c:	61767274 	cmnvs	r6, r4, ror r2
    7120:	2065756c 	rsbcs	r7, r5, ip, ror #10
    7124:	4f4e5f00 	svcmi	0x004e5f00
    7128:	494c4e49 	stmdbmi	ip, {r0, r3, r6, r9, sl, fp, lr}^
    712c:	535f454e 	cmppl	pc, #327155712	; 0x13800000
    7130:	49544154 	ldmdbmi	r4, {r2, r4, r6, r8, lr}^
    7134:	4e5f2043 	cdpmi	0, 5, cr2, cr15, cr3, {2}
    7138:	4c4e494f 	mcrrmi	9, 4, r4, lr, cr15	; <UNPREDICTABLE>
    713c:	20454e49 	subcs	r4, r5, r9, asr #28
    7140:	74617473 	strbtvc	r7, [r1], #-1139	; 0xfffffb8d
    7144:	5f006369 	svcpl	0x00006369
    7148:	464c4c5f 			; <UNDEFINED> instruction: 0x464c4c5f
    714c:	54434152 	strbpl	r4, [r3], #-338	; 0xfffffeae
    7150:	58414d5f 	stmdapl	r1, {r0, r1, r2, r3, r4, r6, r8, sl, fp, lr}^
    7154:	30205f5f 	eorcc	r5, r0, pc, asr pc
    7158:	46463758 			; <UNDEFINED> instruction: 0x46463758
    715c:	46464646 	strbmi	r4, [r6], -r6, asr #12
    7160:	46464646 	strbmi	r4, [r6], -r6, asr #12
    7164:	46464646 	strbmi	r4, [r6], -r6, asr #12
    7168:	362d5046 	strtcc	r5, [sp], -r6, asr #32
    716c:	524c4c33 	subpl	r4, ip, #13056	; 0x3300
    7170:	635f5f00 	cmpvs	pc, #0, 30
    7174:	74736e6f 	ldrbtvc	r6, [r3], #-3695	; 0xfffff191
    7178:	6e6f6320 	cdpvs	3, 6, cr6, cr15, cr0, {1}
    717c:	55007473 	strpl	r7, [r0, #-1139]	; 0xfffffb8d
    7180:	5f544e49 	svcpl	0x00544e49
    7184:	5341454c 	movtpl	r4, #5452	; 0x154c
    7188:	5f323354 	svcpl	0x00323354
    718c:	2058414d 	subscs	r4, r8, sp, asr #2
    7190:	555f5f28 	ldrbpl	r5, [pc, #-3880]	; 6270 <_Min_Stack_Size+0x5e70>
    7194:	5f544e49 	svcpl	0x00544e49
    7198:	5341454c 	movtpl	r4, #5452	; 0x154c
    719c:	5f323354 	svcpl	0x00323354
    71a0:	5f58414d 	svcpl	0x0058414d
    71a4:	5200295f 	andpl	r2, r0, #1556480	; 0x17c000
    71a8:	50472057 	subpl	r2, r7, r7, asr r0
    71ac:	505f4f49 	subspl	r4, pc, r9, asr #30
    71b0:	395f4e49 	ldmdbcc	pc, {r0, r3, r6, r9, sl, fp, lr}^	; <UNPREDICTABLE>
    71b4:	55535f00 	ldrbpl	r5, [r3, #-3840]	; 0xfffff100
    71b8:	4f434553 	svcmi	0x00434553
    71bc:	5f53444e 	svcpl	0x0053444e
    71c0:	45445f54 	strbmi	r5, [r4, #-3924]	; 0xfffff0ac
    71c4:	52414c43 	subpl	r4, r1, #17152	; 0x4300
    71c8:	00204445 	eoreq	r4, r0, r5, asr #8
    71cc:	6f647473 	svcvs	0x00647473
    71d0:	28207475 	stmdacs	r0!, {r0, r2, r4, r5, r6, sl, ip, sp, lr}
    71d4:	4545525f 	strbmi	r5, [r5, #-607]	; 0xfffffda1
    71d8:	3e2d544e 	cdpcc	4, 2, cr5, cr13, cr14, {2}
    71dc:	6474735f 	ldrbtvs	r7, [r4], #-863	; 0xfffffca1
    71e0:	2974756f 	ldmdbcs	r4!, {r0, r1, r2, r3, r5, r6, r8, sl, ip, sp, lr}^
    71e4:	535f5f00 	cmppl	pc, #0, 30
    71e8:	55434341 	strbpl	r4, [r3, #-833]	; 0xfffffcbf
    71ec:	414d5f4d 	cmpmi	sp, sp, asr #30
    71f0:	205f5f58 	subscs	r5, pc, r8, asr pc	; <UNPREDICTABLE>
    71f4:	46375830 			; <UNDEFINED> instruction: 0x46375830
    71f8:	2d504646 	ldclcs	6, cr4, [r0, #-280]	; 0xfffffee8
    71fc:	004b4837 	subeq	r4, fp, r7, lsr r8
    7200:	4f4c475f 	svcmi	0x004c475f
    7204:	5f4c4142 	svcpl	0x004c4142
    7208:	4e454552 	mcrmi	5, 2, r4, cr5, cr2, {2}
    720c:	675f2054 			; <UNDEFINED> instruction: 0x675f2054
    7210:	61626f6c 	cmnvs	r2, ip, ror #30
    7214:	6d695f6c 	stclvs	15, cr5, [r9, #-432]!	; 0xfffffe50
    7218:	65727570 	ldrbvs	r7, [r2, #-1392]!	; 0xfffffa90
    721c:	7274705f 	rsbsvc	r7, r4, #95	; 0x5f
    7220:	54584500 	ldrbpl	r4, [r8], #-1280	; 0xfffffb00
    7224:	495f3849 	ldmdbmi	pc, {r0, r3, r6, fp, ip, sp}^	; <UNPREDICTABLE>
    7228:	32205152 	eorcc	r5, r0, #-2147483628	; 0x80000014
    722c:	5f5f0033 	svcpl	0x005f0033
    7230:	544e4955 	strbpl	r4, [lr], #-2389	; 0xfffff6ab
    7234:	5f525450 	svcpl	0x00525450
    7238:	45505954 	ldrbmi	r5, [r0, #-2388]	; 0xfffff6ac
    723c:	75205f5f 	strvc	r5, [r0, #-3935]!	; 0xfffff0a1
    7240:	6769736e 	strbvs	r7, [r9, -lr, ror #6]!
    7244:	2064656e 	rsbcs	r6, r4, lr, ror #10
    7248:	00746e69 	rsbseq	r6, r4, r9, ror #28
    724c:	5f44434c 	svcpl	0x0044434c
    7250:	49474542 	stmdbmi	r7, {r1, r6, r8, sl, lr}^
    7254:	54415f4e 	strbpl	r5, [r1], #-3918	; 0xfffff0b2
    7258:	4345535f 	movtmi	r5, #21343	; 0x535f
    725c:	5f444e4f 	svcpl	0x00444e4f
    7260:	20574152 	subscs	r4, r7, r2, asr r1
    7264:	30437830 	subcc	r7, r3, r0, lsr r8
    7268:	72747300 	rsbsvc	r7, r4, #0, 6
    726c:	6d63696e 			; <UNDEFINED> instruction: 0x6d63696e
    7270:	74732070 	ldrbtvc	r2, [r3], #-112	; 0xffffff90
    7274:	61636e72 	smcvs	14050	; 0x36e2
    7278:	6d636573 	cfstr64vs	mvdx6, [r3, #-460]!	; 0xfffffe34
    727c:	5f5f0070 	svcpl	0x005f0070
    7280:	49474552 	stmdbmi	r7, {r1, r4, r6, r8, sl, lr}^
    7284:	52455453 	subpl	r5, r5, #1392508928	; 0x53000000
    7288:	4552505f 	ldrbmi	r5, [r2, #-95]	; 0xffffffa1
    728c:	5f584946 	svcpl	0x00584946
    7290:	5f00205f 	svcpl	0x0000205f
    7294:	544c465f 	strbpl	r4, [ip], #-1631	; 0xfffff9a1
    7298:	4d5f3233 	lfmmi	f3, 2, [pc, #-204]	; 71d4 <_Min_Stack_Size+0x6dd4>
    729c:	5f5f5841 	svcpl	0x005f5841
    72a0:	342e3320 	strtcc	r3, [lr], #-800	; 0xfffffce0
    72a4:	32383230 	eorscc	r3, r8, #48, 4
    72a8:	36363433 			; <UNDEFINED> instruction: 0x36363433
    72ac:	32353833 	eorscc	r3, r5, #3342336	; 0x330000
    72b0:	65363838 	ldrvs	r3, [r6, #-2104]!	; 0xfffff7c8
    72b4:	4638332b 	ldrtmi	r3, [r8], -fp, lsr #6
    72b8:	5f003233 	svcpl	0x00003233
    72bc:	4c42445f 	cfstrdmi	mvd4, [r2], {95}	; 0x5f
    72c0:	4749445f 	smlsldmi	r4, r9, pc, r4	; <UNPREDICTABLE>
    72c4:	31205f5f 			; <UNDEFINED> instruction: 0x31205f5f
    72c8:	5f5f0035 	svcpl	0x005f0035
    72cc:	52464c55 	subpl	r4, r6, #21760	; 0x5500
    72d0:	5f544341 	svcpl	0x00544341
    72d4:	49535045 	ldmdbmi	r3, {r0, r2, r6, ip, lr}^
    72d8:	5f4e4f4c 	svcpl	0x004e4f4c
    72dc:	7830205f 	ldmdavc	r0!, {r0, r1, r2, r3, r4, r6, sp}
    72e0:	332d5031 			; <UNDEFINED> instruction: 0x332d5031
    72e4:	524c5532 	subpl	r5, ip, #209715200	; 0xc800000
    72e8:	525f5f00 	subspl	r5, pc, #0, 30
    72ec:	44495343 	strbmi	r5, [r9], #-835	; 0xfffffcbd
    72f0:	20297328 	eorcs	r7, r9, r8, lsr #6
    72f4:	75727473 	ldrbvc	r7, [r2, #-1139]!	; 0xfffffb8d
    72f8:	5f207463 	svcpl	0x00207463
    72fc:	6361685f 	cmnvs	r1, #6225920	; 0x5f0000
    7300:	4e5f006b 	cdpmi	0, 5, cr0, cr15, cr11, {3}
    7304:	494c5745 	stmdbmi	ip, {r0, r2, r6, r8, r9, sl, ip, lr}^
    7308:	54535f42 	ldrbpl	r5, [r3], #-3906	; 0xfffff0be
    730c:	5f4f4944 	svcpl	0x004f4944
    7310:	5f002048 	svcpl	0x00002048
    7314:	5f535953 	svcpl	0x00535953
    7318:	4749535f 	smlsldmi	r5, r9, pc, r3	; <UNPREDICTABLE>
    731c:	5f544553 	svcpl	0x00544553
    7320:	00205f48 	eoreq	r5, r0, r8, asr #30
    7324:	4545525f 	strbmi	r5, [r5, #-607]	; 0xfffffda1
    7328:	4c5f544e 	cfldrdmi	mvd5, [pc], {78}	; 0x4e
    732c:	5f413436 	svcpl	0x00413436
    7330:	28465542 	stmdacs	r6, {r1, r6, r8, sl, ip, lr}^
    7334:	29727470 	ldmdbcs	r2!, {r4, r5, r6, sl, ip, sp, lr}^
    7338:	70282820 	eorvc	r2, r8, r0, lsr #16
    733c:	2d297274 	sfmcs	f7, 4, [r9, #-464]!	; 0xfffffe30
    7340:	696d5f3e 	stmdbvs	sp!, {r1, r2, r3, r4, r5, r8, r9, sl, fp, ip, lr}^
    7344:	3e2d6373 	mcrcc	3, 1, r6, cr13, cr3, {3}
    7348:	34366c5f 	ldrtcc	r6, [r6], #-3167	; 0xfffff3a1
    734c:	75625f61 	strbvc	r5, [r2, #-3937]!	; 0xfffff09f
    7350:	5f002966 	svcpl	0x00002966
    7354:	5a49535f 	bpl	125c0d8 <_Min_Stack_Size+0x125bcd8>
    7358:	5f464f45 	svcpl	0x00464f45
    735c:	455a4953 	ldrbmi	r4, [sl, #-2387]	; 0xfffff6ad
    7360:	5f5f545f 	svcpl	0x005f545f
    7364:	5f003420 	svcpl	0x00003420
    7368:	4e49555f 	mcrmi	5, 2, r5, cr9, cr15, {2}
    736c:	5f343654 	svcpl	0x00343654
    7370:	45505954 	ldrbmi	r5, [r0, #-2388]	; 0xfffff6ac
    7374:	6c205f5f 	stcvs	15, cr5, [r0], #-380	; 0xfffffe84
    7378:	20676e6f 	rsbcs	r6, r7, pc, ror #28
    737c:	676e6f6c 	strbvs	r6, [lr, -ip, ror #30]!
    7380:	736e7520 	cmnvc	lr, #32, 10	; 0x8000000
    7384:	656e6769 	strbvs	r6, [lr, #-1897]!	; 0xfffff897
    7388:	6e692064 	cdpvs	0, 6, cr2, cr9, cr4, {3}
    738c:	5f5f0074 	svcpl	0x005f0074
    7390:	36544e49 	ldrbcc	r4, [r4], -r9, asr #28
    7394:	28435f34 	stmdacs	r3, {r2, r4, r5, r8, r9, sl, fp, ip, lr}^
    7398:	63202963 			; <UNDEFINED> instruction: 0x63202963
    739c:	20232320 	eorcs	r2, r3, r0, lsr #6
    73a0:	48004c4c 	stmdami	r0, {r2, r3, r6, sl, fp, lr}
    73a4:	5f455641 	svcpl	0x00455641
    73a8:	54494e49 	strbpl	r4, [r9], #-3657	; 0xfffff1b7
    73ac:	494e4946 	stmdbmi	lr, {r1, r2, r6, r8, fp, lr}^
    73b0:	5252415f 	subspl	r4, r2, #-1073741801	; 0xc0000017
    73b4:	31205941 			; <UNDEFINED> instruction: 0x31205941
    73b8:	6c5f5f00 	mrrcvs	15, 0, r5, pc, cr0	; <UNPREDICTABLE>
    73bc:	616b636f 	cmnvs	fp, pc, ror #6
    73c0:	20656c62 	rsbcs	r6, r5, r2, ror #24
    73c4:	6f6c5f5f 	svcvs	0x006c5f5f
    73c8:	615f6b63 	cmpvs	pc, r3, ror #22
    73cc:	746f6e6e 	strbtvc	r6, [pc], #-3694	; 73d4 <_Min_Stack_Size+0x6fd4>
    73d0:	28657461 	stmdacs	r5!, {r0, r5, r6, sl, ip, sp, lr}^
    73d4:	6b636f6c 	blvs	18e318c <_Min_Stack_Size+0x18e2d8c>
    73d8:	656c6261 	strbvs	r6, [ip, #-609]!	; 0xfffffd9f
    73dc:	50470029 	subpl	r0, r7, r9, lsr #32
    73e0:	20414f49 	subcs	r4, r1, r9, asr #30
    73e4:	50472828 	subpl	r2, r7, r8, lsr #16
    73e8:	745f4f49 	ldrbvc	r4, [pc], #-3913	; 73f0 <_Min_Stack_Size+0x6ff0>
    73ec:	47292a20 	strmi	r2, [r9, -r0, lsr #20]!
    73f0:	414f4950 	cmpmi	pc, r0, asr r9	; <UNPREDICTABLE>
    73f4:	5341425f 	movtpl	r4, #4703	; 0x125f
    73f8:	5f002945 	svcpl	0x00002945
    73fc:	444e455f 	strbmi	r4, [lr], #-1375	; 0xfffffaa1
    7400:	4345445f 	movtmi	r4, #21599	; 0x545f
    7404:	0020534c 	eoreq	r5, r0, ip, asr #6
    7408:	20434352 	subcs	r4, r3, r2, asr r3
    740c:	43522828 	cmpmi	r2, #40, 16	; 0x280000
    7410:	20745f43 	rsbscs	r5, r4, r3, asr #30
    7414:	4352292a 	cmpmi	r2, #688128	; 0xa8000
    7418:	41425f43 	cmpmi	r2, r3, asr #30
    741c:	00294553 	eoreq	r4, r9, r3, asr r5
    7420:	5f434352 	svcpl	0x00434352
    7424:	45534142 	ldrbmi	r4, [r3, #-322]	; 0xfffffebe
    7428:	65502820 	ldrbvs	r2, [r0, #-2080]	; 0xfffff7e0
    742c:	68706972 	ldmdavs	r0!, {r1, r4, r5, r6, r8, fp, sp, lr}^
    7430:	6c617265 	sfmvs	f7, 2, [r1], #-404	; 0xfffffe6c
    7434:	41425f73 	hvcmi	9715	; 0x25f3
    7438:	2b204553 	blcs	81898c <_Min_Stack_Size+0x81858c>
    743c:	30783020 	rsbscc	r3, r8, r0, lsr #32
    7440:	31323030 	teqcc	r2, r0, lsr r0
    7444:	55303030 	ldrpl	r3, [r0, #-48]!	; 0xffffffd0
    7448:	5f00294c 	svcpl	0x0000294c
    744c:	43414d5f 	movtmi	r4, #7519	; 0x1d5f
    7450:	454e4948 	strbmi	r4, [lr, #-2376]	; 0xfffff6b8
    7454:	444e455f 	strbmi	r4, [lr], #-1375	; 0xfffffaa1
    7458:	5f4e4149 	svcpl	0x004e4149
    745c:	205f5f48 	subscs	r5, pc, r8, asr #30
    7460:	4c5f5f00 	mrrcmi	15, 0, r5, pc, cr0	; <UNPREDICTABLE>
    7464:	5f4c4244 	svcpl	0x004c4244
    7468:	5f4e494d 	svcpl	0x004e494d
    746c:	2e32205f 	mrccs	0, 1, r2, cr2, cr15, {2}
    7470:	30353232 	eorscc	r3, r5, r2, lsr r2
    7474:	35383337 	ldrcc	r3, [r8, #-823]!	; 0xfffffcc9
    7478:	37303538 			; <UNDEFINED> instruction: 0x37303538
    747c:	34313032 	ldrtcc	r3, [r1], #-50	; 0xffffffce
    7480:	30332d65 	eorscc	r2, r3, r5, ror #26
    7484:	5f004c38 	svcpl	0x00004c38
    7488:	4d52415f 	ldfmie	f4, [r2, #-380]	; 0xfffffe84
    748c:	4145465f 	cmpmi	r5, pc, asr r6
    7490:	45525554 	ldrbmi	r5, [r2, #-1364]	; 0xfffffaac
    7494:	4544435f 	strbmi	r4, [r4, #-863]	; 0xfffffca1
    7498:	415f5f00 	cmpmi	pc, r0, lsl #30
    749c:	4d554343 	ldclmi	3, cr4, [r5, #-268]	; 0xfffffef4
    74a0:	4942495f 	stmdbmi	r2, {r0, r1, r2, r3, r4, r6, r8, fp, lr}^
    74a4:	205f5f54 	subscs	r5, pc, r4, asr pc	; <UNPREDICTABLE>
    74a8:	75003631 	strvc	r3, [r0, #-1585]	; 0xfffff9cf
    74ac:	6769736e 	strbvs	r7, [r9, -lr, ror #6]!
    74b0:	0064656e 	rsbeq	r6, r4, lr, ror #10
    74b4:	73625f5f 	cmnvc	r2, #380	; 0x17c
    74b8:	36706177 			; <UNDEFINED> instruction: 0x36706177
    74bc:	785f2834 	ldmdavc	pc, {r2, r4, r5, fp, sp}^	; <UNPREDICTABLE>
    74c0:	5f5f2029 	svcpl	0x005f2029
    74c4:	6c697562 	cfstr64vs	mvdx7, [r9], #-392	; 0xfffffe78
    74c8:	5f6e6974 	svcpl	0x006e6974
    74cc:	61777362 	cmnvs	r7, r2, ror #6
    74d0:	28343670 	ldmdacs	r4!, {r4, r5, r6, r9, sl, ip, sp}
    74d4:	0029785f 	eoreq	r7, r9, pc, asr r8
    74d8:	4d49545f 	cfstrdmi	mvd5, [r9, #-380]	; 0xfffffe84
    74dc:	4c415645 	mcrrmi	6, 4, r5, r1, cr5
    74e0:	4645445f 			; <UNDEFINED> instruction: 0x4645445f
    74e4:	44454e49 	strbmi	r4, [r5], #-3657	; 0xfffff1b7
    74e8:	636c0020 	cmnvs	ip, #32
    74ec:	65735f64 	ldrbvs	r5, [r3, #-3940]!	; 0xfffff09c
    74f0:	635f646e 	cmpvs	pc, #1845493760	; 0x6e000000
    74f4:	00726168 	rsbseq	r6, r2, r8, ror #2
    74f8:	5254535f 	subspl	r5, r4, #2080374785	; 0x7c000001
    74fc:	5f474e49 	svcpl	0x00474e49
    7500:	00205f48 	eoreq	r5, r0, r8, asr #30
    7504:	74705f5f 	ldrbtvc	r5, [r0], #-3935	; 0xfffff0a1
    7508:	6175675f 	cmnvs	r5, pc, asr r7
    750c:	64656472 	strbtvs	r6, [r5], #-1138	; 0xfffffb8e
    7510:	2879625f 	ldmdacs	r9!, {r0, r1, r2, r3, r4, r6, r9, sp, lr}^
    7514:	5f202978 	svcpl	0x00202978
    7518:	636f6c5f 	cmnvs	pc, #24320	; 0x5f00
    751c:	6e615f6b 	cdpvs	15, 6, cr5, cr1, cr11, {3}
    7520:	61746f6e 	cmnvs	r4, lr, ror #30
    7524:	70286574 	eorvc	r6, r8, r4, ror r5
    7528:	75675f74 	strbvc	r5, [r7, #-3956]!	; 0xfffff08c
    752c:	65647261 	strbvs	r7, [r4, #-609]!	; 0xfffffd9f
    7530:	79625f64 	stmdbvc	r2!, {r2, r5, r6, r8, r9, sl, fp, ip, lr}^
    7534:	29297828 	stmdbcs	r9!, {r3, r5, fp, ip, sp, lr}
    7538:	675f5f00 	ldrbvs	r5, [pc, -r0, lsl #30]
    753c:	64726175 	ldrbtvs	r6, [r2], #-373	; 0xfffffe8b
    7540:	625f6465 	subsvs	r6, pc, #1694498816	; 0x65000000
    7544:	29782879 	ldmdbcs	r8!, {r0, r3, r4, r5, r6, fp, sp}^
    7548:	6c5f5f20 	mrrcvs	15, 2, r5, pc, cr0	; <UNPREDICTABLE>
    754c:	5f6b636f 	svcpl	0x006b636f
    7550:	6f6e6e61 	svcvs	0x006e6e61
    7554:	65746174 	ldrbvs	r6, [r4, #-372]!	; 0xfffffe8c
    7558:	61756728 	cmnvs	r5, r8, lsr #14
    755c:	64656472 	strbtvs	r6, [r5], #-1138	; 0xfffffb8e
    7560:	2879625f 	ldmdacs	r9!, {r0, r1, r2, r3, r4, r6, r9, sp, lr}^
    7564:	00292978 	eoreq	r2, r9, r8, ror r9
    7568:	49545845 	ldmdbmi	r4, {r0, r2, r6, fp, ip, lr}^
    756c:	495f3231 	ldmdbmi	pc, {r0, r4, r5, r9, ip, sp}^	; <UNPREDICTABLE>
    7570:	34205152 	strtcc	r5, [r0], #-338	; 0xfffffeae
    7574:	5f5f0030 	svcpl	0x005f0030
    7578:	43554e47 	cmpmi	r5, #1136	; 0x470
    757c:	454b494c 	strbmi	r4, [fp, #-2380]	; 0xfffff6b4
    7580:	4f5f5f5f 	svcmi	0x005f5f5f
    7584:	45534646 	ldrbmi	r4, [r3, #-1606]	; 0xfffff9ba
    7588:	20464f54 	subcs	r4, r6, r4, asr pc
    758c:	5f5f0031 	svcpl	0x005f0031
    7590:	544e4955 	strbpl	r4, [lr], #-2389	; 0xfffff6ab
    7594:	435f3631 	cmpmi	pc, #51380224	; 0x3100000
    7598:	20296328 	eorcs	r6, r9, r8, lsr #6
    759c:	5f5f0063 	svcpl	0x005f0063
    75a0:	5f4d5241 	svcpl	0x004d5241
    75a4:	54414546 	strbpl	r4, [r1], #-1350	; 0xfffffaba
    75a8:	5f455255 	svcpl	0x00455255
    75ac:	36315046 	ldrtcc	r5, [r1], -r6, asr #32
    75b0:	4143535f 	cmpmi	r3, pc, asr r3
    75b4:	5f52414c 	svcpl	0x0052414c
    75b8:	54495241 	strbpl	r5, [r9], #-577	; 0xfffffdbf
    75bc:	54454d48 	strbpl	r4, [r5], #-3400	; 0xfffff2b8
    75c0:	5f004349 	svcpl	0x00004349
    75c4:	6d79735f 	ldclvs	3, cr7, [r9, #-380]!	; 0xfffffe84
    75c8:	6d6f635f 	stclvs	3, cr6, [pc, #-380]!	; 7454 <_Min_Stack_Size+0x7054>
    75cc:	28746170 	ldmdacs	r4!, {r4, r5, r6, r8, sp, lr}^
    75d0:	2c6d7973 			; <UNDEFINED> instruction: 0x2c6d7973
    75d4:	6c706d69 	ldclvs	13, cr6, [r0], #-420	; 0xfffffe5c
    75d8:	7265762c 	rsbvc	r7, r5, #44, 12	; 0x2c00000
    75dc:	20296469 	eorcs	r6, r9, r9, ror #8
    75e0:	73615f5f 	cmnvc	r1, #380	; 0x17c
    75e4:	285f5f6d 	ldmdacs	pc, {r0, r2, r3, r5, r6, r8, r9, sl, fp, ip, lr}^	; <UNPREDICTABLE>
    75e8:	79732e22 	ldmdbvc	r3!, {r1, r5, r9, sl, fp, sp}^
    75ec:	7265766d 	rsbvc	r7, r5, #114294784	; 0x6d00000
    75f0:	23202220 			; <UNDEFINED> instruction: 0x23202220
    75f4:	6c706d69 	ldclvs	13, cr6, [r0], #-420	; 0xfffffe5c
    75f8:	202c2220 	eorcs	r2, ip, r0, lsr #4
    75fc:	73232022 			; <UNDEFINED> instruction: 0x73232022
    7600:	22206d79 	eorcs	r6, r0, #7744	; 0x1e40
    7604:	23202240 			; <UNDEFINED> instruction: 0x23202240
    7608:	69726576 	ldmdbvs	r2!, {r1, r2, r4, r5, r6, r8, sl, sp, lr}^
    760c:	5f002964 	svcpl	0x00002964
    7610:	5f43435f 	svcpl	0x0043435f
    7614:	50505553 	subspl	r5, r0, r3, asr r5
    7618:	5354524f 	cmppl	r4, #-268435452	; 0xf0000004
    761c:	495f5f5f 	ldmdbmi	pc, {r0, r1, r2, r3, r4, r6, r8, r9, sl, fp, ip, lr}^	; <UNPREDICTABLE>
    7620:	4e494c4e 	cdpmi	12, 4, cr4, cr9, cr14, {2}
    7624:	205f5f45 	subscs	r5, pc, r5, asr #30
    7628:	5f5f0031 	svcpl	0x005f0031
    762c:	5f414455 	svcpl	0x00414455
    7630:	54494249 	strbpl	r4, [r9], #-585	; 0xfffffdb7
    7634:	33205f5f 			; <UNDEFINED> instruction: 0x33205f5f
    7638:	5f5f0032 	svcpl	0x005f0032
    763c:	5341454c 	movtpl	r4, #5452	; 0x154c
    7640:	20363154 	eorscs	r3, r6, r4, asr r1
    7644:	00226822 	eoreq	r6, r2, r2, lsr #16
    7648:	72705f5f 	rsbsvc	r5, r0, #380	; 0x17c
    764c:	66746e69 	ldrbtvs	r6, [r4], -r9, ror #28
    7650:	656b696c 	strbvs	r6, [fp, #-2412]!	; 0xfffff694
    7654:	746d6628 	strbtvc	r6, [sp], #-1576	; 0xfffff9d8
    7658:	2c677261 	sfmcs	f7, 2, [r7], #-388	; 0xfffffe7c
    765c:	73726966 	cmnvc	r2, #1671168	; 0x198000
    7660:	72617674 	rsbvc	r7, r1, #116, 12	; 0x7400000
    7664:	29677261 	stmdbcs	r7!, {r0, r5, r6, r9, ip, sp, lr}^
    7668:	615f5f20 	cmpvs	pc, r0, lsr #30
    766c:	69727474 	ldmdbvs	r2!, {r2, r4, r5, r6, sl, ip, sp, lr}^
    7670:	65747562 	ldrbvs	r7, [r4, #-1378]!	; 0xfffffa9e
    7674:	28285f5f 	stmdacs	r8!, {r0, r1, r2, r3, r4, r6, r8, r9, sl, fp, ip, lr}
    7678:	6f665f5f 	svcvs	0x00665f5f
    767c:	74616d72 	strbtvc	r6, [r1], #-3442	; 0xfffff28e
    7680:	28205f5f 	stmdacs	r0!, {r0, r1, r2, r3, r4, r6, r8, r9, sl, fp, ip, lr}
    7684:	72705f5f 	rsbsvc	r5, r0, #380	; 0x17c
    7688:	66746e69 	ldrbtvs	r6, [r4], -r9, ror #28
    768c:	202c5f5f 	eorcs	r5, ip, pc, asr pc
    7690:	61746d66 	cmnvs	r4, r6, ror #26
    7694:	202c6772 	eorcs	r6, ip, r2, ror r7
    7698:	73726966 	cmnvc	r2, #1671168	; 0x198000
    769c:	72617674 	rsbvc	r7, r1, #116, 12	; 0x7400000
    76a0:	29677261 	stmdbcs	r7!, {r0, r5, r6, r9, ip, sp, lr}^
    76a4:	5f002929 	svcpl	0x00002929
    76a8:	5f4f4e5f 	svcpl	0x004f4e5f
    76ac:	494c4e49 	stmdbmi	ip, {r0, r3, r6, r9, sl, fp, lr}^
    76b0:	5f5f454e 	svcpl	0x005f454e
    76b4:	5f003120 	svcpl	0x00003120
    76b8:	7361665f 	cmnvc	r1, #99614720	; 0x5f00000
    76bc:	6c616374 	stclvs	3, cr6, [r1], #-464	; 0xfffffe30
    76c0:	5f5f206c 	svcpl	0x005f206c
    76c4:	72747461 	rsbsvc	r7, r4, #1627389952	; 0x61000000
    76c8:	74756269 	ldrbtvc	r6, [r5], #-617	; 0xfffffd97
    76cc:	285f5f65 	ldmdacs	pc, {r0, r2, r5, r6, r8, r9, sl, fp, ip, lr}^	; <UNPREDICTABLE>
    76d0:	665f5f28 	ldrbvs	r5, [pc], -r8, lsr #30
    76d4:	63747361 	cmnvs	r4, #-2080374783	; 0x84000001
    76d8:	5f6c6c61 	svcpl	0x006c6c61
    76dc:	0029295f 	eoreq	r2, r9, pc, asr r9
    76e0:	535f4446 	cmppl	pc, #1174405120	; 0x46000000
    76e4:	49535445 	ldmdbmi	r3, {r0, r2, r6, sl, ip, lr}^
    76e8:	3620455a 			; <UNDEFINED> instruction: 0x3620455a
    76ec:	4e490034 	mcrmi	0, 2, r0, cr9, cr4, {1}
    76f0:	5f343654 	svcpl	0x00343654
    76f4:	204e494d 	subcs	r4, lr, sp, asr #18
    76f8:	5f5f2d28 	svcpl	0x005f2d28
    76fc:	36544e49 	ldrbcc	r4, [r4], -r9, asr #28
    7700:	414d5f34 	cmpmi	sp, r4, lsr pc
    7704:	205f5f58 	subscs	r5, pc, r8, asr pc	; <UNPREDICTABLE>
    7708:	2931202d 	ldmdbcs	r1!, {r0, r2, r3, r5, sp}
    770c:	6c5f5f00 	mrrcvs	15, 0, r5, pc, cr0	; <UNPREDICTABLE>
    7710:	5f6b636f 	svcpl	0x006b636f
    7714:	6f6e6e61 	svcvs	0x006e6e61
    7718:	65746174 	ldrbvs	r6, [r4, #-372]!	; 0xfffffe8c
    771c:	20297828 	eorcs	r7, r9, r8, lsr #16
    7720:	494c5f00 	stmdbmi	ip, {r8, r9, sl, fp, ip, lr}^
    7724:	455f4554 	ldrbmi	r4, [pc, #-1364]	; 71d8 <_Min_Stack_Size+0x6dd8>
    7728:	20544958 	subscs	r4, r4, r8, asr r9
    772c:	5f5f0031 	svcpl	0x005f0031
    7730:	4d4f5441 	cfstrdmi	mvd5, [pc, #-260]	; 7634 <_Min_Stack_Size+0x7234>
    7734:	525f4349 	subspl	r4, pc, #603979777	; 0x24000001
    7738:	58414c45 	stmdapl	r1, {r0, r2, r6, sl, fp, lr}^
    773c:	30204445 	eorcc	r4, r0, r5, asr #8
    7740:	54415f00 	strbpl	r5, [r1], #-3840	; 0xfffff100
    7744:	42495254 	submi	r5, r9, #84, 4	; 0x40000005
    7748:	28455455 	stmdacs	r5, {r0, r2, r4, r6, sl, ip, lr}^
    774c:	72747461 	rsbsvc	r7, r4, #1627389952	; 0x61000000
    7750:	5f202973 	svcpl	0x00202973
    7754:	7474615f 	ldrbtvc	r6, [r4], #-351	; 0xfffffea1
    7758:	75626972 	strbvc	r6, [r2, #-2418]!	; 0xfffff68e
    775c:	5f5f6574 	svcpl	0x005f6574
    7760:	74612820 	strbtvc	r2, [r1], #-2080	; 0xfffff7e0
    7764:	29737274 	ldmdbcs	r3!, {r2, r4, r5, r6, r9, ip, sp, lr}^
    7768:	415f5f00 	cmpmi	pc, r0, lsl #30
    776c:	465f4d52 			; <UNDEFINED> instruction: 0x465f4d52
    7770:	55544145 	ldrbpl	r4, [r4, #-325]	; 0xfffffebb
    7774:	435f4552 	cmpmi	pc, #343932928	; 0x14800000
    7778:	4f52504f 	svcmi	0x0052504f
    777c:	5f5f0043 	svcpl	0x005f0043
    7780:	54534146 	ldrbpl	r4, [r3], #-326	; 0xfffffeba
    7784:	5f002038 	svcpl	0x00002038
    7788:	5454415f 	ldrbpl	r4, [r4], #-351	; 0xfffffea1
    778c:	55424952 	strbpl	r4, [r2, #-2386]	; 0xfffff6ae
    7790:	495f4554 	ldmdbmi	pc, {r2, r4, r6, r8, sl, lr}^	; <UNPREDICTABLE>
    7794:	5255504d 	subspl	r5, r5, #77	; 0x4d
    7798:	54505f45 	ldrbpl	r5, [r0], #-3909	; 0xfffff0bb
    779c:	205f5f52 	subscs	r5, pc, r2, asr pc	; <UNPREDICTABLE>
    77a0:	445f5f00 	ldrbmi	r5, [pc], #-3840	; 77a8 <_Min_Stack_Size+0x73a8>
    77a4:	485f4c42 	ldmdami	pc, {r1, r6, sl, fp, lr}^	; <UNPREDICTABLE>
    77a8:	495f5341 	ldmdbmi	pc, {r0, r6, r8, r9, ip, lr}^	; <UNPREDICTABLE>
    77ac:	4e49464e 	cdpmi	6, 4, cr4, cr9, cr14, {2}
    77b0:	5f595449 	svcpl	0x00595449
    77b4:	0031205f 	eorseq	r2, r1, pc, asr r0
    77b8:	49535f5f 	ldmdbmi	r3, {r0, r1, r2, r3, r4, r6, r8, r9, sl, fp, ip, lr}^
    77bc:	54415f47 	strbpl	r5, [r1], #-3911	; 0xfffff0b9
    77c0:	43494d4f 	movtmi	r4, #40271	; 0x9d4f
    77c4:	58414d5f 	stmdapl	r1, {r0, r1, r2, r3, r4, r6, r8, sl, fp, lr}^
    77c8:	30205f5f 	eorcc	r5, r0, pc, asr pc
    77cc:	66663778 			; <UNDEFINED> instruction: 0x66663778
    77d0:	66666666 	strbtvs	r6, [r6], -r6, ror #12
    77d4:	5f5f0066 	svcpl	0x005f0066
    77d8:	36544c46 	ldrbcc	r4, [r4], -r6, asr #24
    77dc:	414d5f34 	cmpmi	sp, r4, lsr pc
    77e0:	445f544e 	ldrbmi	r5, [pc], #-1102	; 77e8 <_Min_Stack_Size+0x73e8>
    77e4:	5f5f4749 	svcpl	0x005f4749
    77e8:	00333520 	eorseq	r3, r3, r0, lsr #10
    77ec:	4545525f 	strbmi	r5, [r5, #-607]	; 0xfffffda1
    77f0:	435f544e 	cmpmi	pc, #1308622848	; 0x4e000000
    77f4:	4b434548 	blmi	10d8d1c <_Min_Stack_Size+0x10d891c>
    77f8:	4e41525f 	mcrmi	2, 2, r5, cr1, cr15, {2}
    77fc:	28383444 	ldmdacs	r8!, {r2, r6, sl, ip, sp}
    7800:	29726176 	ldmdbcs	r2!, {r1, r2, r4, r5, r6, r8, sp, lr}^
    7804:	45525f20 	ldrbmi	r5, [r2, #-3872]	; 0xfffff0e0
    7808:	5f544e45 	svcpl	0x00544e45
    780c:	43454843 	movtmi	r4, #22595	; 0x5843
    7810:	6176284b 	cmnvs	r6, fp, asr #16
    7814:	5f202c72 	svcpl	0x00202c72
    7818:	2c383472 	cfldrscs	mvf3, [r8], #-456	; 0xfffffe38
    781c:	72747320 	rsbsvc	r7, r4, #32, 6	; 0x80000000
    7820:	20746375 	rsbscs	r6, r4, r5, ror r3
    7824:	6e61725f 	mcrvs	2, 3, r7, cr1, cr15, {2}
    7828:	20383464 	eorscs	r3, r8, r4, ror #8
    782c:	73202c2a 			; <UNDEFINED> instruction: 0x73202c2a
    7830:	6f657a69 	svcvs	0x00657a69
    7834:	282a2066 	stmdacs	sl!, {r1, r2, r5, r6, sp}
    7838:	72617628 	rsbvc	r7, r1, #40, 12	; 0x2800000
    783c:	5f3e2d29 	svcpl	0x003e2d29
    7840:	29383472 	ldmdbcs	r8!, {r1, r4, r5, r6, sl, ip, sp}
    7844:	525f202c 	subspl	r2, pc, #44	; 0x2c
    7848:	544e4545 	strbpl	r4, [lr], #-1349	; 0xfffffabb
    784c:	494e495f 	stmdbmi	lr, {r0, r1, r2, r3, r4, r6, r8, fp, lr}^
    7850:	41525f54 	cmpmi	r2, r4, asr pc
    7854:	3834444e 	ldmdacc	r4!, {r1, r2, r3, r6, sl, lr}
    7858:	61762828 	cmnvs	r6, r8, lsr #16
    785c:	29292972 	stmdbcs	r9!, {r1, r4, r5, r6, r8, fp, sp}
    7860:	45525f00 	ldrbmi	r5, [r2, #-3840]	; 0xfffff100
    7864:	47524154 			; <UNDEFINED> instruction: 0x47524154
    7868:	42415445 	submi	r5, r1, #1157627904	; 0x45000000
    786c:	4c5f454c 	cfldr64mi	mvdx4, [pc], {76}	; 0x4c
    7870:	494b434f 	stmdbmi	fp, {r0, r1, r2, r3, r6, r8, r9, lr}^
    7874:	3120474e 			; <UNDEFINED> instruction: 0x3120474e
    7878:	54584500 	ldrbpl	r4, [r8], #-1280	; 0xfffffb00
    787c:	495f3749 	ldmdbmi	pc, {r0, r3, r6, r8, r9, sl, ip, sp}^	; <UNPREDICTABLE>
    7880:	32205152 	eorcc	r5, r0, #-2147483628	; 0x80000014
    7884:	5f5f0033 	svcpl	0x005f0033
    7888:	676e6172 			; <UNDEFINED> instruction: 0x676e6172
    788c:	28666f65 	stmdacs	r6!, {r0, r2, r5, r6, r8, r9, sl, fp, sp, lr}^
    7890:	65707974 	ldrbvs	r7, [r0, #-2420]!	; 0xfffff68c
    7894:	6174732c 	cmnvs	r4, ip, lsr #6
    7898:	652c7472 	strvs	r7, [ip, #-1138]!	; 0xfffffb8e
    789c:	2029646e 	eorcs	r6, r9, lr, ror #8
    78a0:	6f5f5f28 	svcvs	0x005f5f28
    78a4:	65736666 	ldrbvs	r6, [r3, #-1638]!	; 0xfffff99a
    78a8:	28666f74 	stmdacs	r6!, {r2, r4, r5, r6, r8, r9, sl, fp, sp, lr}^
    78ac:	65707974 	ldrbvs	r7, [r0, #-2420]!	; 0xfffff68c
    78b0:	6e65202c 	cdpvs	0, 6, cr2, cr5, cr12, {1}
    78b4:	2d202964 			; <UNDEFINED> instruction: 0x2d202964
    78b8:	6f5f5f20 	svcvs	0x005f5f20
    78bc:	65736666 	ldrbvs	r6, [r3, #-1638]!	; 0xfffff99a
    78c0:	28666f74 	stmdacs	r6!, {r2, r4, r5, r6, r8, r9, sl, fp, sp, lr}^
    78c4:	65707974 	ldrbvs	r7, [r0, #-2420]!	; 0xfffff68c
    78c8:	7473202c 	ldrbtvc	r2, [r3], #-44	; 0xffffffd4
    78cc:	29747261 	ldmdbcs	r4!, {r0, r5, r6, r9, ip, sp, lr}^
    78d0:	5f5f0029 	svcpl	0x005f0029
    78d4:	64616564 	strbtvs	r6, [r1], #-1380	; 0xfffffa9c
    78d8:	5f5f2032 	svcpl	0x005f2032
    78dc:	72747461 	rsbsvc	r7, r4, #1627389952	; 0x61000000
    78e0:	74756269 	ldrbtvc	r6, [r5], #-617	; 0xfffffd97
    78e4:	285f5f65 	ldmdacs	pc, {r0, r2, r5, r6, r8, r9, sl, fp, ip, lr}^	; <UNPREDICTABLE>
    78e8:	6e5f5f28 	cdpvs	15, 5, cr5, cr15, cr8, {1}
    78ec:	7465726f 	strbtvc	r7, [r5], #-623	; 0xfffffd91
    78f0:	5f6e7275 	svcpl	0x006e7275
    78f4:	0029295f 	eoreq	r2, r9, pc, asr r9
    78f8:	73796870 	cmnvc	r9, #112, 16	; 0x700000
    78fc:	20726461 	rsbscs	r6, r2, r1, ror #8
    7900:	73796870 	cmnvc	r9, #112, 16	; 0x700000
    7904:	5f726461 	svcpl	0x00726461
    7908:	49540074 	ldmdbmi	r4, {r2, r4, r5, r6}^
    790c:	5053454d 	subspl	r4, r3, sp, asr #10
    7910:	545f4345 	ldrbpl	r4, [pc], #-837	; 7918 <_Min_Stack_Size+0x7518>
    7914:	49545f4f 	ldmdbmi	r4, {r0, r1, r2, r3, r6, r8, r9, sl, fp, ip, lr}^
    7918:	4156454d 	cmpmi	r6, sp, asr #10
    791c:	7674284c 	ldrbtvc	r2, [r4], -ip, asr #16
    7920:	2973742c 	ldmdbcs	r3!, {r2, r3, r5, sl, ip, sp, lr}^
    7924:	206f6420 	rsbcs	r6, pc, r0, lsr #8
    7928:	7428207b 	strtvc	r2, [r8], #-123	; 0xffffff85
    792c:	3e2d2976 			; <UNDEFINED> instruction: 0x3e2d2976
    7930:	735f7674 	cmpvc	pc, #116, 12	; 0x7400000
    7934:	3d206365 	stccc	3, cr6, [r0, #-404]!	; 0xfffffe6c
    7938:	73742820 	cmnvc	r4, #32, 16	; 0x200000
    793c:	743e2d29 	ldrtvc	r2, [lr], #-3369	; 0xfffff2d7
    7940:	65735f76 	ldrbvs	r5, [r3, #-3958]!	; 0xfffff08a
    7944:	28203b63 	stmdacs	r0!, {r0, r1, r5, r6, r8, r9, fp, ip, sp}
    7948:	2d297674 	stccs	6, cr7, [r9, #-464]!	; 0xfffffe30
    794c:	5f76743e 	svcpl	0x0076743e
    7950:	63657375 	cmnvs	r5, #-738197503	; 0xd4000001
    7954:	28203d20 	stmdacs	r0!, {r5, r8, sl, fp, ip, sp}
    7958:	2d297374 	stccs	3, cr7, [r9, #-464]!	; 0xfffffe30
    795c:	5f76743e 	svcpl	0x0076743e
    7960:	6365736e 	cmnvs	r5, #-1207959551	; 0xb8000001
    7964:	31202f20 			; <UNDEFINED> instruction: 0x31202f20
    7968:	3b303030 	blcc	c13a30 <_Min_Stack_Size+0xc13630>
    796c:	77207d20 	strvc	r7, [r0, -r0, lsr #26]!
    7970:	656c6968 	strbvs	r6, [ip, #-2408]!	; 0xfffff698
    7974:	29302820 	ldmdbcs	r0!, {r5, fp, sp}
    7978:	555f5f00 	ldrbpl	r5, [pc, #-3840]	; 6a80 <_Min_Stack_Size+0x6680>
    797c:	5f534553 	svcpl	0x00534553
    7980:	54494e49 	strbpl	r4, [r9], #-3657	; 0xfffff1b7
    7984:	494e4946 	stmdbmi	lr, {r1, r2, r6, r8, fp, lr}^
    7988:	31205f5f 			; <UNDEFINED> instruction: 0x31205f5f
    798c:	4e495500 	cdpmi	5, 4, cr5, cr9, cr0, {0}
    7990:	435f3854 	cmpmi	pc, #84, 16	; 0x540000
    7994:	20297828 	eorcs	r7, r9, r8, lsr #16
    7998:	49555f5f 	ldmdbmi	r5, {r0, r1, r2, r3, r4, r6, r8, r9, sl, fp, ip, lr}^
    799c:	5f38544e 	svcpl	0x0038544e
    79a0:	29782843 	ldmdbcs	r8!, {r0, r1, r6, fp, sp}^
    79a4:	6e5f5f00 	cdpvs	15, 5, cr5, cr15, cr0, {0}
    79a8:	5f646565 	svcpl	0x00646565
    79ac:	64727470 	ldrbtvs	r7, [r2], #-1136	; 0xfffffb90
    79b0:	5f666669 	svcpl	0x00666669
    79b4:	5f5f0074 	svcpl	0x005f0074
    79b8:	5f4c4244 	svcpl	0x004c4244
    79bc:	49434544 	stmdbmi	r3, {r2, r6, r8, sl, lr}^
    79c0:	5f4c414d 	svcpl	0x004c414d
    79c4:	5f474944 	svcpl	0x00474944
    79c8:	3731205f 			; <UNDEFINED> instruction: 0x3731205f
    79cc:	415f5f00 	cmpmi	pc, r0, lsl #30
    79d0:	465f4d52 			; <UNDEFINED> instruction: 0x465f4d52
    79d4:	55544145 	ldrbpl	r4, [r4, #-325]	; 0xfffffebb
    79d8:	535f4552 	cmppl	pc, #343932928	; 0x14800000
    79dc:	31205441 			; <UNDEFINED> instruction: 0x31205441
    79e0:	685f5f00 	ldmdavs	pc, {r8, r9, sl, fp, ip, lr}^	; <UNPREDICTABLE>
    79e4:	5f657661 	svcpl	0x00657661
    79e8:	676e6f6c 	strbvs	r6, [lr, -ip, ror #30]!
    79ec:	31203233 			; <UNDEFINED> instruction: 0x31203233
    79f0:	544e4900 	strbpl	r4, [lr], #-2304	; 0xfffff700
    79f4:	41454c5f 	cmpmi	r5, pc, asr ip
    79f8:	5f385453 	svcpl	0x00385453
    79fc:	204e494d 	subcs	r4, lr, sp, asr #18
    7a00:	5f5f2d28 	svcpl	0x005f2d28
    7a04:	5f544e49 	svcpl	0x00544e49
    7a08:	5341454c 	movtpl	r4, #5452	; 0x154c
    7a0c:	4d5f3854 	ldclmi	8, cr3, [pc, #-336]	; 78c4 <_Min_Stack_Size+0x74c4>
    7a10:	5f5f5841 	svcpl	0x005f5841
    7a14:	31202d20 			; <UNDEFINED> instruction: 0x31202d20
    7a18:	505f0029 	subspl	r0, pc, r9, lsr #32
    7a1c:	45524854 	ldrbmi	r4, [r2, #-2132]	; 0xfffff7ac
    7a20:	4d5f4441 	cfldrdmi	mvd4, [pc, #-260]	; 7924 <_Min_Stack_Size+0x7524>
    7a24:	58455455 	stmdapl	r5, {r0, r2, r4, r6, sl, ip, lr}^
    7a28:	494e495f 	stmdbmi	lr, {r0, r1, r2, r3, r4, r6, r8, fp, lr}^
    7a2c:	4c414954 	mcrrmi	9, 5, r4, r1, cr4	; <UNPREDICTABLE>
    7a30:	52455a49 	subpl	r5, r5, #299008	; 0x49000
    7a34:	70282820 	eorvc	r2, r8, r0, lsr #16
    7a38:	65726874 	ldrbvs	r6, [r2, #-2164]!	; 0xfffff78c
    7a3c:	6d5f6461 	cfldrdvs	mvd6, [pc, #-388]	; 78c0 <_Min_Stack_Size+0x74c0>
    7a40:	78657475 	stmdavc	r5!, {r0, r2, r4, r5, r6, sl, ip, sp, lr}^
    7a44:	2029745f 	eorcs	r7, r9, pc, asr r4
    7a48:	46467830 			; <UNDEFINED> instruction: 0x46467830
    7a4c:	46464646 	strbmi	r4, [r6], -r6, asr #12
    7a50:	00294646 	eoreq	r4, r9, r6, asr #12
    7a54:	4c554e5f 	mrrcmi	14, 5, r4, r5, cr15
    7a58:	0030204c 	eorseq	r2, r0, ip, asr #32
    7a5c:	6c665f5f 	stclvs	15, cr5, [r6], #-380	; 0xfffffe84
    7a60:	72617865 	rsbvc	r7, r1, #6619136	; 0x650000
    7a64:	305b2072 	subscc	r2, fp, r2, ror r0
    7a68:	4955005d 	ldmdbmi	r5, {r0, r2, r3, r4, r6}^
    7a6c:	3436544e 	ldrtcc	r5, [r6], #-1102	; 0xfffffbb2
    7a70:	7828435f 	stmdavc	r8!, {r0, r1, r2, r3, r4, r6, r8, r9, lr}
    7a74:	5f5f2029 	svcpl	0x005f2029
    7a78:	544e4955 	strbpl	r4, [lr], #-2389	; 0xfffff6ab
    7a7c:	435f3436 	cmpmi	pc, #905969664	; 0x36000000
    7a80:	00297828 	eoreq	r7, r9, r8, lsr #16
    7a84:	4545525f 	strbmi	r5, [r5, #-607]	; 0xfffffda1
    7a88:	495f544e 	ldmdbmi	pc, {r1, r2, r3, r6, sl, ip, lr}^	; <UNPREDICTABLE>
    7a8c:	5f54494e 	svcpl	0x0054494e
    7a90:	5f525450 	svcpl	0x00525450
    7a94:	4f52455a 	svcmi	0x0052455a
    7a98:	76284445 	strtvc	r4, [r8], -r5, asr #8
    7a9c:	20297261 	eorcs	r7, r9, r1, ror #4
    7aa0:	7628207b 			; <UNDEFINED> instruction: 0x7628207b
    7aa4:	2d297261 	sfmcs	f7, 4, [r9, #-388]!	; 0xfffffe7c
    7aa8:	74735f3e 	ldrbtvc	r5, [r3], #-3902	; 0xfffff0c2
    7aac:	206e6964 	rsbcs	r6, lr, r4, ror #18
    7ab0:	5f28203d 	svcpl	0x0028203d
    7ab4:	4c49465f 	mcrrmi	6, 5, r4, r9, cr15
    7ab8:	292a2045 	stmdbcs	sl!, {r0, r2, r6, sp}
    7abc:	735f5f26 	cmpvc	pc, #38, 30	; 0x98
    7ac0:	61665f66 	cmnvs	r6, r6, ror #30
    7ac4:	735f656b 	cmpvc	pc, #448790528	; 0x1ac00000
    7ac8:	6e696474 	mcrvs	4, 3, r6, cr9, cr4, {3}
    7acc:	7628203b 			; <UNDEFINED> instruction: 0x7628203b
    7ad0:	2d297261 	sfmcs	f7, 4, [r9, #-388]!	; 0xfffffe7c
    7ad4:	74735f3e 	ldrbtvc	r5, [r3], #-3902	; 0xfffff0c2
    7ad8:	74756f64 	ldrbtvc	r6, [r5], #-3940	; 0xfffff09c
    7adc:	28203d20 	stmdacs	r0!, {r5, r8, sl, fp, ip, sp}
    7ae0:	49465f5f 	stmdbmi	r6, {r0, r1, r2, r3, r4, r6, r8, r9, sl, fp, ip, lr}^
    7ae4:	2a20454c 	bcs	81901c <_Min_Stack_Size+0x818c1c>
    7ae8:	5f5f2629 	svcpl	0x005f2629
    7aec:	665f6673 			; <UNDEFINED> instruction: 0x665f6673
    7af0:	5f656b61 	svcpl	0x00656b61
    7af4:	6f647473 	svcvs	0x00647473
    7af8:	203b7475 	eorscs	r7, fp, r5, ror r4
    7afc:	72617628 	rsbvc	r7, r1, #40, 12	; 0x2800000
    7b00:	5f3e2d29 	svcpl	0x003e2d29
    7b04:	65647473 	strbvs	r7, [r4, #-1139]!	; 0xfffffb8d
    7b08:	3d207272 	sfmcc	f7, 4, [r0, #-456]!	; 0xfffffe38
    7b0c:	5f5f2820 	svcpl	0x005f2820
    7b10:	454c4946 	strbmi	r4, [ip, #-2374]	; 0xfffff6ba
    7b14:	26292a20 	strtcs	r2, [r9], -r0, lsr #20
    7b18:	66735f5f 	uhsaxvs	r5, r3, pc	; <UNPREDICTABLE>
    7b1c:	6b61665f 	blvs	18614a0 <_Min_Stack_Size+0x18610a0>
    7b20:	74735f65 	ldrbtvc	r5, [r3], #-3941	; 0xfffff09b
    7b24:	72726564 	rsbsvc	r6, r2, #100, 10	; 0x19000000
    7b28:	007d203b 	rsbseq	r2, sp, fp, lsr r0
    7b2c:	4e495f5f 	mcrmi	15, 2, r5, cr9, cr15, {2}
    7b30:	5f363154 	svcpl	0x00363154
    7b34:	5f58414d 	svcpl	0x0058414d
    7b38:	7830205f 	ldmdavc	r0!, {r0, r1, r2, r3, r4, r6, sp}
    7b3c:	66666637 			; <UNDEFINED> instruction: 0x66666637
    7b40:	535f5f00 	cmppl	pc, #0, 30
    7b44:	435f5359 	cmpmi	pc, #1677721601	; 0x64000001
    7b48:	49464e4f 	stmdbmi	r6, {r0, r1, r2, r3, r6, r9, sl, fp, lr}^
    7b4c:	5f485f47 	svcpl	0x00485f47
    7b50:	5f00205f 	svcpl	0x0000205f
    7b54:	4343475f 	movtmi	r4, #14175	; 0x375f
    7b58:	4f54415f 	svcmi	0x0054415f
    7b5c:	5f43494d 	svcpl	0x0043494d
    7b60:	52414843 	subpl	r4, r1, #4390912	; 0x430000
    7b64:	434f4c5f 	movtmi	r4, #64607	; 0xfc5f
    7b68:	52465f4b 	subpl	r5, r6, #300	; 0x12c
    7b6c:	32204545 	eorcc	r4, r0, #289406976	; 0x11400000
    7b70:	445f5f00 	ldrbmi	r5, [pc], #-3840	; 7b78 <_Min_Stack_Size+0x7778>
    7b74:	4c4f5645 	mcrrmi	6, 4, r5, pc, cr5
    7b78:	4c495441 	cfstrdmi	mvd5, [r9], {65}	; 0x41
    7b7c:	79742845 	ldmdbvc	r4!, {r0, r2, r6, fp, sp}^
    7b80:	762c6570 			; <UNDEFINED> instruction: 0x762c6570
    7b84:	20297261 	eorcs	r7, r9, r1, ror #4
    7b88:	79742828 	ldmdbvc	r4!, {r3, r5, fp, sp}^
    7b8c:	28296570 	stmdacs	r9!, {r4, r5, r6, r8, sl, sp, lr}
    7b90:	69755f5f 	ldmdbvs	r5!, {r0, r1, r2, r3, r4, r6, r8, r9, sl, fp, ip, lr}^
    7b94:	7470746e 	ldrbtvc	r7, [r0], #-1134	; 0xfffffb92
    7b98:	29745f72 	ldmdbcs	r4!, {r1, r4, r5, r6, r8, r9, sl, fp, ip, lr}^
    7b9c:	6c6f7628 	stclvs	6, cr7, [pc], #-160	; 7b04 <_Min_Stack_Size+0x7704>
    7ba0:	6c697461 	cfstrdvs	mvd7, [r9], #-388	; 0xfffffe7c
    7ba4:	6f762065 	svcvs	0x00762065
    7ba8:	2a206469 	bcs	820d54 <_Min_Stack_Size+0x820954>
    7bac:	61762829 	cmnvs	r6, r9, lsr #16
    7bb0:	00292972 	eoreq	r2, r9, r2, ror r9
    7bb4:	4f495047 	svcmi	0x00495047
    7bb8:	4e49505f 	mcrmi	0, 2, r5, cr9, cr15, {2}
    7bbc:	2035315f 	eorscs	r3, r5, pc, asr r1
    7bc0:	69752828 	ldmdbvs	r5!, {r3, r5, fp, sp}^
    7bc4:	3631746e 	ldrtcc	r7, [r1], -lr, ror #8
    7bc8:	3029745f 	eorcc	r7, r9, pc, asr r4
    7bcc:	30303878 	eorscc	r3, r0, r8, ror r8
    7bd0:	5f002930 	svcpl	0x00002930
    7bd4:	5053535f 	subspl	r5, r3, pc, asr r3
    7bd8:	524f465f 	subpl	r4, pc, #99614720	; 0x5f00000
    7bdc:	59464954 	stmdbpl	r6, {r2, r4, r6, r8, fp, lr}^
    7be0:	56454c5f 			; <UNDEFINED> instruction: 0x56454c5f
    7be4:	30204c45 	eorcc	r4, r0, r5, asr #24
    7be8:	475f5f00 	ldrbmi	r5, [pc, -r0, lsl #30]
    7bec:	4c43554e 	cfstr64mi	mvdx5, [r3], {78}	; 0x4e
    7bf0:	5f454b49 	svcpl	0x00454b49
    7bf4:	4c495542 	cfstr64mi	mvdx5, [r9], {66}	; 0x42
    7bf8:	5f4e4954 	svcpl	0x004e4954
    7bfc:	41445453 	cmpmi	r4, r3, asr r4
    7c00:	31204752 			; <UNDEFINED> instruction: 0x31204752
    7c04:	585f5f00 	ldmdapl	pc, {r8, r9, sl, fp, ip, lr}^	; <UNPREDICTABLE>
    7c08:	565f4953 			; <UNDEFINED> instruction: 0x565f4953
    7c0c:	42495349 	submi	r5, r9, #603979777	; 0x24000001
    7c10:	3020454c 	eorcc	r4, r0, ip, asr #10
    7c14:	4e495f00 	cdpmi	15, 4, cr5, cr9, cr0, {0}
    7c18:	4444415f 	strbmi	r4, [r4], #-351	; 0xfffffea1
    7c1c:	5f545f52 	svcpl	0x00545f52
    7c20:	4c434544 	cfstr64mi	mvdx4, [r3], {68}	; 0x44
    7c24:	44455241 	strbmi	r5, [r5], #-577	; 0xfffffdbf
    7c28:	495f0020 	ldmdbmi	pc, {r5}^	; <UNPREDICTABLE>
    7c2c:	46424c4f 	strbmi	r4, [r2], -pc, asr #24
    7c30:	42003120 	andmi	r3, r0, #32, 2
    7c34:	00525253 	subseq	r5, r2, r3, asr r2
    7c38:	53465542 	movtpl	r5, #25922	; 0x6542
    7c3c:	31205a49 			; <UNDEFINED> instruction: 0x31205a49
    7c40:	00343230 	eorseq	r3, r4, r0, lsr r2
    7c44:	41465f5f 	cmpmi	r6, pc, asr pc
    7c48:	32335453 	eorscc	r5, r3, #1392508928	; 0x53000000
    7c4c:	636c0020 	cmnvs	ip, #32
    7c50:	696b5f64 	stmdbvs	fp!, {r2, r5, r6, r8, r9, sl, fp, ip, lr}^
    7c54:	5f006b63 	svcpl	0x00006b63
    7c58:	4749535f 	smlsldmi	r5, r9, pc, r3	; <UNPREDICTABLE>
    7c5c:	4f54415f 	svcmi	0x0054415f
    7c60:	5f43494d 	svcpl	0x0043494d
    7c64:	54444957 	strbpl	r4, [r4], #-2391	; 0xfffff6a9
    7c68:	205f5f48 	subscs	r5, pc, r8, asr #30
    7c6c:	5f003233 	svcpl	0x00003233
    7c70:	544c465f 	strbpl	r4, [ip], #-1631	; 0xfffff9a1
    7c74:	455f3436 	ldrbmi	r3, [pc, #-1078]	; 7846 <_Min_Stack_Size+0x7446>
    7c78:	4c495350 	mcrrmi	3, 5, r5, r9, cr0
    7c7c:	5f5f4e4f 	svcpl	0x005f4e4f
    7c80:	322e3220 	eorcc	r3, lr, #32, 4
    7c84:	34343032 	ldrtcc	r3, [r4], #-50	; 0xffffffce
    7c88:	39343036 	ldmdbcc	r4!, {r1, r2, r4, r5, ip, sp}
    7c8c:	33303532 	teqcc	r0, #209715200	; 0xc800000
    7c90:	65313331 	ldrvs	r3, [r1, #-817]!	; 0xfffffccf
    7c94:	4636312d 	ldrtmi	r3, [r6], -sp, lsr #2
    7c98:	5f003436 	svcpl	0x00003436
    7c9c:	4e454552 	mcrmi	5, 2, r4, cr5, cr2, {2}
    7ca0:	4e495f54 	mcrmi	15, 2, r5, cr9, cr4, {2}
    7ca4:	415f5449 	cmpmi	pc, r9, asr #8
    7ca8:	49584554 	ldmdbmi	r8, {r2, r4, r6, r8, sl, lr}^
    7cac:	5f002054 	svcpl	0x00002054
    7cb0:	554e475f 	strbpl	r4, [lr, #-1887]	; 0xfffff8a1
    7cb4:	52505f43 	subspl	r5, r0, #268	; 0x10c
    7cb8:	51455245 	cmppl	r5, r5, asr #4
    7cbc:	6d285f5f 	stcvs	15, cr5, [r8, #-380]!	; 0xfffffe84
    7cc0:	696d2c61 	stmdbvs	sp!, {r0, r5, r6, sl, fp, sp}^
    7cc4:	5f5f2029 	svcpl	0x005f2029
    7cc8:	43554e47 	cmpmi	r5, #1136	; 0x470
    7ccc:	4552505f 	ldrbmi	r5, [r2, #-95]	; 0xffffffa1
    7cd0:	28514552 	ldmdacs	r1, {r1, r4, r6, r8, sl, lr}^
    7cd4:	202c616d 	eorcs	r6, ip, sp, ror #2
    7cd8:	0029696d 	eoreq	r6, r9, sp, ror #18
    7cdc:	54555f5f 	ldrbpl	r5, [r5], #-3935	; 0xfffff0a1
    7ce0:	42495f41 	submi	r5, r9, #260	; 0x104
    7ce4:	5f5f5449 	svcpl	0x005f5449
    7ce8:	00343620 	eorseq	r3, r4, r0, lsr #12
    7cec:	52415f5f 	subpl	r5, r1, #380	; 0x17c
    7cf0:	45465f4d 	strbmi	r5, [r6, #-3917]	; 0xfffff0b3
    7cf4:	52555441 	subspl	r5, r5, #1090519040	; 0x41000000
    7cf8:	52435f45 	subpl	r5, r3, #276	; 0x114
    7cfc:	00323343 	eorseq	r3, r2, r3, asr #6
    7d00:	74735f5f 	ldrbtvc	r5, [r3], #-3935	; 0xfffff0a1
    7d04:	676e6f72 			; <UNDEFINED> instruction: 0x676e6f72
    7d08:	6665725f 			; <UNDEFINED> instruction: 0x6665725f
    7d0c:	6e657265 	cdpvs	2, 6, cr7, cr5, cr5, {3}
    7d10:	73286563 			; <UNDEFINED> instruction: 0x73286563
    7d14:	612c6d79 			; <UNDEFINED> instruction: 0x612c6d79
    7d18:	7361696c 	cmnvc	r1, #108, 18	; 0x1b0000
    7d1c:	296d7973 	stmdbcs	sp!, {r0, r1, r4, r5, r6, r8, fp, ip, sp, lr}^
    7d20:	74786520 	ldrbtvc	r6, [r8], #-1312	; 0xfffffae0
    7d24:	206e7265 	rsbcs	r7, lr, r5, ror #4
    7d28:	79745f5f 	ldmdbvc	r4!, {r0, r1, r2, r3, r4, r6, r8, r9, sl, fp, ip, lr}^
    7d2c:	666f6570 			; <UNDEFINED> instruction: 0x666f6570
    7d30:	79732820 	ldmdbvc	r3!, {r5, fp, sp}^
    7d34:	6120296d 			; <UNDEFINED> instruction: 0x6120296d
    7d38:	7361696c 	cmnvc	r1, #108, 18	; 0x1b0000
    7d3c:	206d7973 	rsbcs	r7, sp, r3, ror r9
    7d40:	74615f5f 	strbtvc	r5, [r1], #-3935	; 0xfffff0a1
    7d44:	62697274 	rsbvs	r7, r9, #116, 4	; 0x40000007
    7d48:	5f657475 	svcpl	0x00657475
    7d4c:	2828205f 	stmdacs	r8!, {r0, r1, r2, r3, r4, r6, sp}
    7d50:	6c615f5f 	stclvs	15, cr5, [r1], #-380	; 0xfffffe84
    7d54:	5f736169 	svcpl	0x00736169
    7d58:	2328205f 			; <UNDEFINED> instruction: 0x2328205f
    7d5c:	296d7973 	stmdbcs	sp!, {r0, r1, r4, r5, r6, r8, fp, ip, sp, lr}^
    7d60:	5f002929 	svcpl	0x00002929
    7d64:	4c4c555f 	cfstr64mi	mvdx5, [ip], {95}	; 0x5f
    7d68:	43415246 	movtmi	r5, #4678	; 0x1246
    7d6c:	50455f54 	subpl	r5, r5, r4, asr pc
    7d70:	4f4c4953 	svcmi	0x004c4953
    7d74:	205f5f4e 	subscs	r5, pc, lr, asr #30
    7d78:	50317830 	eorspl	r7, r1, r0, lsr r8
    7d7c:	5534362d 	ldrpl	r3, [r4, #-1581]!	; 0xfffff9d3
    7d80:	00524c4c 	subseq	r4, r2, ip, asr #24
    7d84:	4d49545f 	cfstrdmi	mvd5, [r9, #-380]	; 0xfffffe84
    7d88:	545f5245 	ldrbpl	r5, [pc], #-581	; 7d90 <_Min_Stack_Size+0x7990>
    7d8c:	6e75205f 	mrcvs	0, 3, r2, cr5, cr15, {2}
    7d90:	6e676973 			; <UNDEFINED> instruction: 0x6e676973
    7d94:	6c206465 	cfstrsvs	mvf6, [r0], #-404	; 0xfffffe6c
    7d98:	00676e6f 	rsbeq	r6, r7, pc, ror #28
    7d9c:	4155515f 	cmpmi	r5, pc, asr r1
    7da0:	49485f44 	stmdbmi	r8, {r2, r6, r8, r9, sl, fp, ip, lr}^
    7da4:	4f574847 	svcmi	0x00574847
    7da8:	31204452 			; <UNDEFINED> instruction: 0x31204452
    7dac:	535f5f00 	cmppl	pc, #0, 30
    7db0:	4f455a49 	svcmi	0x00455a49
    7db4:	49575f46 	ldmdbmi	r7, {r1, r2, r6, r8, r9, sl, fp, ip, lr}^
    7db8:	545f544e 	ldrbpl	r5, [pc], #-1102	; 7dc0 <_Min_Stack_Size+0x79c0>
    7dbc:	34205f5f 	strtcc	r5, [r0], #-3935	; 0xfffff0a1
    7dc0:	415f5f00 	cmpmi	pc, r0, lsl #30
    7dc4:	465f4d52 			; <UNDEFINED> instruction: 0x465f4d52
    7dc8:	55544145 	ldrbpl	r4, [r4, #-325]	; 0xfffffebb
    7dcc:	555f4552 	ldrbpl	r4, [pc, #-1362]	; 7882 <_Min_Stack_Size+0x7482>
    7dd0:	494c414e 	stmdbmi	ip, {r1, r2, r3, r6, r8, lr}^
    7dd4:	44454e47 	strbmi	r4, [r5], #-3655	; 0xfffff1b9
    7dd8:	5f003120 	svcpl	0x00003120
    7ddc:	4454535f 	ldrbmi	r5, [r4], #-863	; 0xfffffca1
    7de0:	205f5f43 	subscs	r5, pc, r3, asr #30
    7de4:	5f5f0031 	svcpl	0x005f0031
    7de8:	4c42444c 	cfstrdmi	mvd4, [r2], {76}	; 0x4c
    7dec:	4345445f 	movtmi	r4, #21599	; 0x545f
    7df0:	4c414d49 	mcrrmi	13, 4, r4, r1, cr9
    7df4:	4749445f 	smlsldmi	r4, r9, pc, r4	; <UNPREDICTABLE>
    7df8:	31205f5f 			; <UNDEFINED> instruction: 0x31205f5f
    7dfc:	636c0037 	cmnvs	ip, #55	; 0x37
    7e00:	65735f64 	ldrbvs	r5, [r3, #-3940]!	; 0xfffff09c
    7e04:	635f646e 	cmpvs	pc, #1845493760	; 0x6e000000
    7e08:	616d6d6f 	cmnvs	sp, pc, ror #26
    7e0c:	5f00646e 	svcpl	0x0000646e
    7e10:	554e475f 	strbpl	r4, [lr, #-1887]	; 0xfffff8a1
    7e14:	4b494c43 	blmi	125af28 <_Min_Stack_Size+0x125ab28>
    7e18:	53415f45 	movtpl	r5, #8005	; 0x1f45
    7e1c:	0033204d 	eorseq	r2, r3, sp, asr #32
    7e20:	414c5f5f 	cmpmi	ip, pc, asr pc
    7e24:	4d554343 	ldclmi	3, cr4, [r5, #-268]	; 0xfffffef4
    7e28:	4e494d5f 	mcrmi	13, 2, r4, cr9, cr15, {2}
    7e2c:	28205f5f 	stmdacs	r0!, {r0, r1, r2, r3, r4, r6, r8, r9, sl, fp, ip, lr}
    7e30:	3158302d 	cmpcc	r8, sp, lsr #32
    7e34:	4c313350 	ldcmi	3, cr3, [r1], #-320	; 0xfffffec0
    7e38:	58302d4b 	ldmdapl	r0!, {r0, r1, r3, r6, r8, sl, fp, sp}
    7e3c:	31335031 	teqcc	r3, r1, lsr r0
    7e40:	00294b4c 	eoreq	r4, r9, ip, asr #22
    7e44:	4e495f5f 	mcrmi	15, 2, r5, cr9, cr15, {2}
    7e48:	41465f54 	cmpmi	r6, r4, asr pc
    7e4c:	5f385453 	svcpl	0x00385453
    7e50:	5f58414d 	svcpl	0x0058414d
    7e54:	7830205f 	ldmdavc	r0!, {r0, r1, r2, r3, r4, r6, sp}
    7e58:	66666637 			; <UNDEFINED> instruction: 0x66666637
    7e5c:	66666666 	strbtvs	r6, [r6], -r6, ror #12
    7e60:	465f5f00 	ldrbmi	r5, [pc], -r0, lsl #30
    7e64:	3233544c 	eorscc	r5, r3, #76, 8	; 0x4c000000
    7e68:	5341485f 	movtpl	r4, #6239	; 0x185f
    7e6c:	4e45445f 	mcrmi	4, 2, r4, cr5, cr15, {2}
    7e70:	5f4d524f 	svcpl	0x004d524f
    7e74:	0031205f 	eorseq	r2, r1, pc, asr r0
    7e78:	63735f5f 	cmnvs	r3, #380	; 0x17c
    7e7c:	6c666e61 	stclvs	14, cr6, [r6], #-388	; 0xfffffe7c
    7e80:	28656b69 	stmdacs	r5!, {r0, r3, r5, r6, r8, r9, fp, sp, lr}^
    7e84:	61746d66 	cmnvs	r4, r6, ror #26
    7e88:	662c6772 			; <UNDEFINED> instruction: 0x662c6772
    7e8c:	74737269 	ldrbtvc	r7, [r3], #-617	; 0xfffffd97
    7e90:	61726176 	cmnvs	r2, r6, ror r1
    7e94:	20296772 	eorcs	r6, r9, r2, ror r7
    7e98:	74615f5f 	strbtvc	r5, [r1], #-3935	; 0xfffff0a1
    7e9c:	62697274 	rsbvs	r7, r9, #116, 4	; 0x40000007
    7ea0:	5f657475 	svcpl	0x00657475
    7ea4:	5f28285f 	svcpl	0x0028285f
    7ea8:	726f665f 	rsbvc	r6, pc, #99614720	; 0x5f00000
    7eac:	5f74616d 	svcpl	0x0074616d
    7eb0:	5f28205f 	svcpl	0x0028205f
    7eb4:	6163735f 	cmnvs	r3, pc, asr r3
    7eb8:	5f5f666e 	svcpl	0x005f666e
    7ebc:	6d66202c 	stclvs	0, cr2, [r6, #-176]!	; 0xffffff50
    7ec0:	67726174 			; <UNDEFINED> instruction: 0x67726174
    7ec4:	6966202c 	stmdbvs	r6!, {r2, r3, r5, sp}^
    7ec8:	76747372 			; <UNDEFINED> instruction: 0x76747372
    7ecc:	72617261 	rsbvc	r7, r1, #268435462	; 0x10000006
    7ed0:	29292967 	stmdbcs	r9!, {r0, r1, r2, r5, r6, r8, fp, sp}
    7ed4:	45525f00 	ldrbmi	r5, [r2, #-3840]	; 0xfffff100
    7ed8:	5f544e45 	svcpl	0x00544e45
    7edc:	4c414d53 	mcrrmi	13, 5, r4, r1, cr3
    7ee0:	4700204c 	strmi	r2, [r0, -ip, asr #32]
    7ee4:	5f4f4950 	svcpl	0x004f4950
    7ee8:	45444f4d 	strbmi	r4, [r4, #-3917]	; 0xfffff0b3
    7eec:	54554f5f 	ldrbpl	r4, [r5], #-3935	; 0xfffff0a1
    7ef0:	5f545550 	svcpl	0x00545550
    7ef4:	505f4641 	subspl	r4, pc, r1, asr #12
    7ef8:	78302050 	ldmdavc	r0!, {r4, r6, sp}
    7efc:	30303030 	eorscc	r3, r0, r0, lsr r0
    7f00:	36303030 			; <UNDEFINED> instruction: 0x36303030
    7f04:	5f5f0075 	svcpl	0x005f0075
    7f08:	414c4c55 	cmpmi	ip, r5, asr ip
    7f0c:	4d554343 	ldclmi	3, cr4, [r5, #-268]	; 0xfffffef4
    7f10:	4e494d5f 	mcrmi	13, 2, r4, cr9, cr15, {2}
    7f14:	30205f5f 	eorcc	r5, r0, pc, asr pc
    7f18:	4c55302e 	mrrcmi	0, 2, r3, r5, cr14
    7f1c:	5f004b4c 	svcpl	0x00004b4c
    7f20:	5f535953 	svcpl	0x00535953
    7f24:	5059545f 	subspl	r5, r9, pc, asr r4
    7f28:	485f5345 	ldmdami	pc, {r0, r2, r6, r8, r9, ip, lr}^	; <UNPREDICTABLE>
    7f2c:	415f0020 	cmpmi	pc, r0, lsr #32
    7f30:	49584554 	ldmdbmi	r8, {r2, r4, r6, r8, sl, lr}^
    7f34:	4e495f54 	mcrmi	15, 2, r5, cr9, cr4, {2}
    7f38:	7b205449 	blvc	81d064 <_Min_Stack_Size+0x81cc64>
    7f3c:	4c554e5f 	mrrcmi	14, 5, r4, r5, cr15
    7f40:	30202c4c 	eorcc	r2, r0, ip, asr #24
    7f44:	5f7b202c 	svcpl	0x007b202c
    7f48:	4c4c554e 	cfstr64mi	mvdx5, [ip], {78}	; 0x4e
    7f4c:	5f202c7d 	svcpl	0x00202c7d
    7f50:	4c4c554e 	cfstr64mi	mvdx5, [ip], {78}	; 0x4e
    7f54:	535f007d 	cmppl	pc, #125	; 0x7d
    7f58:	435f5359 	cmpmi	pc, #1677721601	; 0x64000001
    7f5c:	53464544 	movtpl	r4, #25924	; 0x6544
    7f60:	205f485f 	subscs	r4, pc, pc, asr r8	; <UNPREDICTABLE>
    7f64:	41525f00 	cmpmi	r2, r0, lsl #30
    7f68:	3834444e 	ldmdacc	r4!, {r1, r2, r3, r6, sl, lr}
    7f6c:	4c554d5f 	mrrcmi	13, 5, r4, r5, cr15
    7f70:	20305f54 	eorscs	r5, r0, r4, asr pc
    7f74:	65783028 	ldrbvs	r3, [r8, #-40]!	; 0xffffffd8
    7f78:	29643636 	stmdbcs	r4!, {r1, r2, r4, r5, r9, sl, ip, sp}^
    7f7c:	475f5f00 	ldrbmi	r5, [pc, -r0, lsl #30]
    7f80:	4c43554e 	cfstr64mi	mvdx5, [r3], {78}	; 0x4e
    7f84:	5f454b49 	svcpl	0x00454b49
    7f88:	4c495542 	cfstr64mi	mvdx5, [r9], {66}	; 0x42
    7f8c:	5f4e4954 	svcpl	0x004e4954
    7f90:	4c414156 	stfmie	f4, [r1], {86}	; 0x56
    7f94:	20545349 	subscs	r5, r4, r9, asr #6
    7f98:	4e5f0031 	mrcmi	0, 2, r0, cr15, cr1, {1}
    7f9c:	494c5745 	stmdbmi	ip, {r0, r2, r6, r8, r9, sl, ip, lr}^
    7fa0:	4c415f42 	mcrrmi	15, 4, r5, r1, cr2
    7fa4:	41434f4c 	cmpmi	r3, ip, asr #30
    7fa8:	0020485f 	eoreq	r4, r0, pc, asr r8
    7fac:	4e495f5f 	mcrmi	15, 2, r5, cr9, cr15, {2}
    7fb0:	20323354 	eorscs	r3, r2, r4, asr r3
    7fb4:	00226c22 	eoreq	r6, r2, r2, lsr #24
    7fb8:	52415f5f 	subpl	r5, r1, #380	; 0x17c
    7fbc:	53415f4d 	movtpl	r5, #8013	; 0x1f4d
    7fc0:	59535f4d 	ldmdbpl	r3, {r0, r2, r3, r6, r8, r9, sl, fp, ip, lr}^
    7fc4:	5841544e 	stmdapl	r1, {r1, r2, r3, r6, sl, ip, lr}^
    7fc8:	494e555f 	stmdbmi	lr, {r0, r1, r2, r3, r4, r6, r8, sl, ip, lr}^
    7fcc:	44454946 	strbmi	r4, [r5], #-2374	; 0xfffff6ba
    7fd0:	31205f5f 			; <UNDEFINED> instruction: 0x31205f5f
    7fd4:	705f5f00 	subsvc	r5, pc, r0, lsl #30
    7fd8:	745f7274 	ldrbvc	r7, [pc], #-628	; 7fe0 <_Min_Stack_Size+0x7be0>
    7fdc:	696f7620 	stmdbvs	pc!, {r5, r9, sl, ip, sp, lr}^	; <UNPREDICTABLE>
    7fe0:	002a2064 	eoreq	r2, sl, r4, rrx
    7fe4:	49555f5f 	ldmdbmi	r5, {r0, r1, r2, r3, r4, r6, r8, r9, sl, fp, ip, lr}^
    7fe8:	3233544e 	eorscc	r5, r3, #1308622848	; 0x4e000000
    7fec:	5059545f 	subspl	r5, r9, pc, asr r4
    7ff0:	205f5f45 	subscs	r5, pc, r5, asr #30
    7ff4:	676e6f6c 	strbvs	r6, [lr, -ip, ror #30]!
    7ff8:	736e7520 	cmnvc	lr, #32, 10	; 0x8000000
    7ffc:	656e6769 	strbvs	r6, [lr, #-1897]!	; 0xfffff897
    8000:	6e692064 	cdpvs	0, 6, cr2, cr9, cr4, {3}
    8004:	46410074 			; <UNDEFINED> instruction: 0x46410074
    8008:	28204f49 	stmdacs	r0!, {r0, r3, r6, r8, r9, sl, fp, lr}
    800c:	49464128 	stmdbmi	r6, {r3, r5, r8, lr}^
    8010:	20745f4f 	rsbscs	r5, r4, pc, asr #30
    8014:	4641292a 	strbmi	r2, [r1], -sl, lsr #18
    8018:	425f4f49 	subsmi	r4, pc, #292	; 0x124
    801c:	29455341 	stmdbcs	r5, {r0, r6, r8, r9, ip, lr}^
    8020:	415f5f00 	cmpmi	pc, r0, lsl #30
    8024:	465f4d52 			; <UNDEFINED> instruction: 0x465f4d52
    8028:	55544145 	ldrbpl	r4, [r4, #-325]	; 0xfffffebb
    802c:	445f4552 	ldrbmi	r4, [pc], #-1362	; 8034 <_Min_Stack_Size+0x7c34>
    8030:	5250544f 	subspl	r5, r0, #1325400064	; 0x4f000000
    8034:	5f00444f 	svcpl	0x0000444f
    8038:	7568745f 	strbvc	r7, [r8, #-1119]!	; 0xfffffba1
    803c:	5f32626d 	svcpl	0x0032626d
    8040:	0031205f 	eorseq	r2, r1, pc, asr r0
    8044:	4645445f 			; <UNDEFINED> instruction: 0x4645445f
    8048:	544c5541 	strbpl	r5, [ip], #-1345	; 0xfffffabf
    804c:	554f535f 	strbpl	r5, [pc, #-863]	; 7cf5 <_Min_Stack_Size+0x78f5>
    8050:	00454352 	subeq	r4, r5, r2, asr r3
    8054:	726f6873 	rsbvc	r6, pc, #7536640	; 0x730000
    8058:	312b2074 			; <UNDEFINED> instruction: 0x312b2074
    805c:	43475f00 	movtmi	r5, #32512	; 0x7f00
    8060:	49535f43 	ldmdbmi	r3, {r0, r1, r6, r8, r9, sl, fp, ip, lr}^
    8064:	545f455a 	ldrbpl	r4, [pc], #-1370	; 806c <_Min_Stack_Size+0x7c6c>
    8068:	5f5f0020 	svcpl	0x005f0020
    806c:	535f4343 	cmppl	pc, #201326593	; 0xc000001
    8070:	4f505055 	svcmi	0x00505055
    8074:	5f535452 	svcpl	0x00535452
    8078:	4e524157 	mrcmi	1, 2, r4, cr2, cr7, {2}
    807c:	20474e49 	subcs	r4, r7, r9, asr #28
    8080:	5f5f0031 	svcpl	0x005f0031
    8084:	544e4957 	strbpl	r4, [lr], #-2391	; 0xfffff6a9
    8088:	4449575f 	strbmi	r5, [r9], #-1887	; 0xfffff8a1
    808c:	5f5f4854 	svcpl	0x005f4854
    8090:	00323320 	eorseq	r3, r2, r0, lsr #6
    8094:	4c555f5f 	mrrcmi	15, 5, r5, r5, cr15	; <UNPREDICTABLE>
    8098:	4152464c 	cmpmi	r2, ip, asr #12
    809c:	4d5f5443 	cfldrdmi	mvd5, [pc, #-268]	; 7f98 <_Min_Stack_Size+0x7b98>
    80a0:	5f5f4e49 	svcpl	0x005f4e49
    80a4:	302e3020 	eorcc	r3, lr, r0, lsr #32
    80a8:	524c4c55 	subpl	r4, ip, #21760	; 0x5500
    80ac:	73795300 	cmnvc	r9, #0, 6
    80b0:	5f6d6574 	svcpl	0x006d6574
    80b4:	6f6d654d 	svcvs	0x006d654d
    80b8:	425f7972 	subsmi	r7, pc, #1867776	; 0x1c8000
    80bc:	20455341 	subcs	r5, r5, r1, asr #6
    80c0:	46317830 			; <UNDEFINED> instruction: 0x46317830
    80c4:	30464646 	subcc	r4, r6, r6, asr #12
    80c8:	4c553030 	mrrcmi	0, 3, r3, r5, cr0
    80cc:	4e495f00 	cdpmi	15, 4, cr5, cr9, cr0, {0}
    80d0:	545f3854 	ldrbpl	r3, [pc], #-2132	; 80d8 <_Min_Stack_Size+0x7cd8>
    80d4:	4345445f 	movtmi	r4, #21599	; 0x545f
    80d8:	4552414c 	ldrbmi	r4, [r2, #-332]	; 0xfffffeb4
    80dc:	5f002044 	svcpl	0x00002044
    80e0:	33544e49 	cmpcc	r4, #1168	; 0x490
    80e4:	5f545f32 	svcpl	0x00545f32
    80e8:	4c434544 	cfstr64mi	mvdx4, [r3], {68}	; 0x44
    80ec:	44455241 	strbmi	r5, [r5], #-577	; 0xfffffdbf
    80f0:	5f5f0020 	svcpl	0x005f0020
    80f4:	455a4953 	ldrbmi	r4, [sl, #-2387]	; 0xfffff6ad
    80f8:	495f464f 	ldmdbmi	pc, {r0, r1, r2, r3, r6, r9, sl, lr}^	; <UNPREDICTABLE>
    80fc:	5f5f544e 	svcpl	0x005f544e
    8100:	5f003420 	svcpl	0x00003420
    8104:	5f445342 	svcpl	0x00445342
    8108:	41484357 	cmpmi	r8, r7, asr r3
    810c:	5f545f52 	svcpl	0x00545f52
    8110:	4c5f5f00 	mrrcmi	15, 0, r5, pc, cr0	; <UNPREDICTABLE>
    8114:	4152464c 	cmpmi	r2, ip, asr #12
    8118:	495f5443 	ldmdbmi	pc, {r0, r1, r6, sl, ip, lr}^	; <UNPREDICTABLE>
    811c:	5f544942 	svcpl	0x00544942
    8120:	0030205f 	eorseq	r2, r0, pc, asr r0
    8124:	43435f5f 	movtmi	r5, #16223	; 0x3f5f
    8128:	5055535f 	subspl	r5, r5, pc, asr r3
    812c:	54524f50 	ldrbpl	r4, [r2], #-3920	; 0xfffff0b0
    8130:	41565f53 	cmpmi	r6, r3, asr pc
    8134:	49444152 	stmdbmi	r4, {r1, r4, r6, r8, lr}^
    8138:	58585f43 	ldmdapl	r8, {r0, r1, r6, r8, r9, sl, fp, ip, lr}^
    813c:	00312058 	eorseq	r2, r1, r8, asr r0
    8140:	6e727473 	mrcvs	4, 3, r7, cr2, cr3, {3}
    8144:	69706d63 	ldmdbvs	r0!, {r0, r1, r5, r6, r8, sl, fp, sp, lr}^
    8148:	72747320 	rsbsvc	r7, r4, #32, 6	; 0x80000000
    814c:	7361636e 	cmnvc	r1, #-1207959551	; 0xb8000001
    8150:	706d6365 	rsbvc	r6, sp, r5, ror #6
    8154:	59535f00 	ldmdbpl	r3, {r8, r9, sl, fp, ip, lr}^
    8158:	495f5f53 	ldmdbmi	pc, {r0, r1, r4, r6, r8, r9, sl, fp, ip, lr}^	; <UNPREDICTABLE>
    815c:	5553544e 	ldrbpl	r5, [r3, #-1102]	; 0xfffffbb2
    8160:	20485f50 	subcs	r5, r8, r0, asr pc
    8164:	49464100 	stmdbmi	r6, {r8, lr}^
    8168:	41425f4f 	cmpmi	r2, pc, asr #30
    816c:	28204553 	stmdacs	r0!, {r0, r1, r4, r6, r8, sl, lr}
    8170:	69726550 	ldmdbvs	r2!, {r4, r6, r8, sl, sp, lr}^
    8174:	72656870 	rsbvc	r6, r5, #112, 16	; 0x700000
    8178:	5f736c61 	svcpl	0x00736c61
    817c:	45534142 	ldrbmi	r4, [r3, #-322]	; 0xfffffebe
    8180:	30202b20 	eorcc	r2, r0, r0, lsr #22
    8184:	30303078 	eorscc	r3, r0, r8, ror r0
    8188:	30303031 	eorscc	r3, r0, r1, lsr r0
    818c:	294c5530 	stmdbcs	ip, {r4, r5, r8, sl, ip, lr}^
    8190:	535f5f00 	cmppl	pc, #0, 30
    8194:	55434341 	strbpl	r4, [r3, #-833]	; 0xfffffcbf
    8198:	50455f4d 	subpl	r5, r5, sp, asr #30
    819c:	4f4c4953 	svcmi	0x004c4953
    81a0:	205f5f4e 	subscs	r5, pc, lr, asr #30
    81a4:	50317830 	eorspl	r7, r1, r0, lsr r8
    81a8:	4b48372d 	blmi	1215e64 <_Min_Stack_Size+0x1215a64>
    81ac:	475f5f00 	ldrbmi	r5, [pc, -r0, lsl #30]
    81b0:	415f4343 	cmpmi	pc, r3, asr #6
    81b4:	465f4d53 			; <UNDEFINED> instruction: 0x465f4d53
    81b8:	5f47414c 	svcpl	0x0047414c
    81bc:	5054554f 	subspl	r5, r4, pc, asr #10
    81c0:	5f535455 	svcpl	0x00535455
    81c4:	0031205f 	eorseq	r2, r1, pc, asr r0
    81c8:	4545525f 	strbmi	r5, [r5, #-607]	; 0xfffffda1
    81cc:	435f544e 	cmpmi	pc, #1308622848	; 0x4e000000
    81d0:	4b434548 	blmi	10d96f8 <_Min_Stack_Size+0x10d92f8>
    81d4:	5245565f 	subpl	r5, r5, #99614720	; 0x5f00000
    81d8:	20594649 	subscs	r4, r9, r9, asr #12
    81dc:	505f0031 	subspl	r0, pc, r1, lsr r0	; <UNPREDICTABLE>
    81e0:	5849534f 	stmdapl	r9, {r0, r1, r2, r3, r6, r8, r9, ip, lr}^
    81e4:	554f535f 	strbpl	r5, [pc, #-863]	; 7e8d <_Min_Stack_Size+0x7a8d>
    81e8:	20454352 	subcs	r4, r5, r2, asr r3
    81ec:	50470031 	subpl	r0, r7, r1, lsr r0
    81f0:	4d5f4f49 	ldclmi	15, cr4, [pc, #-292]	; 80d4 <_Min_Stack_Size+0x7cd4>
    81f4:	5f45444f 	svcpl	0x0045444f
    81f8:	495f4641 	ldmdbmi	pc, {r0, r6, r9, sl, lr}^	; <UNPREDICTABLE>
    81fc:	5455504e 	ldrbpl	r5, [r5], #-78	; 0xffffffb2
    8200:	30783020 	rsbscc	r3, r8, r0, lsr #32
    8204:	30303030 	eorscc	r3, r0, r0, lsr r0
    8208:	75383030 	ldrvc	r3, [r8, #-48]!	; 0xffffffd0
    820c:	555f5f00 	ldrbpl	r5, [pc, #-3840]	; 7314 <_Min_Stack_Size+0x6f14>
    8210:	5f544e49 	svcpl	0x00544e49
    8214:	54534146 	ldrbpl	r4, [r3], #-326	; 0xfffffeba
    8218:	545f3631 	ldrbpl	r3, [pc], #-1585	; 8220 <_Min_Stack_Size+0x7e20>
    821c:	5f455059 	svcpl	0x00455059
    8220:	6e75205f 	mrcvs	0, 3, r2, cr5, cr15, {2}
    8224:	6e676973 			; <UNDEFINED> instruction: 0x6e676973
    8228:	69206465 	stmdbvs	r0!, {r0, r2, r5, r6, sl, sp, lr}
    822c:	5f00746e 	svcpl	0x0000746e
    8230:	4e454552 	mcrmi	5, 2, r4, cr5, cr2, {2}
    8234:	424d5f54 	submi	r5, sp, #84, 30	; 0x150
    8238:	5f4e454c 	svcpl	0x004e454c
    823c:	54415453 	strbpl	r5, [r1], #-1107	; 0xfffffbad
    8240:	74702845 	ldrbtvc	r2, [r0], #-2117	; 0xfffff7bb
    8244:	28202972 	stmdacs	r0!, {r1, r4, r5, r6, r8, fp, sp}
    8248:	72747028 	rsbsvc	r7, r4, #40	; 0x28
    824c:	5f3e2d29 	svcpl	0x003e2d29
    8250:	6373696d 	cmnvs	r3, #1785856	; 0x1b4000
    8254:	6d5f3e2d 	ldclvs	14, cr3, [pc, #-180]	; 81a8 <_Min_Stack_Size+0x7da8>
    8258:	6e656c62 	cdpvs	12, 6, cr6, cr5, cr2, {3}
    825c:	6174735f 	cmnvs	r4, pc, asr r3
    8260:	00296574 	eoreq	r6, r9, r4, ror r5
    8264:	4e475f5f 	mcrmi	15, 2, r5, cr7, cr15, {2}
    8268:	535f4355 	cmppl	pc, #1409286145	; 0x54000001
    826c:	5f434454 	svcpl	0x00434454
    8270:	494c4e49 	stmdbmi	ip, {r0, r3, r6, r9, sl, fp, lr}^
    8274:	5f5f454e 	svcpl	0x005f454e
    8278:	5f003120 	svcpl	0x00003120
    827c:	65656e5f 	strbvs	r6, [r5, #-3679]!	; 0xfffff1a1
    8280:	69775f64 	ldmdbvs	r7!, {r2, r5, r6, r8, r9, sl, fp, ip, lr}^
    8284:	745f746e 	ldrbvc	r7, [pc], #-1134	; 828c <_Min_Stack_Size+0x7e8c>
    8288:	5f5f0020 	svcpl	0x005f0020
    828c:	55434341 	strbpl	r4, [r3, #-833]	; 0xfffffcbf
    8290:	50455f4d 	subpl	r5, r5, sp, asr #30
    8294:	4f4c4953 	svcmi	0x004c4953
    8298:	205f5f4e 	subscs	r5, pc, lr, asr #30
    829c:	50317830 	eorspl	r7, r1, r0, lsr r8
    82a0:	4b35312d 	blmi	d5475c <_Min_Stack_Size+0xd5435c>
    82a4:	555f5f00 	ldrbpl	r5, [pc, #-3840]	; 73ac <_Min_Stack_Size+0x6fac>
    82a8:	4343414c 	movtmi	r4, #12620	; 0x314c
    82ac:	455f4d55 	ldrbmi	r4, [pc, #-3413]	; 755f <_Min_Stack_Size+0x715f>
    82b0:	4c495350 	mcrrmi	3, 5, r5, r9, cr0
    82b4:	5f5f4e4f 	svcpl	0x005f4e4f
    82b8:	31783020 	cmncc	r8, r0, lsr #32
    82bc:	32332d50 	eorscc	r2, r3, #80, 26	; 0x1400
    82c0:	004b4c55 	subeq	r4, fp, r5, asr ip
    82c4:	444c5f5f 	strbmi	r5, [ip], #-3935	; 0xfffff0a1
    82c8:	445f4c42 	ldrbmi	r4, [pc], #-3138	; 82d0 <_Min_Stack_Size+0x7ed0>
    82cc:	5f5f4749 	svcpl	0x005f4749
    82d0:	00353120 	eorseq	r3, r5, r0, lsr #2
    82d4:	5f44434c 	svcpl	0x0044434c
    82d8:	505f4e45 	subspl	r4, pc, r5, asr #28
    82dc:	32204e49 	eorcc	r4, r0, #1168	; 0x490
    82e0:	44434c00 	strbmi	r4, [r3], #-3072	; 0xfffff400
    82e4:	5349445f 	movtpl	r4, #37983	; 0x945f
    82e8:	59414c50 	stmdbpl	r1, {r4, r6, sl, fp, lr}^
    82ec:	4948535f 	stmdbmi	r8, {r0, r1, r2, r3, r4, r6, r8, r9, ip, lr}^
    82f0:	525f5446 	subspl	r5, pc, #1174405120	; 0x46000000
    82f4:	54484749 	strbpl	r4, [r8], #-1865	; 0xfffff8b7
    82f8:	31783020 	cmncc	r8, r0, lsr #32
    82fc:	5f5f0043 	svcpl	0x005f0043
    8300:	455a4953 	ldrbmi	r4, [sl, #-2387]	; 0xfffff6ad
    8304:	4449575f 	strbmi	r5, [r9], #-1887	; 0xfffff8a1
    8308:	5f5f4854 	svcpl	0x005f4854
    830c:	00323320 	eorseq	r3, r2, r0, lsr #6
    8310:	66735f5f 	uhsaxvs	r5, r3, pc	; <UNPREDICTABLE>
    8314:	6e656c69 	cdpvs	12, 6, cr6, cr5, cr9, {3}
    8318:	2970286f 	ldmdbcs	r0!, {r0, r1, r2, r3, r5, r6, fp, sp}^
    831c:	70282820 	eorvc	r2, r8, r0, lsr #16
    8320:	5f3e2d29 	svcpl	0x003e2d29
    8324:	656c6966 	strbvs	r6, [ip, #-2406]!	; 0xfffff69a
    8328:	525f0029 	subspl	r0, pc, #41	; 0x29
    832c:	544e4545 	strbpl	r4, [lr], #-1349	; 0xfffffabb
    8330:	5f504d5f 	svcpl	0x00504d5f
    8334:	55534552 	ldrbpl	r4, [r3, #-1362]	; 0xfffffaae
    8338:	7028544c 	eorvc	r5, r8, ip, asr #8
    833c:	20297274 	eorcs	r7, r9, r4, ror r2
    8340:	74702828 	ldrbtvc	r2, [r0], #-2088	; 0xfffff7d8
    8344:	3e2d2972 			; <UNDEFINED> instruction: 0x3e2d2972
    8348:	2d706d5f 	ldclcs	13, cr6, [r0, #-380]!	; 0xfffffe84
    834c:	65725f3e 	ldrbvs	r5, [r2, #-3902]!	; 0xfffff0c2
    8350:	746c7573 	strbtvc	r7, [ip], #-1395	; 0xfffffa8d
    8354:	64660029 	strbtvs	r0, [r6], #-41	; 0xffffffd7
    8358:	69625f73 	stmdbvs	r2!, {r0, r1, r4, r5, r6, r8, r9, sl, fp, ip, lr}^
    835c:	5f207374 	svcpl	0x00207374
    8360:	7364665f 	cmnvc	r4, #99614720	; 0x5f00000
    8364:	7469625f 	strbtvc	r6, [r9], #-607	; 0xfffffda1
    8368:	5f5f0073 	svcpl	0x005f0073
    836c:	544e4957 	strbpl	r4, [lr], #-2391	; 0xfffff6a9
    8370:	4e494d5f 	mcrmi	13, 2, r4, cr9, cr15, {2}
    8374:	30205f5f 	eorcc	r5, r0, pc, asr pc
    8378:	5f5f0055 	svcpl	0x005f0055
    837c:	36544c46 	ldrbcc	r4, [r4], -r6, asr #24
    8380:	49445f34 	stmdbmi	r4, {r2, r4, r5, r8, r9, sl, fp, ip, lr}^
    8384:	205f5f47 	subscs	r5, pc, r7, asr #30
    8388:	5f003531 	svcpl	0x00003531
    838c:	33544e49 	cmpcc	r4, #1168	; 0x490
    8390:	51455f32 	cmppl	r5, r2, lsr pc
    8394:	4e4f4c5f 	mcrmi	12, 2, r4, cr15, cr15, {2}
    8398:	5f002047 	svcpl	0x00002047
    839c:	434f4c43 	movtmi	r4, #64579	; 0xfc43
    83a0:	5f44494b 	svcpl	0x0044494b
    83a4:	45445f54 	strbmi	r5, [r4, #-3924]	; 0xfffff0ac
    83a8:	52414c43 	subpl	r4, r1, #17152	; 0x4300
    83ac:	00204445 	eoreq	r4, r0, r5, asr #8
    83b0:	49575f5f 	ldmdbmi	r7, {r0, r1, r2, r3, r4, r6, r8, r9, sl, fp, ip, lr}^
    83b4:	4d5f544e 	cfldrdmi	mvd5, [pc, #-312]	; 8284 <_Min_Stack_Size+0x7e84>
    83b8:	5f5f5841 	svcpl	0x005f5841
    83bc:	66783020 	ldrbtvs	r3, [r8], -r0, lsr #32
    83c0:	66666666 	strbtvs	r6, [r6], -r6, ror #12
    83c4:	55666666 	strbpl	r6, [r6, #-1638]!	; 0xfffff99a
    83c8:	495f5f00 	ldmdbmi	pc, {r8, r9, sl, fp, ip, lr}^	; <UNPREDICTABLE>
    83cc:	4c5f544e 	cfldrdmi	mvd5, [pc], {78}	; 0x4e
    83d0:	54534145 	ldrbpl	r4, [r3], #-325	; 0xfffffebb
    83d4:	49575f38 	ldmdbmi	r7, {r3, r4, r5, r8, r9, sl, fp, ip, lr}^
    83d8:	5f485444 	svcpl	0x00485444
    83dc:	0038205f 	eorseq	r2, r8, pc, asr r0
    83e0:	4349564e 	movtmi	r5, #38478	; 0x964e
    83e4:	4553495f 	ldrbmi	r4, [r3, #-2399]	; 0xfffff6a1
    83e8:	2a203252 	bcs	814d38 <_Min_Stack_Size+0x814938>
    83ec:	6c6f7628 	stclvs	6, cr7, [pc], #-160	; 8354 <_Min_Stack_Size+0x7f54>
    83f0:	6c697461 	cfstrdvs	mvd7, [r9], #-388	; 0xfffffe7c
    83f4:	69752065 	ldmdbvs	r5!, {r0, r2, r5, r6, sp}^
    83f8:	3233746e 	eorscc	r7, r3, #1845493760	; 0x6e000000
    83fc:	2a20745f 	bcs	825580 <_Min_Stack_Size+0x825180>
    8400:	564e2829 	strbpl	r2, [lr], -r9, lsr #16
    8404:	425f4349 	subsmi	r4, pc, #603979777	; 0x24000001
    8408:	20455341 	subcs	r5, r5, r1, asr #6
    840c:	7830202b 	ldmdavc	r0!, {r0, r1, r3, r5, sp}
    8410:	00293830 	eoreq	r3, r9, r0, lsr r8
    8414:	6f6c5f5f 	svcvs	0x006c5f5f
    8418:	645f676e 	ldrbvs	r6, [pc], #-1902	; 8420 <_Min_Stack_Size+0x8020>
    841c:	6c62756f 	cfstr64vs	mvdx7, [r2], #-444	; 0xfffffe44
    8420:	20745f65 	rsbscs	r5, r4, r5, ror #30
    8424:	676e6f6c 	strbvs	r6, [lr, -ip, ror #30]!
    8428:	756f6420 	strbvc	r6, [pc, #-1056]!	; 8010 <_Min_Stack_Size+0x7c10>
    842c:	00656c62 	rsbeq	r6, r5, r2, ror #24
    8430:	4e495f5f 	mcrmi	15, 2, r5, cr9, cr15, {2}
    8434:	454c5f54 	strbmi	r5, [ip, #-3924]	; 0xfffff0ac
    8438:	31545341 	cmpcc	r4, r1, asr #6
    843c:	59545f36 	ldmdbpl	r4, {r1, r2, r4, r5, r8, r9, sl, fp, ip, lr}^
    8440:	5f5f4550 	svcpl	0x005f4550
    8444:	6f687320 	svcvs	0x00687320
    8448:	69207472 	stmdbvs	r0!, {r1, r4, r5, r6, sl, ip, sp, lr}
    844c:	5f00746e 	svcpl	0x0000746e
    8450:	5f51515f 	svcpl	0x0051515f
    8454:	54494246 	strbpl	r4, [r9], #-582	; 0xfffffdba
    8458:	37205f5f 			; <UNDEFINED> instruction: 0x37205f5f
    845c:	445f5f00 	ldrbmi	r5, [pc], #-3840	; 8464 <_Min_Stack_Size+0x8064>
    8460:	4d5f4c42 	ldclmi	12, cr4, [pc, #-264]	; 8360 <_Min_Stack_Size+0x7f60>
    8464:	5f5f5841 	svcpl	0x005f5841
    8468:	64282820 	strtvs	r2, [r8], #-2080	; 0xfffff7e0
    846c:	6c62756f 	cfstr64vs	mvdx7, [r2], #-444	; 0xfffffe44
    8470:	2e312965 	vsubcs.f16	s4, s2, s11	; <UNPREDICTABLE>
    8474:	36373937 			; <UNDEFINED> instruction: 0x36373937
    8478:	33313339 	teqcc	r1, #-469762048	; 0xe4000000
    847c:	32363834 	eorscc	r3, r6, #52, 16	; 0x340000
    8480:	37353133 			; <UNDEFINED> instruction: 0x37353133
    8484:	30332b65 	eorscc	r2, r3, r5, ror #22
    8488:	00294c38 	eoreq	r4, r9, r8, lsr ip
    848c:	616f6c66 	cmnvs	pc, r6, ror #24
    8490:	5f5f0074 	svcpl	0x005f0074
    8494:	52464c4c 	subpl	r4, r6, #76, 24	; 0x4c00
    8498:	5f544341 	svcpl	0x00544341
    849c:	54494246 	strbpl	r4, [r9], #-582	; 0xfffffdba
    84a0:	36205f5f 	qsaxcc	r5, r0, pc	; <UNPREDICTABLE>
    84a4:	5f5f0033 	svcpl	0x005f0033
    84a8:	33544c46 	cmpcc	r4, #17920	; 0x4600
    84ac:	41485f32 	cmpmi	r8, r2, lsr pc
    84b0:	4e495f53 	mcrmi	15, 2, r5, cr9, cr3, {2}
    84b4:	494e4946 	stmdbmi	lr, {r1, r2, r6, r8, fp, lr}^
    84b8:	5f5f5954 	svcpl	0x005f5954
    84bc:	4c003120 	stfmis	f3, [r0], {32}
    84c0:	445f4443 	ldrbmi	r4, [pc], #-1091	; 84c8 <_Min_Stack_Size+0x80c8>
    84c4:	4c505349 	mrrcmi	3, 4, r5, r0, cr9
    84c8:	4f5f5941 	svcmi	0x005f5941
    84cc:	4e555f4e 	cdpmi	15, 5, cr5, cr5, cr14, {2}
    84d0:	4c524544 	cfldr64mi	mvdx4, [r2], {68}	; 0x44
    84d4:	5f454e49 	svcpl	0x00454e49
    84d8:	5f46464f 	svcpl	0x0046464f
    84dc:	53525543 	cmppl	r2, #281018368	; 0x10c00000
    84e0:	4f5f524f 	svcmi	0x005f524f
    84e4:	30204646 	eorcc	r4, r0, r6, asr #12
    84e8:	00433078 	subeq	r3, r3, r8, ror r0
    84ec:	68745f5f 	ldmdavs	r4!, {r0, r1, r2, r3, r4, r6, r8, r9, sl, fp, ip, lr}^
    84f0:	5f626d75 	svcpl	0x00626d75
    84f4:	0031205f 	eorseq	r2, r1, pc, asr r0
    84f8:	41544144 	cmpmi	r4, r4, asr #2
    84fc:	6968735f 	stmdbvs	r8!, {r0, r1, r2, r3, r4, r6, r8, r9, ip, sp, lr}^
    8500:	30207466 	eorcc	r7, r0, r6, ror #8
    8504:	49425f00 	stmdbmi	r2, {r8, r9, sl, fp, ip, lr}^
    8508:	4e455f47 	cdpmi	15, 4, cr5, cr5, cr7, {2}
    850c:	4e414944 	vmlsmi.f16	s9, s2, s8	; <UNPREDICTABLE>
    8510:	32333420 	eorscc	r3, r3, #32, 8	; 0x20000000
    8514:	43520031 	cmpmi	r2, #49	; 0x31
    8518:	50475f43 	subpl	r5, r7, r3, asr #30
    851c:	5f444f49 	svcpl	0x00444f49
    8520:	5f4b4c43 	svcpl	0x004b4c43
    8524:	29284e45 	stmdbcs	r8!, {r0, r2, r6, r9, sl, fp, lr}
    8528:	43522820 	cmpmi	r2, #32, 16	; 0x200000
    852c:	413e2d43 	teqmi	lr, r3, asr #26
    8530:	45324250 	ldrmi	r4, [r2, #-592]!	; 0xfffffdb0
    8534:	7c20524e 	sfmvc	f5, 4, [r0], #-312	; 0xfffffec8
    8538:	2031203d 	eorscs	r2, r1, sp, lsr r0
    853c:	35203c3c 	strcc	r3, [r0, #-3132]!	; 0xfffff3c4
    8540:	5f5f0029 	svcpl	0x005f0029
    8544:	454d5241 	strbmi	r5, [sp, #-577]	; 0xfffffdbf
    8548:	205f5f4c 	subscs	r5, pc, ip, asr #30
    854c:	495f0031 	ldmdbmi	pc, {r0, r4, r5}^	; <UNPREDICTABLE>
    8550:	414d544e 	cmpmi	sp, lr, asr #8
    8554:	5f545f58 	svcpl	0x00545f58
    8558:	4c434544 	cfstr64mi	mvdx4, [r3], {68}	; 0x44
    855c:	44455241 	strbmi	r5, [r5], #-577	; 0xfffffdbf
    8560:	5f5f0020 	svcpl	0x005f0020
    8564:	6d726f66 	ldclvs	15, cr6, [r2, #-408]!	; 0xfffffe68
    8568:	615f7461 	cmpvs	pc, r1, ror #8
    856c:	66286772 			; <UNDEFINED> instruction: 0x66286772
    8570:	7261746d 	rsbvc	r7, r1, #1828716544	; 0x6d000000
    8574:	5f202967 	svcpl	0x00202967
    8578:	7474615f 	ldrbtvc	r6, [r4], #-351	; 0xfffffea1
    857c:	75626972 	strbvc	r6, [r2, #-2418]!	; 0xfffff68e
    8580:	5f5f6574 	svcpl	0x005f6574
    8584:	5f5f2828 	svcpl	0x005f2828
    8588:	6d726f66 	ldclvs	15, cr6, [r2, #-408]!	; 0xfffffe68
    858c:	615f7461 	cmpvs	pc, r1, ror #8
    8590:	5f5f6772 	svcpl	0x005f6772
    8594:	6d662820 	stclvs	8, cr2, [r6, #-128]!	; 0xffffff80
    8598:	67726174 			; <UNDEFINED> instruction: 0x67726174
    859c:	00292929 	eoreq	r2, r9, r9, lsr #18
    85a0:	6f635f5f 	svcvs	0x00635f5f
    85a4:	6c69706d 	stclvs	0, cr7, [r9], #-436	; 0xfffffe4c
    85a8:	6d5f7265 	lfmvs	f7, 2, [pc, #-404]	; 841c <_Min_Stack_Size+0x801c>
    85ac:	61626d65 	cmnvs	r2, r5, ror #26
    85b0:	20292872 	eorcs	r2, r9, r2, ror r8
    85b4:	73615f5f 	cmnvc	r1, #380	; 0x17c
    85b8:	5f5f206d 	svcpl	0x005f206d
    85bc:	616c6f76 	smcvs	50934	; 0xc6f6
    85c0:	656c6974 	strbvs	r6, [ip, #-2420]!	; 0xfffff68c
    85c4:	22202228 	eorcs	r2, r0, #40, 4	; 0x80000002
    85c8:	3a203a20 	bcc	816e50 <_Min_Stack_Size+0x816a50>
    85cc:	22203a20 	eorcs	r3, r0, #32, 20	; 0x20000
    85d0:	6f6d656d 	svcvs	0x006d656d
    85d4:	29227972 	stmdbcs	r2!, {r1, r4, r5, r6, r8, fp, ip, sp, lr}
    85d8:	6c5f5f00 	mrrcvs	15, 0, r5, pc, cr0	; <UNPREDICTABLE>
    85dc:	5f6b636f 	svcpl	0x006b636f
    85e0:	736f6c63 	cmnvc	pc, #25344	; 0x6300
    85e4:	6f6c2865 	svcvs	0x006c2865
    85e8:	20296b63 	eorcs	r6, r9, r3, ror #22
    85ec:	65725f5f 	ldrbvs	r5, [r2, #-3935]!	; 0xfffff0a1
    85f0:	67726174 			; <UNDEFINED> instruction: 0x67726174
    85f4:	6c5f7465 	cfldrdvs	mvd7, [pc], {101}	; 0x65
    85f8:	5f6b636f 	svcpl	0x006b636f
    85fc:	736f6c63 	cmnvc	pc, #25344	; 0x6300
    8600:	6f6c2865 	svcvs	0x006c2865
    8604:	00296b63 	eoreq	r6, r9, r3, ror #22
    8608:	51485f5f 	cmppl	r8, pc, asr pc
    860c:	4942465f 	stmdbmi	r2, {r0, r1, r2, r3, r4, r6, r9, sl, lr}^
    8610:	205f5f54 	subscs	r5, pc, r4, asr pc	; <UNPREDICTABLE>
    8614:	5f003531 	svcpl	0x00003531
    8618:	7461645f 	strbtvc	r6, [r1], #-1119	; 0xfffffba1
    861c:	70797461 	rsbsvc	r7, r9, r1, ror #8
    8620:	79745f65 	ldmdbvc	r4!, {r0, r2, r5, r6, r8, r9, sl, fp, ip, lr}^
    8624:	745f6570 	ldrbvc	r6, [pc], #-1392	; 862c <_Min_Stack_Size+0x822c>
    8628:	6b286761 	blvs	a223b4 <_Min_Stack_Size+0xa21fb4>
    862c:	2c646e69 	stclcs	14, cr6, [r4], #-420	; 0xfffffe5c
    8630:	65707974 	ldrbvs	r7, [r0, #-2420]!	; 0xfffff68c
    8634:	5f002029 	svcpl	0x00002029
    8638:	65656e5f 	strbvs	r6, [r5, #-3679]!	; 0xfffff1a1
    863c:	5f5f5f64 	svcpl	0x005f5f64
    8640:	6c5f6176 	ldfvse	f6, [pc], {118}	; 0x76
    8644:	00747369 	rsbseq	r7, r4, r9, ror #6
    8648:	49535f5f 	ldmdbmi	r3, {r0, r1, r2, r3, r4, r6, r8, r9, sl, fp, ip, lr}^
    864c:	4d5f455a 	cfldr64mi	mvdx4, [pc, #-360]	; 84ec <_Min_Stack_Size+0x80ec>
    8650:	5f5f5841 	svcpl	0x005f5841
    8654:	66783020 	ldrbtvs	r3, [r8], -r0, lsr #32
    8658:	66666666 	strbtvs	r6, [r6], -r6, ror #12
    865c:	55666666 	strbpl	r6, [r6, #-1638]!	; 0xfffff99a
    8660:	535f5f00 	cmppl	pc, #0, 30
    8664:	2054504f 	subscs	r5, r4, pc, asr #32
    8668:	34307830 	ldrtcc	r7, [r0], #-2096	; 0xfffff7d0
    866c:	5f003030 	svcpl	0x00003030
    8670:	544e495f 	strbpl	r4, [lr], #-2399	; 0xfffff6a1
    8674:	22203436 	eorcs	r3, r0, #905969664	; 0x36000000
    8678:	00226c6c 	eoreq	r6, r2, ip, ror #24
    867c:	6c615f5f 	stclvs	15, cr5, [r1], #-380	; 0xfffffe84
    8680:	73796177 	cmnvc	r9, #-1073741795	; 0xc000001d
    8684:	6c6e695f 			; <UNDEFINED> instruction: 0x6c6e695f
    8688:	20656e69 	rsbcs	r6, r5, r9, ror #28
    868c:	6e695f5f 	mcrvs	15, 3, r5, cr9, cr15, {2}
    8690:	656e696c 	strbvs	r6, [lr, #-2412]!	; 0xfffff694
    8694:	5f205f5f 	svcpl	0x00205f5f
    8698:	7474615f 	ldrbtvc	r6, [r4], #-351	; 0xfffffea1
    869c:	75626972 	strbvc	r6, [r2, #-2418]!	; 0xfffff68e
    86a0:	5f5f6574 	svcpl	0x005f6574
    86a4:	5f5f2828 	svcpl	0x005f2828
    86a8:	61776c61 	cmnvs	r7, r1, ror #24
    86ac:	695f7379 	ldmdbvs	pc, {r0, r3, r4, r5, r6, r8, r9, ip, sp, lr}^	; <UNPREDICTABLE>
    86b0:	6e696c6e 	cdpvs	12, 6, cr6, cr9, cr14, {3}
    86b4:	295f5f65 	ldmdbcs	pc, {r0, r2, r5, r6, r8, r9, sl, fp, ip, lr}^	; <UNPREDICTABLE>
    86b8:	5f5f0029 	svcpl	0x005f0029
    86bc:	5f4d5241 	svcpl	0x004d5241
    86c0:	48435241 	stmdami	r3, {r0, r6, r9, ip, lr}^
    86c4:	6f776600 	svcvs	0x00776600
    86c8:	286e6570 	stmdacs	lr!, {r4, r5, r6, r8, sl, sp, lr}^
    86cc:	6f635f5f 	svcvs	0x00635f5f
    86d0:	65696b6f 	strbvs	r6, [r9, #-2927]!	; 0xfffff491
    86d4:	665f5f2c 	ldrbvs	r5, [pc], -ip, lsr #30
    86d8:	6620296e 	strtvs	r2, [r0], -lr, ror #18
    86dc:	706f6e75 	rsbvc	r6, pc, r5, ror lr	; <UNPREDICTABLE>
    86e0:	5f286e65 	svcpl	0x00286e65
    86e4:	6f6f635f 	svcvs	0x006f635f
    86e8:	2c65696b 			; <UNDEFINED> instruction: 0x2c65696b
    86ec:	6e692820 	cdpvs	8, 6, cr2, cr9, cr0, {1}
    86f0:	2a282074 	bcs	a108c8 <_Min_Stack_Size+0xa104c8>
    86f4:	29292829 	stmdbcs	r9!, {r0, r3, r5, fp, sp}
    86f8:	5f202c30 	svcpl	0x00202c30
    86fc:	2c6e665f 	stclcs	6, cr6, [lr], #-380	; 0xfffffe84
    8700:	70662820 	rsbvc	r2, r6, r0, lsr #16
    8704:	745f736f 	ldrbvc	r7, [pc], #-879	; 870c <_Min_Stack_Size+0x830c>
    8708:	292a2820 	stmdbcs	sl!, {r5, fp, sp}
    870c:	30292928 	eorcc	r2, r9, r8, lsr #18
    8710:	6928202c 	stmdbvs	r8!, {r2, r3, r5, sp}
    8714:	2820746e 	stmdacs	r0!, {r1, r2, r3, r5, r6, sl, ip, sp, lr}
    8718:	2928292a 	stmdbcs	r8!, {r1, r3, r5, r8, fp, sp}
    871c:	00293029 	eoreq	r3, r9, r9, lsr #32
    8720:	544e4955 	strbpl	r4, [lr], #-2389	; 0xfffff6ab
    8724:	414d5f38 	cmpmi	sp, r8, lsr pc
    8728:	5f282058 	svcpl	0x00282058
    872c:	4e49555f 	mcrmi	5, 2, r5, cr9, cr15, {2}
    8730:	4d5f3854 	ldclmi	8, cr3, [pc, #-336]	; 85e8 <_Min_Stack_Size+0x81e8>
    8734:	5f5f5841 	svcpl	0x005f5841
    8738:	5f5f0029 	svcpl	0x005f0029
    873c:	474e4f4c 	strbmi	r4, [lr, -ip, asr #30]
    8740:	58414d5f 	stmdapl	r1, {r0, r1, r2, r3, r4, r6, r8, sl, fp, lr}^
    8744:	30205f5f 	eorcc	r5, r0, pc, asr pc
    8748:	66663778 			; <UNDEFINED> instruction: 0x66663778
    874c:	66666666 	strbtvs	r6, [r6], -r6, ror #12
    8750:	6c004c66 	stcvs	12, cr4, [r0], {102}	; 0x66
    8754:	20676e6f 	rsbcs	r6, r7, pc, ror #28
    8758:	5f00342b 	svcpl	0x0000342b
    875c:	65656e5f 	strbvs	r6, [r5, #-3679]!	; 0xfffff1a1
    8760:	6e695f64 	cdpvs	15, 6, cr5, cr9, cr4, {3}
    8764:	70797474 	rsbsvc	r7, r9, r4, ror r4
    8768:	5f007365 	svcpl	0x00007365
    876c:	6e6f6e5f 	mcrvs	14, 3, r6, cr15, cr15, {2}
    8770:	6c6c756e 	cfstr64vs	mvdx7, [ip], #-440	; 0xfffffe48
    8774:	20297828 	eorcs	r7, r9, r8, lsr #16
    8778:	74615f5f 	strbtvc	r5, [r1], #-3935	; 0xfffff0a1
    877c:	62697274 	rsbvs	r7, r9, #116, 4	; 0x40000007
    8780:	5f657475 	svcpl	0x00657475
    8784:	5f28285f 	svcpl	0x0028285f
    8788:	6e6f6e5f 	mcrvs	14, 3, r6, cr15, cr15, {2}
    878c:	6c6c756e 	cfstr64vs	mvdx7, [ip], #-440	; 0xfffffe48
    8790:	78205f5f 	stmdavc	r0!, {r0, r1, r2, r3, r4, r6, r8, r9, sl, fp, ip, lr}
    8794:	5f002929 	svcpl	0x00002929
    8798:	444e4152 	strbmi	r4, [lr], #-338	; 0xfffffeae
    879c:	415f3834 	cmpmi	pc, r4, lsr r8	; <UNPREDICTABLE>
    87a0:	28204444 	stmdacs	r0!, {r2, r6, sl, lr}
    87a4:	30307830 	eorscc	r7, r0, r0, lsr r8
    87a8:	00296230 	eoreq	r6, r9, r0, lsr r2
    87ac:	54495845 	strbpl	r5, [r9], #-2117	; 0xfffff7bb
    87b0:	4941465f 	stmdbmi	r1, {r0, r1, r2, r3, r4, r6, r9, sl, lr}^
    87b4:	4552554c 	ldrbmi	r5, [r2, #-1356]	; 0xfffffab4
    87b8:	5f003120 	svcpl	0x00003120
    87bc:	4d52415f 	ldfmie	f4, [r2, #-380]	; 0xfffffe84
    87c0:	4145465f 	cmpmi	r5, pc, asr r6
    87c4:	45525554 	ldrbmi	r5, [r2, #-1364]	; 0xfffffaac
    87c8:	52444c5f 	subpl	r4, r4, #24320	; 0x5f00
    87cc:	37205845 	strcc	r5, [r0, -r5, asr #16]!
    87d0:	53425f00 	movtpl	r5, #12032	; 0x2f00
    87d4:	50595444 	subspl	r5, r9, r4, asr #8
    87d8:	445f5345 	ldrbmi	r5, [pc], #-837	; 87e0 <_Min_Stack_Size+0x83e0>
    87dc:	4e494645 	cdpmi	6, 4, cr4, cr9, cr5, {2}
    87e0:	00204445 	eoreq	r4, r0, r5, asr #8
    87e4:	5f504450 	svcpl	0x00504450
    87e8:	49444e45 	stmdbmi	r4, {r0, r2, r6, r9, sl, fp, lr}^
    87ec:	5f204e41 	svcpl	0x00204e41
    87f0:	5f504450 	svcpl	0x00504450
    87f4:	49444e45 	stmdbmi	r4, {r0, r2, r6, r9, sl, fp, lr}^
    87f8:	5f004e41 	svcpl	0x00004e41
    87fc:	464c4c5f 			; <UNDEFINED> instruction: 0x464c4c5f
    8800:	54434152 	strbpl	r4, [r3], #-338	; 0xfffffeae
    8804:	5350455f 	cmppl	r0, #398458880	; 0x17c00000
    8808:	4e4f4c49 	cdpmi	12, 4, cr4, cr15, cr9, {2}
    880c:	30205f5f 	eorcc	r5, r0, pc, asr pc
    8810:	2d503178 	ldfcse	f3, [r0, #-480]	; 0xfffffe20
    8814:	4c4c3336 	mcrrmi	3, 3, r3, ip, cr6
    8818:	43530052 	cmpmi	r3, #82	; 0x52
    881c:	5f444548 	svcpl	0x00444548
    8820:	32205252 	eorcc	r5, r0, #536870917	; 0x20000005
    8824:	415f5f00 	cmpmi	pc, r0, lsl #30
    8828:	465f4d52 			; <UNDEFINED> instruction: 0x465f4d52
    882c:	55544145 	ldrbpl	r4, [r4, #-325]	; 0xfffffebb
    8830:	535f4552 	cmppl	pc, #343932928	; 0x14800000
    8834:	33444d49 	movtcc	r4, #19785	; 0x4d49
    8838:	5f5f0032 	svcpl	0x005f0032
    883c:	33544c46 	cmpcc	r4, #17920	; 0x4600
    8840:	4d5f5832 	ldclmi	8, cr5, [pc, #-200]	; 8780 <_Min_Stack_Size+0x8380>
    8844:	5f544e41 	svcpl	0x00544e41
    8848:	5f474944 	svcpl	0x00474944
    884c:	3335205f 	teqcc	r5, #95	; 0x5f
    8850:	454e5f00 	strbmi	r5, [lr, #-3840]	; 0xfffff100
    8854:	42494c57 	submi	r4, r9, #22272	; 0x5700
    8858:	5245565f 	subpl	r5, r5, #99614720	; 0x5f00000
    885c:	4e4f4953 			; <UNDEFINED> instruction: 0x4e4f4953
    8860:	2e342220 	cdpcs	2, 3, cr2, cr4, cr0, {1}
    8864:	22302e31 	eorscs	r2, r0, #784	; 0x310
    8868:	575f5f00 	ldrbpl	r5, [pc, -r0, lsl #30]
    886c:	52414843 	subpl	r4, r1, #4390912	; 0x430000
    8870:	4449575f 	strbmi	r5, [r9], #-1887	; 0xfffff8a1
    8874:	5f5f4854 	svcpl	0x005f4854
    8878:	00323320 	eorseq	r3, r2, r0, lsr #6
    887c:	4f495047 	svcmi	0x00495047
    8880:	444f4d5f 	strbmi	r4, [pc], #-3423	; 8888 <_Min_Stack_Size+0x8488>
    8884:	554f5f45 	strbpl	r5, [pc, #-3909]	; 7947 <_Min_Stack_Size+0x7547>
    8888:	54555054 	ldrbpl	r5, [r5], #-84	; 0xffffffac
    888c:	20444f5f 	subcs	r4, r4, pc, asr pc
    8890:	30307830 	eorscc	r7, r0, r0, lsr r8
    8894:	30303030 	eorscc	r3, r0, r0, lsr r0
    8898:	00753530 	rsbseq	r3, r5, r0, lsr r5
    889c:	5359535f 	cmppl	r9, #2080374785	; 0x7c000001
    88a0:	54505f5f 	ldrbpl	r5, [r0], #-3935	; 0xfffff0a1
    88a4:	41455248 	cmpmi	r5, r8, asr #4
    88a8:	50595444 	subspl	r5, r9, r4, asr #8
    88ac:	485f5345 	ldmdami	pc, {r0, r2, r6, r8, r9, ip, lr}^	; <UNPREDICTABLE>
    88b0:	5f00205f 	svcpl	0x0000205f
    88b4:	544e495f 	strbpl	r4, [lr], #-2399	; 0xfffff6a1
    88b8:	435f3631 	cmpmi	pc, #51380224	; 0x3100000
    88bc:	20296328 	eorcs	r6, r9, r8, lsr #6
    88c0:	434c0063 	movtmi	r0, #49251	; 0xc063
    88c4:	45425f44 	strbmi	r5, [r2, #-3908]	; 0xfffff0bc
    88c8:	5f4e4947 	svcpl	0x004e4947
    88cc:	465f5441 	ldrbmi	r5, [pc], -r1, asr #8
    88d0:	54535249 	ldrbpl	r5, [r3], #-585	; 0xfffffdb7
    88d4:	5741525f 	smlsldpl	r5, r1, pc, r2	; <UNPREDICTABLE>
    88d8:	38783020 	ldmdacc	r8!, {r5, ip, sp}^
    88dc:	5f5f0030 	svcpl	0x005f0030
    88e0:	495f4144 	ldmdbmi	pc, {r2, r6, r8, lr}^	; <UNPREDICTABLE>
    88e4:	5f544942 	svcpl	0x00544942
    88e8:	3233205f 	eorscc	r2, r3, #95	; 0x5f
    88ec:	735f5f00 	cmpvc	pc, #0, 30
    88f0:	74667274 	strbtvc	r7, [r6], #-628	; 0xfffffd8c
    88f4:	6c656d69 	stclvs	13, cr6, [r5], #-420	; 0xfffffe5c
    88f8:	28656b69 	stmdacs	r5!, {r0, r3, r5, r6, r8, r9, fp, sp, lr}^
    88fc:	61746d66 	cmnvs	r4, r6, ror #26
    8900:	662c6772 			; <UNDEFINED> instruction: 0x662c6772
    8904:	74737269 	ldrbtvc	r7, [r3], #-617	; 0xfffffd97
    8908:	61726176 	cmnvs	r2, r6, ror r1
    890c:	20296772 	eorcs	r6, r9, r2, ror r7
    8910:	74615f5f 	strbtvc	r5, [r1], #-3935	; 0xfffff0a1
    8914:	62697274 	rsbvs	r7, r9, #116, 4	; 0x40000007
    8918:	5f657475 	svcpl	0x00657475
    891c:	5f28285f 	svcpl	0x0028285f
    8920:	726f665f 	rsbvc	r6, pc, #99614720	; 0x5f00000
    8924:	5f74616d 	svcpl	0x0074616d
    8928:	5f28205f 	svcpl	0x0028205f
    892c:	7274735f 	rsbsvc	r7, r4, #2080374785	; 0x7c000001
    8930:	6d697466 	cfstrdvs	mvd7, [r9, #-408]!	; 0xfffffe68
    8934:	2c5f5f65 	mrrccs	15, 6, r5, pc, cr5	; <UNPREDICTABLE>
    8938:	746d6620 	strbtvc	r6, [sp], #-1568	; 0xfffff9e0
    893c:	2c677261 	sfmcs	f7, 2, [r7], #-388	; 0xfffffe7c
    8940:	72696620 	rsbvc	r6, r9, #32, 12	; 0x2000000
    8944:	61767473 	cmnvs	r6, r3, ror r4
    8948:	67726172 			; <UNDEFINED> instruction: 0x67726172
    894c:	00292929 	eoreq	r2, r9, r9, lsr #18
    8950:	4449505f 	strbmi	r5, [r9], #-95	; 0xffffffa1
    8954:	445f545f 	ldrbmi	r5, [pc], #-1119	; 895c <_Min_Stack_Size+0x855c>
    8958:	414c4345 	cmpmi	ip, r5, asr #6
    895c:	20444552 	subcs	r4, r4, r2, asr r5
    8960:	43435200 	movtmi	r5, #12800	; 0x3200
    8964:	4950475f 	ldmdbmi	r0, {r0, r1, r2, r3, r4, r6, r8, r9, sl, lr}^
    8968:	435f454f 	cmpmi	pc, #331350016	; 0x13c00000
    896c:	455f4b4c 	ldrbmi	r4, [pc, #-2892]	; 7e28 <_Min_Stack_Size+0x7a28>
    8970:	2029284e 	eorcs	r2, r9, lr, asr #16
    8974:	43435228 	movtmi	r5, #12840	; 0x3228
    8978:	50413e2d 	subpl	r3, r1, sp, lsr #28
    897c:	4e453242 	cdpmi	2, 4, cr3, cr5, cr2, {2}
    8980:	3d7c2052 	ldclcc	0, cr2, [ip, #-328]!	; 0xfffffeb8
    8984:	3c203120 	stfccs	f3, [r0], #-128	; 0xffffff80
    8988:	2936203c 	ldmdbcs	r6!, {r2, r3, r4, r5, sp}
    898c:	445f5f00 	ldrbmi	r5, [pc], #-3840	; 8994 <_Min_Stack_Size+0x8594>
    8990:	41555145 	cmpmi	r5, r5, asr #2
    8994:	5946494c 	stmdbpl	r6, {r2, r3, r6, r8, fp, lr}^
    8998:	70797428 	rsbsvc	r7, r9, r8, lsr #8
    899c:	61762c65 	cmnvs	r6, r5, ror #24
    89a0:	28202972 	stmdacs	r0!, {r1, r4, r5, r6, r8, fp, sp}
    89a4:	70797428 	rsbsvc	r7, r9, r8, lsr #8
    89a8:	5f282965 	svcpl	0x00282965
    89ac:	6e69755f 	mcrvs	5, 3, r7, cr9, cr15, {2}
    89b0:	72747074 	rsbsvc	r7, r4, #116	; 0x74
    89b4:	2829745f 	stmdacs	r9!, {r0, r1, r2, r3, r4, r6, sl, ip, sp, lr}
    89b8:	736e6f63 	cmnvc	lr, #396	; 0x18c
    89bc:	6f762074 	svcvs	0x00762074
    89c0:	6974616c 	ldmdbvs	r4!, {r2, r3, r5, r6, r8, sp, lr}^
    89c4:	7620656c 	strtvc	r6, [r0], -ip, ror #10
    89c8:	2064696f 	rsbcs	r6, r4, pc, ror #18
    89cc:	7628292a 	strtvc	r2, [r8], -sl, lsr #18
    89d0:	29297261 	stmdbcs	r9!, {r0, r5, r6, r9, ip, sp, lr}
    89d4:	6c5f5f00 	mrrcvs	15, 0, r5, pc, cr0	; <UNPREDICTABLE>
    89d8:	5f6b636f 	svcpl	0x006b636f
    89dc:	74696e69 	strbtvc	r6, [r9], #-3689	; 0xfffff197
    89e0:	6365725f 	cmnvs	r5, #-268435451	; 0xf0000005
    89e4:	69737275 	ldmdbvs	r3!, {r0, r2, r4, r5, r6, r9, ip, sp, lr}^
    89e8:	6c286576 	cfstr32vs	mvfx6, [r8], #-472	; 0xfffffe28
    89ec:	296b636f 	stmdbcs	fp!, {r0, r1, r2, r3, r5, r6, r8, r9, sp, lr}^
    89f0:	725f5f20 	subsvc	r5, pc, #32, 30	; 0x80
    89f4:	72617465 	rsbvc	r7, r1, #1694498816	; 0x65000000
    89f8:	5f746567 	svcpl	0x00746567
    89fc:	6b636f6c 	blvs	18e47b4 <_Min_Stack_Size+0x18e43b4>
    8a00:	696e695f 	stmdbvs	lr!, {r0, r1, r2, r3, r4, r6, r8, fp, sp, lr}^
    8a04:	65725f74 	ldrbvs	r5, [r2, #-3956]!	; 0xfffff08c
    8a08:	73727563 	cmnvc	r2, #415236096	; 0x18c00000
    8a0c:	28657669 	stmdacs	r5!, {r0, r3, r5, r6, r9, sl, ip, sp, lr}^
    8a10:	636f6c26 	cmnvs	pc, #9728	; 0x2600
    8a14:	5f00296b 	svcpl	0x0000296b
    8a18:	4f54415f 	svcmi	0x0054415f
    8a1c:	5f43494d 	svcpl	0x0043494d
    8a20:	5f514341 	svcpl	0x00514341
    8a24:	204c4552 	subcs	r4, ip, r2, asr r5
    8a28:	5f460034 	svcpl	0x00460034
    8a2c:	20555043 	subscs	r5, r5, r3, asr #32
    8a30:	30303031 	eorscc	r3, r0, r1, lsr r0
    8a34:	55303030 	ldrpl	r3, [r0, #-48]!	; 0xffffffd0
    8a38:	5f5f004c 	svcpl	0x005f004c
    8a3c:	495f5148 	ldmdbmi	pc, {r3, r6, r8, ip, lr}^	; <UNPREDICTABLE>
    8a40:	5f544942 	svcpl	0x00544942
    8a44:	0030205f 	eorseq	r2, r0, pc, asr r0
    8a48:	61705f5f 	cmnvs	r0, pc, asr pc
    8a4c:	64656b63 	strbtvs	r6, [r5], #-2915	; 0xfffff49d
    8a50:	615f5f20 	cmpvs	pc, r0, lsr #30
    8a54:	69727474 	ldmdbvs	r2!, {r2, r4, r5, r6, sl, ip, sp, lr}^
    8a58:	65747562 	ldrbvs	r7, [r4, #-1378]!	; 0xfffffa9e
    8a5c:	28285f5f 	stmdacs	r8!, {r0, r1, r2, r3, r4, r6, r8, r9, sl, fp, ip, lr}
    8a60:	61705f5f 	cmnvs	r0, pc, asr pc
    8a64:	64656b63 	strbtvs	r6, [r5], #-2915	; 0xfffff49d
    8a68:	29295f5f 	stmdbcs	r9!, {r0, r1, r2, r3, r4, r6, r8, r9, sl, fp, ip, lr}
    8a6c:	43575f00 	cmpmi	r7, #0, 30
    8a70:	5f524148 	svcpl	0x00524148
    8a74:	45445f54 	strbmi	r5, [r4, #-3924]	; 0xfffff0ac
    8a78:	454e4946 	strbmi	r4, [lr, #-2374]	; 0xfffff6ba
    8a7c:	00205f44 	eoreq	r5, r0, r4, asr #30
    8a80:	616c6564 	cmnvs	ip, r4, ror #10
    8a84:	736d5f79 	cmnvc	sp, #484	; 0x1e4
    8a88:	615f5f00 	cmpvs	pc, r0, lsl #30
    8a8c:	72657373 	rsbvc	r7, r5, #-872415231	; 0xcc000001
    8a90:	735f7374 	cmpvc	pc, #116, 6	; 0xd0000001
    8a94:	65726168 	ldrbvs	r6, [r2, #-360]!	; 0xfffffe98
    8a98:	2e2e2864 	cdpcs	8, 2, cr2, cr14, cr4, {3}
    8a9c:	5f20292e 	svcpl	0x0020292e
    8aa0:	636f6c5f 	cmnvs	pc, #24320	; 0x5f00
    8aa4:	6e615f6b 	cdpvs	15, 6, cr5, cr1, cr11, {3}
    8aa8:	61746f6e 	cmnvs	r4, lr, ror #30
    8aac:	61286574 			; <UNDEFINED> instruction: 0x61286574
    8ab0:	72657373 	rsbvc	r7, r5, #-872415231	; 0xcc000001
    8ab4:	68735f74 	ldmdavs	r3!, {r2, r4, r5, r6, r8, r9, sl, fp, ip, lr}^
    8ab8:	64657261 	strbtvs	r7, [r5], #-609	; 0xfffffd9f
    8abc:	636f6c5f 	cmnvs	pc, #24320	; 0x5f00
    8ac0:	5f5f286b 	svcpl	0x005f286b
    8ac4:	415f4156 	cmpmi	pc, r6, asr r1	; <UNPREDICTABLE>
    8ac8:	5f534752 	svcpl	0x00534752
    8acc:	0029295f 	eoreq	r2, r9, pc, asr r9
    8ad0:	4545525f 	strbmi	r5, [r5, #-607]	; 0xfffffda1
    8ad4:	535f544e 	cmppl	pc, #1308622848	; 0x4e000000
    8ad8:	4c4c414d 	stfmie	f4, [ip], {77}	; 0x4d
    8adc:	4548435f 	strbmi	r4, [r8, #-863]	; 0xfffffca1
    8ae0:	495f4b43 	ldmdbmi	pc, {r0, r1, r6, r8, r9, fp, lr}^	; <UNPREDICTABLE>
    8ae4:	2854494e 	ldmdacs	r4, {r1, r2, r3, r6, r8, fp, lr}^
    8ae8:	29727470 	ldmdbcs	r2!, {r4, r5, r6, sl, ip, sp, lr}^
    8aec:	206f6420 	rsbcs	r6, pc, r0, lsr #8
    8af0:	6669207b 			; <UNDEFINED> instruction: 0x6669207b
    8af4:	70282820 	eorvc	r2, r8, r0, lsr #16
    8af8:	20297274 	eorcs	r7, r9, r4, ror r2
    8afc:	21202626 			; <UNDEFINED> instruction: 0x21202626
    8b00:	72747028 	rsbsvc	r7, r4, #40	; 0x28
    8b04:	5f3e2d29 	svcpl	0x003e2d29
    8b08:	6964735f 	stmdbvs	r4!, {r0, r1, r2, r3, r4, r6, r8, r9, ip, sp, lr}^
    8b0c:	696e6964 	stmdbvs	lr!, {r2, r5, r6, r8, fp, sp, lr}^
    8b10:	5f202974 	svcpl	0x00202974
    8b14:	6e69735f 	mcrvs	3, 3, r7, cr9, cr15, {2}
    8b18:	28207469 	stmdacs	r0!, {r0, r3, r5, r6, sl, ip, sp, lr}
    8b1c:	29727470 	ldmdbcs	r2!, {r4, r5, r6, sl, ip, sp, lr}^
    8b20:	207d203b 	rsbscs	r2, sp, fp, lsr r0
    8b24:	6c696877 	stclvs	8, cr6, [r9], #-476	; 0xfffffe24
    8b28:	30282065 	eorcc	r2, r8, r5, rrx
    8b2c:	5f5f0029 	svcpl	0x005f0029
    8b30:	32746e69 	rsbscc	r6, r4, #1680	; 0x690
    8b34:	4e5f0030 	mrcmi	0, 2, r0, cr15, cr0, {1}
    8b38:	5f4f4e41 	svcpl	0x004f4e41
    8b3c:	4d524f46 	ldclmi	15, cr4, [r2, #-280]	; 0xfffffee8
    8b40:	45545441 	ldrbmi	r5, [r4, #-1089]	; 0xfffffbbf
    8b44:	4f495f44 	svcmi	0x00495f44
    8b48:	49003120 	stmdbmi	r0, {r5, r8, ip, sp}
    8b4c:	465f544e 	ldrbmi	r5, [pc], -lr, asr #8
    8b50:	33545341 	cmpcc	r4, #67108865	; 0x4000001
    8b54:	414d5f32 	cmpmi	sp, r2, lsr pc
    8b58:	5f282058 	svcpl	0x00282058
    8b5c:	544e495f 	strbpl	r4, [lr], #-2399	; 0xfffff6a1
    8b60:	5341465f 	movtpl	r4, #5727	; 0x165f
    8b64:	5f323354 	svcpl	0x00323354
    8b68:	5f58414d 	svcpl	0x0058414d
    8b6c:	5f00295f 	svcpl	0x0000295f
    8b70:	544c465f 	strbpl	r4, [ip], #-1631	; 0xfffff9a1
    8b74:	4e5f3233 	mrcmi	2, 2, r3, cr15, cr3, {1}
    8b78:	5f4d524f 	svcpl	0x004d524f
    8b7c:	5f58414d 	svcpl	0x0058414d
    8b80:	2e33205f 	mrccs	0, 1, r2, cr3, cr15, {2}
    8b84:	38323034 	ldmdacc	r2!, {r2, r4, r5, ip, sp}
    8b88:	36343332 			; <UNDEFINED> instruction: 0x36343332
    8b8c:	35383336 	ldrcc	r3, [r8, #-822]!	; 0xfffffcca
    8b90:	36383832 			; <UNDEFINED> instruction: 0x36383832
    8b94:	38332b65 	ldmdacc	r3!, {r0, r2, r5, r6, r8, r9, fp, sp}
    8b98:	00323346 	eorseq	r3, r2, r6, asr #6
    8b9c:	4545525f 	strbmi	r5, [r5, #-607]	; 0xfffffda1
    8ba0:	415f544e 	cmpmi	pc, lr, asr #8
    8ba4:	49544353 	ldmdbmi	r4, {r0, r1, r4, r6, r8, r9, lr}^
    8ba8:	535f454d 	cmppl	pc, #322961408	; 0x13400000
    8bac:	20455a49 	subcs	r5, r5, r9, asr #20
    8bb0:	49003632 	stmdbmi	r0, {r1, r4, r5, r9, sl, ip, sp}
    8bb4:	5450544e 	ldrbpl	r5, [r0], #-1102	; 0xfffffbb2
    8bb8:	494d5f52 	stmdbmi	sp, {r1, r4, r6, r8, r9, sl, fp, ip, lr}^
    8bbc:	2d28204e 	stccs	0, cr2, [r8, #-312]!	; 0xfffffec8
    8bc0:	4e495f5f 	mcrmi	15, 2, r5, cr9, cr15, {2}
    8bc4:	52545054 	subspl	r5, r4, #84	; 0x54
    8bc8:	58414d5f 	stmdapl	r1, {r0, r1, r2, r3, r4, r6, r8, sl, fp, lr}^
    8bcc:	2d205f5f 	stccs	15, cr5, [r0, #-380]!	; 0xfffffe84
    8bd0:	00293120 	eoreq	r3, r9, r0, lsr #2
    8bd4:	6c635f5f 	stclvs	15, cr5, [r3], #-380	; 0xfffffe84
    8bd8:	696b636f 	stmdbvs	fp!, {r0, r1, r2, r3, r5, r6, r8, r9, sp, lr}^
    8bdc:	5f745f64 	svcpl	0x00745f64
    8be0:	69666564 	stmdbvs	r6!, {r2, r5, r6, r8, sl, sp, lr}^
    8be4:	2064656e 	rsbcs	r6, r4, lr, ror #10
    8be8:	52545000 	subspl	r5, r4, #0
    8bec:	46464944 	strbmi	r4, [r6], -r4, asr #18
    8bf0:	4e494d5f 	mcrmi	13, 2, r4, cr9, cr15, {2}
    8bf4:	502d2820 	eorpl	r2, sp, r0, lsr #16
    8bf8:	49445254 	stmdbmi	r4, {r2, r4, r6, r9, ip, lr}^
    8bfc:	4d5f4646 	ldclmi	6, cr4, [pc, #-280]	; 8aec <_Min_Stack_Size+0x86ec>
    8c00:	2d205841 	stccs	8, cr5, [r0, #-260]!	; 0xfffffefc
    8c04:	00293120 	eoreq	r3, r9, r0, lsr #2
    8c08:	534f505f 	movtpl	r5, #61535	; 0xf05f
    8c0c:	435f5849 	cmpmi	pc, #4784128	; 0x490000
    8c10:	554f535f 	strbpl	r5, [pc, #-863]	; 88b9 <_Min_Stack_Size+0x84b9>
    8c14:	00454352 	subeq	r4, r5, r2, asr r3
    8c18:	49555f5f 	ldmdbmi	r5, {r0, r1, r2, r3, r4, r6, r8, r9, sl, fp, ip, lr}^
    8c1c:	414d544e 	cmpmi	sp, lr, asr #8
    8c20:	414d5f58 	cmpmi	sp, r8, asr pc
    8c24:	205f5f58 	subscs	r5, pc, r8, asr pc	; <UNPREDICTABLE>
    8c28:	66667830 			; <UNDEFINED> instruction: 0x66667830
    8c2c:	66666666 	strbtvs	r6, [r6], -r6, ror #12
    8c30:	66666666 	strbtvs	r6, [r6], -r6, ror #12
    8c34:	66666666 	strbtvs	r6, [r6], -r6, ror #12
    8c38:	4c556666 	mrrcmi	6, 6, r6, r5, cr6
    8c3c:	5f5f004c 	svcpl	0x005f004c
    8c40:	5f4c4244 	svcpl	0x004c4244
    8c44:	544e414d 	strbpl	r4, [lr], #-333	; 0xfffffeb3
    8c48:	4749445f 	smlsldmi	r4, r9, pc, r4	; <UNPREDICTABLE>
    8c4c:	35205f5f 	strcc	r5, [r0, #-3935]!	; 0xfffff0a1
    8c50:	5f5f0033 	svcpl	0x005f0033
    8c54:	52464c55 	subpl	r4, r6, #21760	; 0x5500
    8c58:	5f544341 	svcpl	0x00544341
    8c5c:	54494249 	strbpl	r4, [r9], #-585	; 0xfffffdb7
    8c60:	30205f5f 	eorcc	r5, r0, pc, asr pc
    8c64:	434e4900 	movtmi	r4, #59648	; 0xe900
    8c68:	44434c5f 	strbmi	r4, [r3], #-3167	; 0xfffff3a1
    8c6c:	205f485f 	subscs	r4, pc, pc, asr r8	; <UNPREDICTABLE>
    8c70:	535f5f00 	cmppl	pc, #0, 30
    8c74:	4c5f5359 	mrrcmi	3, 5, r5, pc, cr9	; <UNPREDICTABLE>
    8c78:	5f4b434f 	svcpl	0x004b434f
    8c7c:	205f5f48 	subscs	r5, pc, r8, asr #30
    8c80:	6e5f5f00 	cdpvs	15, 5, cr5, cr15, cr0, {0}
    8c84:	6e61736f 	cdpvs	3, 6, cr7, cr1, cr15, {3}
    8c88:	7a697469 	bvc	1a65e34 <_Min_Stack_Size+0x1a65a34>
    8c8c:	72687465 	rsbvc	r7, r8, #1694498816	; 0x65000000
    8c90:	20646165 	rsbcs	r6, r4, r5, ror #2
    8c94:	755f5f00 	ldrbvc	r5, [pc, #-3840]	; 7d9c <_Min_Stack_Size+0x799c>
    8c98:	6e6f6c5f 	mcrvs	12, 3, r6, cr15, cr15, {2}
    8c9c:	65645f67 	strbvs	r5, [r4, #-3943]!	; 0xfffff099
    8ca0:	656e6966 	strbvs	r6, [lr, #-2406]!	; 0xfffff69a
    8ca4:	74002064 	strvc	r2, [r0], #-100	; 0xffffff9c
    8ca8:	6156706d 	cmpvs	r6, sp, rrx
    8cac:	5f5f006c 	svcpl	0x005f006c
    8cb0:	5f4d5241 	svcpl	0x004d5241
    8cb4:	49424145 	stmdbmi	r2, {r0, r2, r6, r8, lr}^
    8cb8:	31205f5f 			; <UNDEFINED> instruction: 0x31205f5f
    8cbc:	495f5f00 	ldmdbmi	pc, {r8, r9, sl, fp, ip, lr}^	; <UNPREDICTABLE>
    8cc0:	4c5f544e 	cfldrdmi	mvd5, [pc], {78}	; 0x4e
    8cc4:	54534145 	ldrbpl	r4, [r3], #-325	; 0xfffffebb
    8cc8:	545f3436 	ldrbpl	r3, [pc], #-1078	; 8cd0 <_Min_Stack_Size+0x88d0>
    8ccc:	5f455059 	svcpl	0x00455059
    8cd0:	6f6c205f 	svcvs	0x006c205f
    8cd4:	6c20676e 	stcvs	7, cr6, [r0], #-440	; 0xfffffe48
    8cd8:	20676e6f 	rsbcs	r6, r7, pc, ror #28
    8cdc:	00746e69 	rsbseq	r6, r4, r9, ror #28
    8ce0:	4f495047 	svcmi	0x00495047
    8ce4:	4e49505f 	mcrmi	0, 2, r5, cr9, cr15, {2}
    8ce8:	4c4c415f 	stfmie	f4, [ip], {95}	; 0x5f
    8cec:	75282820 	strvc	r2, [r8, #-2080]!	; 0xfffff7e0
    8cf0:	31746e69 	cmncc	r4, r9, ror #28
    8cf4:	29745f36 	ldmdbcs	r4!, {r1, r2, r4, r5, r8, r9, sl, fp, ip, lr}^
    8cf8:	46467830 			; <UNDEFINED> instruction: 0x46467830
    8cfc:	00294646 	eoreq	r4, r9, r6, asr #12
    8d00:	52415f5f 	subpl	r5, r1, #380	; 0x17c
    8d04:	45465f4d 	strbmi	r5, [r6, #-3917]	; 0xfffff0b3
    8d08:	52555441 	subspl	r5, r5, #1090519040	; 0x41000000
    8d0c:	44435f45 	strbmi	r5, [r3], #-3909	; 0xfffff0bb
    8d10:	4f435f45 	svcmi	0x00435f45
    8d14:	434f5250 	movtmi	r5, #62032	; 0xf250
    8d18:	565f5f00 	ldrbpl	r5, [pc], -r0, lsl #30
    8d1c:	49535245 	ldmdbmi	r3, {r0, r2, r6, r9, ip, lr}^
    8d20:	5f5f4e4f 	svcpl	0x005f4e4f
    8d24:	30312220 	eorscc	r2, r1, r0, lsr #4
    8d28:	312e332e 			; <UNDEFINED> instruction: 0x312e332e
    8d2c:	32303220 	eorscc	r3, r0, #32, 4
    8d30:	32383031 	eorscc	r3, r8, #49	; 0x31
    8d34:	72282034 	eorvc	r2, r8, #52	; 0x34
    8d38:	61656c65 	cmnvs	r5, r5, ror #24
    8d3c:	22296573 	eorcs	r6, r9, #482344960	; 0x1cc00000
    8d40:	54584500 	ldrbpl	r4, [r8], #-1280	; 0xfffffb00
    8d44:	50353149 	eorspl	r3, r5, r9, asr #2
    8d48:	20353144 	eorscs	r3, r5, r4, asr #2
    8d4c:	54584528 	ldrbpl	r4, [r8], #-1320	; 0xfffffad8
    8d50:	49505f49 	ldmdbmi	r0, {r0, r3, r6, r8, r9, sl, fp, ip, lr}^
    8d54:	414d5f4e 	cmpmi	sp, lr, asr #30
    8d58:	4e495050 	mcrmi	0, 2, r5, cr9, cr0, {2}
    8d5c:	29745f47 	ldmdbcs	r4!, {r0, r1, r2, r6, r8, r9, sl, fp, ip, lr}^
    8d60:	5458457b 	ldrbpl	r4, [r8], #-1403	; 0xfffffa85
    8d64:	2c353149 	ldfcss	f3, [r5], #-292	; 0xfffffedc
    8d68:	4f495047 	svcmi	0x00495047
    8d6c:	50472c44 	subpl	r2, r7, r4, asr #24
    8d70:	505f4f49 	subspl	r4, pc, r9, asr #30
    8d74:	315f4e49 	cmpcc	pc, r9, asr #28
    8d78:	58452c35 	stmdapl	r5, {r0, r2, r4, r5, sl, fp, sp}^
    8d7c:	35314954 	ldrcc	r4, [r1, #-2388]!	; 0xfffff6ac
    8d80:	5152495f 	cmppl	r2, pc, asr r9
    8d84:	5845007d 	stmdapl	r5, {r0, r2, r3, r4, r5, r6}^
    8d88:	33314954 	teqcc	r1, #84, 18	; 0x150000
    8d8c:	33314450 	teqcc	r1, #80, 8	; 0x50000000
    8d90:	58452820 	stmdapl	r5, {r5, fp, sp}^
    8d94:	505f4954 	subspl	r4, pc, r4, asr r9	; <UNPREDICTABLE>
    8d98:	4d5f4e49 	ldclmi	14, cr4, [pc, #-292]	; 8c7c <_Min_Stack_Size+0x887c>
    8d9c:	49505041 	ldmdbmi	r0, {r0, r6, ip, lr}^
    8da0:	745f474e 	ldrbvc	r4, [pc], #-1870	; 8da8 <_Min_Stack_Size+0x89a8>
    8da4:	58457b29 	stmdapl	r5, {r0, r3, r5, r8, r9, fp, ip, sp, lr}^
    8da8:	33314954 	teqcc	r1, #84, 18	; 0x150000
    8dac:	4950472c 	ldmdbmi	r0, {r2, r3, r5, r8, r9, sl, lr}^
    8db0:	472c444f 	strmi	r4, [ip, -pc, asr #8]!
    8db4:	5f4f4950 	svcpl	0x004f4950
    8db8:	5f4e4950 	svcpl	0x004e4950
    8dbc:	452c3331 	strmi	r3, [ip, #-817]!	; 0xfffffccf
    8dc0:	31495458 	cmpcc	r9, r8, asr r4
    8dc4:	52495f33 	subpl	r5, r9, #51, 30	; 0xcc
    8dc8:	45007d51 	strmi	r7, [r0, #-3409]	; 0xfffff2af
    8dcc:	5f495458 	svcpl	0x00495458
    8dd0:	5f545649 	svcpl	0x00545649
    8dd4:	00515249 	subseq	r5, r1, r9, asr #4
    8dd8:	49545845 	ldmdbmi	r4, {r0, r2, r6, fp, ip, lr}^
    8ddc:	5152495f 	cmppl	r2, pc, asr r9
    8de0:	414e455f 	cmpmi	lr, pc, asr r5
    8de4:	20454c42 	subcs	r4, r5, r2, asr #24
    8de8:	52540031 	subspl	r0, r4, #49	; 0x31
    8dec:	45474749 	strbmi	r4, [r7, #-1865]	; 0xfffff8b7
    8df0:	41435f52 	cmpmi	r3, r2, asr pc
    8df4:	45004553 	strmi	r4, [r0, #-1363]	; 0xfffffaad
    8df8:	35495458 	strbcc	r5, [r9, #-1112]	; 0xfffffba8
    8dfc:	20354450 	eorscs	r4, r5, r0, asr r4
    8e00:	54584528 	ldrbpl	r4, [r8], #-1320	; 0xfffffad8
    8e04:	49505f49 	ldmdbmi	r0, {r0, r3, r6, r8, r9, sl, fp, ip, lr}^
    8e08:	414d5f4e 	cmpmi	sp, lr, asr #30
    8e0c:	4e495050 	mcrmi	0, 2, r5, cr9, cr0, {2}
    8e10:	29745f47 	ldmdbcs	r4!, {r0, r1, r2, r6, r8, r9, sl, fp, ip, lr}^
    8e14:	5458457b 	ldrbpl	r4, [r8], #-1403	; 0xfffffa85
    8e18:	472c3549 	strmi	r3, [ip, -r9, asr #10]!
    8e1c:	444f4950 	strbmi	r4, [pc], #-2384	; 8e24 <_Min_Stack_Size+0x8a24>
    8e20:	4950472c 	ldmdbmi	r0, {r2, r3, r5, r8, r9, sl, lr}^
    8e24:	49505f4f 	ldmdbmi	r0, {r0, r1, r2, r3, r6, r8, r9, sl, fp, ip, lr}^
    8e28:	2c355f4e 	ldccs	15, cr5, [r5], #-312	; 0xfffffec8
    8e2c:	49545845 	ldmdbmi	r4, {r0, r2, r6, fp, ip, lr}^
    8e30:	52495f35 	subpl	r5, r9, #53, 30	; 0xd4
    8e34:	45007d51 	strmi	r7, [r0, #-3409]	; 0xfffff2af
    8e38:	31495458 	cmpcc	r9, r8, asr r4
    8e3c:	31445034 	cmpcc	r4, r4, lsr r0
    8e40:	45282034 	strmi	r2, [r8, #-52]!	; 0xffffffcc
    8e44:	5f495458 	svcpl	0x00495458
    8e48:	5f4e4950 	svcpl	0x004e4950
    8e4c:	5050414d 	subspl	r4, r0, sp, asr #2
    8e50:	5f474e49 	svcpl	0x00474e49
    8e54:	457b2974 	ldrbmi	r2, [fp, #-2420]!	; 0xfffff68c
    8e58:	31495458 	cmpcc	r9, r8, asr r4
    8e5c:	50472c34 	subpl	r2, r7, r4, lsr ip
    8e60:	2c444f49 	mcrrcs	15, 4, r4, r4, cr9
    8e64:	4f495047 	svcmi	0x00495047
    8e68:	4e49505f 	mcrmi	0, 2, r5, cr9, cr15, {2}
    8e6c:	2c34315f 	ldfcss	f3, [r4], #-380	; 0xfffffe84
    8e70:	49545845 	ldmdbmi	r4, {r0, r2, r6, fp, ip, lr}^
    8e74:	495f3431 	ldmdbmi	pc, {r0, r4, r5, sl, ip, sp}^	; <UNPREDICTABLE>
    8e78:	007d5152 	rsbseq	r5, sp, r2, asr r1
    8e7c:	49545845 	ldmdbmi	r4, {r0, r2, r6, fp, ip, lr}^
    8e80:	35415035 	strbcc	r5, [r1, #-53]	; 0xffffffcb
    8e84:	58452820 	stmdapl	r5, {r5, fp, sp}^
    8e88:	505f4954 	subspl	r4, pc, r4, asr r9	; <UNPREDICTABLE>
    8e8c:	4d5f4e49 	ldclmi	14, cr4, [pc, #-292]	; 8d70 <_Min_Stack_Size+0x8970>
    8e90:	49505041 	ldmdbmi	r0, {r0, r6, ip, lr}^
    8e94:	745f474e 	ldrbvc	r4, [pc], #-1870	; 8e9c <_Min_Stack_Size+0x8a9c>
    8e98:	58457b29 	stmdapl	r5, {r0, r3, r5, r8, r9, fp, ip, sp, lr}^
    8e9c:	2c354954 			; <UNDEFINED> instruction: 0x2c354954
    8ea0:	4f495047 	svcmi	0x00495047
    8ea4:	50472c41 	subpl	r2, r7, r1, asr #24
    8ea8:	505f4f49 	subspl	r4, pc, r9, asr #30
    8eac:	355f4e49 	ldrbcc	r4, [pc, #-3657]	; 806b <_Min_Stack_Size+0x7c6b>
    8eb0:	5458452c 	ldrbpl	r4, [r8], #-1324	; 0xfffffad4
    8eb4:	495f3549 	ldmdbmi	pc, {r0, r3, r6, r8, sl, ip, sp}^	; <UNPREDICTABLE>
    8eb8:	7d205152 	stfvcs	f5, [r0, #-328]!	; 0xfffffeb8
    8ebc:	54584500 	ldrbpl	r4, [r8], #-1280	; 0xfffffb00
    8ec0:	20303149 	eorscs	r3, r0, r9, asr #2
    8ec4:	45003031 	strmi	r3, [r0, #-49]	; 0xffffffcf
    8ec8:	31495458 	cmpcc	r9, r8, asr r4
    8ecc:	31415031 	cmpcc	r1, r1, lsr r0
    8ed0:	45282031 	strmi	r2, [r8, #-49]!	; 0xffffffcf
    8ed4:	5f495458 	svcpl	0x00495458
    8ed8:	5f4e4950 	svcpl	0x004e4950
    8edc:	5050414d 	subspl	r4, r0, sp, asr #2
    8ee0:	5f474e49 	svcpl	0x00474e49
    8ee4:	457b2974 	ldrbmi	r2, [fp, #-2420]!	; 0xfffff68c
    8ee8:	31495458 	cmpcc	r9, r8, asr r4
    8eec:	50472c31 	subpl	r2, r7, r1, lsr ip
    8ef0:	2c414f49 	mcrrcs	15, 4, r4, r1, cr9
    8ef4:	4f495047 	svcmi	0x00495047
    8ef8:	4e49505f 	mcrmi	0, 2, r5, cr9, cr15, {2}
    8efc:	2c31315f 	ldfcss	f3, [r1], #-380	; 0xfffffe84
    8f00:	49545845 	ldmdbmi	r4, {r0, r2, r6, fp, ip, lr}^
    8f04:	495f3131 	ldmdbmi	pc, {r0, r4, r5, r8, ip, sp}^	; <UNPREDICTABLE>
    8f08:	7d205152 	stfvcs	f5, [r0, #-328]!	; 0xfffffeb8
    8f0c:	54584500 	ldrbpl	r4, [r8], #-1280	; 0xfffffb00
    8f10:	20343149 	eorscs	r3, r4, r9, asr #2
    8f14:	45003431 	strmi	r3, [r0, #-1073]	; 0xfffffbcf
    8f18:	5f495458 	svcpl	0x00495458
    8f1c:	5f4e4950 	svcpl	0x004e4950
    8f20:	464e4f43 	strbmi	r4, [lr], -r3, asr #30
    8f24:	745f4749 	ldrbvc	r4, [pc], #-1865	; 8f2c <_Min_Stack_Size+0x8b2c>
    8f28:	54584500 	ldrbpl	r4, [r8], #-1280	; 0xfffffb00
    8f2c:	66635f49 	strbtvs	r5, [r3], -r9, asr #30
    8f30:	41560067 	cmpmi	r6, r7, rrx
    8f34:	5600314c 	strpl	r3, [r0], -ip, asr #2
    8f38:	00324c41 	eorseq	r4, r2, r1, asr #24
    8f3c:	334c4156 	movtcc	r4, #49494	; 0xc156
    8f40:	54584500 	ldrbpl	r4, [r8], #-1280	; 0xfffffb00
    8f44:	43503049 	cmpmi	r0, #73	; 0x49
    8f48:	45282030 	strmi	r2, [r8, #-48]!	; 0xffffffd0
    8f4c:	5f495458 	svcpl	0x00495458
    8f50:	5f4e4950 	svcpl	0x004e4950
    8f54:	5050414d 	subspl	r4, r0, sp, asr #2
    8f58:	5f474e49 	svcpl	0x00474e49
    8f5c:	457b2974 	ldrbmi	r2, [fp, #-2420]!	; 0xfffff68c
    8f60:	30495458 	subcc	r5, r9, r8, asr r4
    8f64:	4950472c 	ldmdbmi	r0, {r2, r3, r5, r8, r9, sl, lr}^
    8f68:	472c434f 	strmi	r4, [ip, -pc, asr #6]!
    8f6c:	5f4f4950 	svcpl	0x004f4950
    8f70:	5f4e4950 	svcpl	0x004e4950
    8f74:	58452c30 	stmdapl	r5, {r4, r5, sl, fp, sp}^
    8f78:	5f304954 	svcpl	0x00304954
    8f7c:	7d515249 	lfmvc	f5, 2, [r1, #-292]	; 0xfffffedc
    8f80:	54584500 	ldrbpl	r4, [r8], #-1280	; 0xfffffb00
    8f84:	52545f49 	subspl	r5, r4, #292	; 0x124
    8f88:	45474749 	strbmi	r4, [r7, #-1865]	; 0xfffff8b7
    8f8c:	41465f52 	cmpmi	r6, r2, asr pc
    8f90:	4e494c4c 	cdpmi	12, 4, cr4, cr9, cr12, {2}
    8f94:	44455f47 	strbmi	r5, [r5], #-3911	; 0xfffff0b9
    8f98:	31204547 			; <UNDEFINED> instruction: 0x31204547
    8f9c:	54584500 	ldrbpl	r4, [r8], #-1280	; 0xfffffb00
    8fa0:	50303149 	eorspl	r3, r0, r9, asr #2
    8fa4:	20303144 	eorscs	r3, r0, r4, asr #2
    8fa8:	54584528 	ldrbpl	r4, [r8], #-1320	; 0xfffffad8
    8fac:	49505f49 	ldmdbmi	r0, {r0, r3, r6, r8, r9, sl, fp, ip, lr}^
    8fb0:	414d5f4e 	cmpmi	sp, lr, asr #30
    8fb4:	4e495050 	mcrmi	0, 2, r5, cr9, cr0, {2}
    8fb8:	29745f47 	ldmdbcs	r4!, {r0, r1, r2, r6, r8, r9, sl, fp, ip, lr}^
    8fbc:	5458457b 	ldrbpl	r4, [r8], #-1403	; 0xfffffa85
    8fc0:	2c303149 	ldfcss	f3, [r0], #-292	; 0xfffffedc
    8fc4:	4f495047 	svcmi	0x00495047
    8fc8:	50472c44 	subpl	r2, r7, r4, asr #24
    8fcc:	505f4f49 	subspl	r4, pc, r9, asr #30
    8fd0:	315f4e49 	cmpcc	pc, r9, asr #28
    8fd4:	58452c30 	stmdapl	r5, {r4, r5, sl, fp, sp}^
    8fd8:	30314954 	eorscc	r4, r1, r4, asr r9
    8fdc:	5152495f 	cmppl	r2, pc, asr r9
    8fe0:	5845007d 	stmdapl	r5, {r0, r2, r3, r4, r5, r6}^
    8fe4:	20314954 	eorscs	r4, r1, r4, asr r9
    8fe8:	58450031 	stmdapl	r5, {r0, r4, r5}^
    8fec:	20394954 	eorscs	r4, r9, r4, asr r9
    8ff0:	616d0039 	cmnvs	sp, r9, lsr r0
    8ff4:	45006e69 	strmi	r6, [r0, #-3689]	; 0xfffff197
    8ff8:	34495458 	strbcc	r5, [r9], #-1112	; 0xfffffba8
    8ffc:	20344150 	eorscs	r4, r4, r0, asr r1
    9000:	54584528 	ldrbpl	r4, [r8], #-1320	; 0xfffffad8
    9004:	49505f49 	ldmdbmi	r0, {r0, r3, r6, r8, r9, sl, fp, ip, lr}^
    9008:	414d5f4e 	cmpmi	sp, lr, asr #30
    900c:	4e495050 	mcrmi	0, 2, r5, cr9, cr0, {2}
    9010:	29745f47 	ldmdbcs	r4!, {r0, r1, r2, r6, r8, r9, sl, fp, ip, lr}^
    9014:	5458457b 	ldrbpl	r4, [r8], #-1403	; 0xfffffa85
    9018:	472c3449 	strmi	r3, [ip, -r9, asr #8]!
    901c:	414f4950 	cmpmi	pc, r0, asr r9	; <UNPREDICTABLE>
    9020:	4950472c 	ldmdbmi	r0, {r2, r3, r5, r8, r9, sl, lr}^
    9024:	49505f4f 	ldmdbmi	r0, {r0, r1, r2, r3, r6, r8, r9, sl, fp, ip, lr}^
    9028:	2c345f4e 	ldccs	15, cr5, [r4], #-312	; 0xfffffec8
    902c:	49545845 	ldmdbmi	r4, {r0, r2, r6, fp, ip, lr}^
    9030:	52495f34 	subpl	r5, r9, #52, 30	; 0xd0
    9034:	007d2051 	rsbseq	r2, sp, r1, asr r0
    9038:	49545845 	ldmdbmi	r4, {r0, r2, r6, fp, ip, lr}^
    903c:	43503031 	cmpmi	r0, #49	; 0x31
    9040:	28203031 	stmdacs	r0!, {r0, r4, r5, ip, sp}
    9044:	49545845 	ldmdbmi	r4, {r0, r2, r6, fp, ip, lr}^
    9048:	4e49505f 	mcrmi	0, 2, r5, cr9, cr15, {2}
    904c:	50414d5f 	subpl	r4, r1, pc, asr sp
    9050:	474e4950 	smlsldmi	r4, lr, r0, r9
    9054:	7b29745f 	blvc	a661d8 <_Min_Stack_Size+0xa65dd8>
    9058:	49545845 	ldmdbmi	r4, {r0, r2, r6, fp, ip, lr}^
    905c:	472c3031 			; <UNDEFINED> instruction: 0x472c3031
    9060:	434f4950 	movtmi	r4, #63824	; 0xf950
    9064:	4950472c 	ldmdbmi	r0, {r2, r3, r5, r8, r9, sl, lr}^
    9068:	49505f4f 	ldmdbmi	r0, {r0, r1, r2, r3, r6, r8, r9, sl, fp, ip, lr}^
    906c:	30315f4e 	eorscc	r5, r1, lr, asr #30
    9070:	5458452c 	ldrbpl	r4, [r8], #-1324	; 0xfffffad4
    9074:	5f303149 	svcpl	0x00303149
    9078:	7d515249 	lfmvc	f5, 2, [r1, #-292]	; 0xfffffedc
    907c:	42504100 	subsmi	r4, r0, #0, 2
    9080:	524e4532 	subpl	r4, lr, #209715200	; 0xc800000
    9084:	41434d00 	cmpmi	r3, r0, lsl #26
    9088:	58455f4c 	stmdapl	r5, {r2, r3, r6, r8, r9, sl, fp, ip, lr}^
    908c:	495f4954 	ldmdbmi	pc, {r2, r4, r6, r8, fp, lr}^	; <UNPREDICTABLE>
    9090:	0074696e 	rsbseq	r6, r4, lr, ror #18
    9094:	49545845 	ldmdbmi	r4, {r0, r2, r6, fp, ip, lr}^
    9098:	31425031 	cmpcc	r2, r1, lsr r0
    909c:	58452820 	stmdapl	r5, {r5, fp, sp}^
    90a0:	505f4954 	subspl	r4, pc, r4, asr r9	; <UNPREDICTABLE>
    90a4:	4d5f4e49 	ldclmi	14, cr4, [pc, #-292]	; 8f88 <_Min_Stack_Size+0x8b88>
    90a8:	49505041 	ldmdbmi	r0, {r0, r6, ip, lr}^
    90ac:	745f474e 	ldrbvc	r4, [pc], #-1870	; 90b4 <_Min_Stack_Size+0x8cb4>
    90b0:	58457b29 	stmdapl	r5, {r0, r3, r5, r8, r9, fp, ip, sp, lr}^
    90b4:	2c314954 			; <UNDEFINED> instruction: 0x2c314954
    90b8:	4f495047 	svcmi	0x00495047
    90bc:	50472c42 	subpl	r2, r7, r2, asr #24
    90c0:	505f4f49 	subspl	r4, pc, r9, asr #30
    90c4:	315f4e49 	cmpcc	pc, r9, asr #28
    90c8:	5458452c 	ldrbpl	r4, [r8], #-1324	; 0xfffffad4
    90cc:	495f3149 	ldmdbmi	pc, {r0, r3, r6, r8, ip, sp}^	; <UNPREDICTABLE>
    90d0:	7d205152 	stfvcs	f5, [r0, #-328]!	; 0xfffffeb8
    90d4:	54584500 	ldrbpl	r4, [r8], #-1280	; 0xfffffb00
    90d8:	44503049 	ldrbmi	r3, [r0], #-73	; 0xffffffb7
    90dc:	45282030 	strmi	r2, [r8, #-48]!	; 0xffffffd0
    90e0:	5f495458 	svcpl	0x00495458
    90e4:	5f4e4950 	svcpl	0x004e4950
    90e8:	5050414d 	subspl	r4, r0, sp, asr #2
    90ec:	5f474e49 	svcpl	0x00474e49
    90f0:	457b2974 	ldrbmi	r2, [fp, #-2420]!	; 0xfffff68c
    90f4:	30495458 	subcc	r5, r9, r8, asr r4
    90f8:	4950472c 	ldmdbmi	r0, {r2, r3, r5, r8, r9, sl, lr}^
    90fc:	472c444f 	strmi	r4, [ip, -pc, asr #8]!
    9100:	5f4f4950 	svcpl	0x004f4950
    9104:	5f4e4950 	svcpl	0x004e4950
    9108:	58452c30 	stmdapl	r5, {r4, r5, sl, fp, sp}^
    910c:	5f304954 	svcpl	0x00304954
    9110:	7d515249 	lfmvc	f5, 2, [r1, #-292]	; 0xfffffedc
    9114:	54584500 	ldrbpl	r4, [r8], #-1280	; 0xfffffb00
    9118:	43503949 	cmpmi	r0, #1196032	; 0x124000
    911c:	45282039 	strmi	r2, [r8, #-57]!	; 0xffffffc7
    9120:	5f495458 	svcpl	0x00495458
    9124:	5f4e4950 	svcpl	0x004e4950
    9128:	5050414d 	subspl	r4, r0, sp, asr #2
    912c:	5f474e49 	svcpl	0x00474e49
    9130:	457b2974 	ldrbmi	r2, [fp, #-2420]!	; 0xfffff68c
    9134:	39495458 	stmdbcc	r9, {r3, r4, r6, sl, ip, lr}^
    9138:	4950472c 	ldmdbmi	r0, {r2, r3, r5, r8, r9, sl, lr}^
    913c:	472c434f 	strmi	r4, [ip, -pc, asr #6]!
    9140:	5f4f4950 	svcpl	0x004f4950
    9144:	5f4e4950 	svcpl	0x004e4950
    9148:	58452c39 	stmdapl	r5, {r0, r3, r4, r5, sl, fp, sp}^
    914c:	5f394954 	svcpl	0x00394954
    9150:	7d515249 	lfmvc	f5, 2, [r1, #-292]	; 0xfffffedc
    9154:	54584500 	ldrbpl	r4, [r8], #-1280	; 0xfffffb00
    9158:	44503149 	ldrbmi	r3, [r0], #-329	; 0xfffffeb7
    915c:	45282031 	strmi	r2, [r8, #-49]!	; 0xffffffcf
    9160:	5f495458 	svcpl	0x00495458
    9164:	5f4e4950 	svcpl	0x004e4950
    9168:	5050414d 	subspl	r4, r0, sp, asr #2
    916c:	5f474e49 	svcpl	0x00474e49
    9170:	457b2974 	ldrbmi	r2, [fp, #-2420]!	; 0xfffff68c
    9174:	31495458 	cmpcc	r9, r8, asr r4
    9178:	4950472c 	ldmdbmi	r0, {r2, r3, r5, r8, r9, sl, lr}^
    917c:	472c444f 	strmi	r4, [ip, -pc, asr #8]!
    9180:	5f4f4950 	svcpl	0x004f4950
    9184:	5f4e4950 	svcpl	0x004e4950
    9188:	58452c31 	stmdapl	r5, {r0, r4, r5, sl, fp, sp}^
    918c:	5f314954 	svcpl	0x00314954
    9190:	7d515249 	lfmvc	f5, 2, [r1, #-292]	; 0xfffffedc
    9194:	49504700 	ldmdbmi	r0, {r8, r9, sl, lr}^
    9198:	69705f4f 	ldmdbvs	r0!, {r0, r1, r2, r3, r6, r8, r9, sl, fp, ip, lr}^
    919c:	5049006e 	subpl	r0, r9, lr, rrx
    91a0:	485f5253 	ldmdami	pc, {r0, r1, r4, r6, r9, ip, lr}^	; <UNPREDICTABLE>
    91a4:	6c646e61 	stclvs	14, cr6, [r4], #-388	; 0xfffffe7c
    91a8:	4d5f7265 	lfmmi	f7, 2, [pc, #-404]	; 901c <_Min_Stack_Size+0x8c1c>
    91ac:	0065646f 	rsbeq	r6, r5, pc, ror #8
    91b0:	49545845 	ldmdbmi	r4, {r0, r2, r6, fp, ip, lr}^
    91b4:	36425036 			; <UNDEFINED> instruction: 0x36425036
    91b8:	58452820 	stmdapl	r5, {r5, fp, sp}^
    91bc:	505f4954 	subspl	r4, pc, r4, asr r9	; <UNPREDICTABLE>
    91c0:	4d5f4e49 	ldclmi	14, cr4, [pc, #-292]	; 90a4 <_Min_Stack_Size+0x8ca4>
    91c4:	49505041 	ldmdbmi	r0, {r0, r6, ip, lr}^
    91c8:	745f474e 	ldrbvc	r4, [pc], #-1870	; 91d0 <_Min_Stack_Size+0x8dd0>
    91cc:	58457b29 	stmdapl	r5, {r0, r3, r5, r8, r9, fp, ip, sp, lr}^
    91d0:	2c364954 			; <UNDEFINED> instruction: 0x2c364954
    91d4:	4f495047 	svcmi	0x00495047
    91d8:	50472c42 	subpl	r2, r7, r2, asr #24
    91dc:	505f4f49 	subspl	r4, pc, r9, asr #30
    91e0:	365f4e49 	ldrbcc	r4, [pc], -r9, asr #28
    91e4:	5458452c 	ldrbpl	r4, [r8], #-1324	; 0xfffffad4
    91e8:	495f3649 	ldmdbmi	pc, {r0, r3, r6, r9, sl, ip, sp}^	; <UNPREDICTABLE>
    91ec:	7d205152 	stfvcs	f5, [r0, #-328]!	; 0xfffffeb8
    91f0:	54584500 	ldrbpl	r4, [r8], #-1280	; 0xfffffb00
    91f4:	42503449 	subsmi	r3, r0, #1224736768	; 0x49000000
    91f8:	45282034 	strmi	r2, [r8, #-52]!	; 0xffffffcc
    91fc:	5f495458 	svcpl	0x00495458
    9200:	5f4e4950 	svcpl	0x004e4950
    9204:	5050414d 	subspl	r4, r0, sp, asr #2
    9208:	5f474e49 	svcpl	0x00474e49
    920c:	457b2974 	ldrbmi	r2, [fp, #-2420]!	; 0xfffff68c
    9210:	34495458 	strbcc	r5, [r9], #-1112	; 0xfffffba8
    9214:	4950472c 	ldmdbmi	r0, {r2, r3, r5, r8, r9, sl, lr}^
    9218:	472c424f 	strmi	r4, [ip, -pc, asr #4]!
    921c:	5f4f4950 	svcpl	0x004f4950
    9220:	5f4e4950 	svcpl	0x004e4950
    9224:	58452c34 	stmdapl	r5, {r2, r4, r5, sl, fp, sp}^
    9228:	5f344954 	svcpl	0x00344954
    922c:	20515249 	subscs	r5, r1, r9, asr #4
    9230:	5845007d 	stmdapl	r5, {r0, r2, r3, r4, r5, r6}^
    9234:	30314954 	eorscc	r4, r1, r4, asr r9
    9238:	30314250 	eorscc	r4, r1, r0, asr r2
    923c:	58452820 	stmdapl	r5, {r5, fp, sp}^
    9240:	505f4954 	subspl	r4, pc, r4, asr r9	; <UNPREDICTABLE>
    9244:	4d5f4e49 	ldclmi	14, cr4, [pc, #-292]	; 9128 <_Min_Stack_Size+0x8d28>
    9248:	49505041 	ldmdbmi	r0, {r0, r6, ip, lr}^
    924c:	745f474e 	ldrbvc	r4, [pc], #-1870	; 9254 <_Min_Stack_Size+0x8e54>
    9250:	58457b29 	stmdapl	r5, {r0, r3, r5, r8, r9, fp, ip, sp, lr}^
    9254:	30314954 	eorscc	r4, r1, r4, asr r9
    9258:	4950472c 	ldmdbmi	r0, {r2, r3, r5, r8, r9, sl, lr}^
    925c:	472c424f 	strmi	r4, [ip, -pc, asr #4]!
    9260:	5f4f4950 	svcpl	0x004f4950
    9264:	5f4e4950 	svcpl	0x004e4950
    9268:	452c3031 	strmi	r3, [ip, #-49]!	; 0xffffffcf
    926c:	31495458 	cmpcc	r9, r8, asr r4
    9270:	52495f30 	subpl	r5, r9, #48, 30	; 0xc0
    9274:	007d2051 	rsbseq	r2, sp, r1, asr r0
    9278:	49545845 	ldmdbmi	r4, {r0, r2, r6, fp, ip, lr}^
    927c:	39445039 	stmdbcc	r4, {r0, r3, r4, r5, ip, lr}^
    9280:	58452820 	stmdapl	r5, {r5, fp, sp}^
    9284:	505f4954 	subspl	r4, pc, r4, asr r9	; <UNPREDICTABLE>
    9288:	4d5f4e49 	ldclmi	14, cr4, [pc, #-292]	; 916c <_Min_Stack_Size+0x8d6c>
    928c:	49505041 	ldmdbmi	r0, {r0, r6, ip, lr}^
    9290:	745f474e 	ldrbvc	r4, [pc], #-1870	; 9298 <_Min_Stack_Size+0x8e98>
    9294:	58457b29 	stmdapl	r5, {r0, r3, r5, r8, r9, fp, ip, sp, lr}^
    9298:	2c394954 			; <UNDEFINED> instruction: 0x2c394954
    929c:	4f495047 	svcmi	0x00495047
    92a0:	50472c44 	subpl	r2, r7, r4, asr #24
    92a4:	505f4f49 	subspl	r4, pc, r9, asr #30
    92a8:	395f4e49 	ldmdbcc	pc, {r0, r3, r6, r9, sl, fp, lr}^	; <UNPREDICTABLE>
    92ac:	5458452c 	ldrbpl	r4, [r8], #-1324	; 0xfffffad4
    92b0:	495f3949 	ldmdbmi	pc, {r0, r3, r6, r8, fp, ip, sp}^	; <UNPREDICTABLE>
    92b4:	007d5152 	rsbseq	r5, sp, r2, asr r1
    92b8:	49545845 	ldmdbmi	r4, {r0, r2, r6, fp, ip, lr}^
    92bc:	43503331 	cmpmi	r0, #-1006632960	; 0xc4000000
    92c0:	28203331 	stmdacs	r0!, {r0, r4, r5, r8, r9, ip, sp}
    92c4:	49545845 	ldmdbmi	r4, {r0, r2, r6, fp, ip, lr}^
    92c8:	4e49505f 	mcrmi	0, 2, r5, cr9, cr15, {2}
    92cc:	50414d5f 	subpl	r4, r1, pc, asr sp
    92d0:	474e4950 	smlsldmi	r4, lr, r0, r9
    92d4:	7b29745f 	blvc	a66458 <_Min_Stack_Size+0xa66058>
    92d8:	49545845 	ldmdbmi	r4, {r0, r2, r6, fp, ip, lr}^
    92dc:	472c3331 			; <UNDEFINED> instruction: 0x472c3331
    92e0:	434f4950 	movtmi	r4, #63824	; 0xf950
    92e4:	4950472c 	ldmdbmi	r0, {r2, r3, r5, r8, r9, sl, lr}^
    92e8:	49505f4f 	ldmdbmi	r0, {r0, r1, r2, r3, r6, r8, r9, sl, fp, ip, lr}^
    92ec:	33315f4e 	teqcc	r1, #312	; 0x138
    92f0:	5458452c 	ldrbpl	r4, [r8], #-1324	; 0xfffffad4
    92f4:	5f333149 	svcpl	0x00333149
    92f8:	7d515249 	lfmvc	f5, 2, [r1, #-292]	; 0xfffffedc
    92fc:	54584500 	ldrbpl	r4, [r8], #-1280	; 0xfffffb00
    9300:	44503849 	ldrbmi	r3, [r0], #-2121	; 0xfffff7b7
    9304:	45282038 	strmi	r2, [r8, #-56]!	; 0xffffffc8
    9308:	5f495458 	svcpl	0x00495458
    930c:	5f4e4950 	svcpl	0x004e4950
    9310:	5050414d 	subspl	r4, r0, sp, asr #2
    9314:	5f474e49 	svcpl	0x00474e49
    9318:	457b2974 	ldrbmi	r2, [fp, #-2420]!	; 0xfffff68c
    931c:	38495458 	stmdacc	r9, {r3, r4, r6, sl, ip, lr}^
    9320:	4950472c 	ldmdbmi	r0, {r2, r3, r5, r8, r9, sl, lr}^
    9324:	472c444f 	strmi	r4, [ip, -pc, asr #8]!
    9328:	5f4f4950 	svcpl	0x004f4950
    932c:	5f4e4950 	svcpl	0x004e4950
    9330:	58452c38 	stmdapl	r5, {r3, r4, r5, sl, fp, sp}^
    9334:	5f384954 	svcpl	0x00384954
    9338:	7d515249 	lfmvc	f5, 2, [r1, #-292]	; 0xfffffedc
    933c:	54584500 	ldrbpl	r4, [r8], #-1280	; 0xfffffb00
    9340:	50313149 	eorspl	r3, r1, r9, asr #2
    9344:	20313143 	eorscs	r3, r1, r3, asr #2
    9348:	54584528 	ldrbpl	r4, [r8], #-1320	; 0xfffffad8
    934c:	49505f49 	ldmdbmi	r0, {r0, r3, r6, r8, r9, sl, fp, ip, lr}^
    9350:	414d5f4e 	cmpmi	sp, lr, asr #30
    9354:	4e495050 	mcrmi	0, 2, r5, cr9, cr0, {2}
    9358:	29745f47 	ldmdbcs	r4!, {r0, r1, r2, r6, r8, r9, sl, fp, ip, lr}^
    935c:	5458457b 	ldrbpl	r4, [r8], #-1403	; 0xfffffa85
    9360:	2c313149 	ldfcss	f3, [r1], #-292	; 0xfffffedc
    9364:	4f495047 	svcmi	0x00495047
    9368:	50472c43 	subpl	r2, r7, r3, asr #24
    936c:	505f4f49 	subspl	r4, pc, r9, asr #30
    9370:	315f4e49 	cmpcc	pc, r9, asr #28
    9374:	58452c31 	stmdapl	r5, {r0, r4, r5, sl, fp, sp}^
    9378:	31314954 	teqcc	r1, r4, asr r9
    937c:	5152495f 	cmppl	r2, pc, asr r9
    9380:	5845007d 	stmdapl	r5, {r0, r2, r3, r4, r5, r6}^
    9384:	50374954 	eorspl	r4, r7, r4, asr r9
    9388:	28203742 	stmdacs	r0!, {r1, r6, r8, r9, sl, ip, sp}
    938c:	49545845 	ldmdbmi	r4, {r0, r2, r6, fp, ip, lr}^
    9390:	4e49505f 	mcrmi	0, 2, r5, cr9, cr15, {2}
    9394:	50414d5f 	subpl	r4, r1, pc, asr sp
    9398:	474e4950 	smlsldmi	r4, lr, r0, r9
    939c:	7b29745f 	blvc	a66520 <_Min_Stack_Size+0xa66120>
    93a0:	49545845 	ldmdbmi	r4, {r0, r2, r6, fp, ip, lr}^
    93a4:	50472c37 	subpl	r2, r7, r7, lsr ip
    93a8:	2c424f49 	mcrrcs	15, 4, r4, r2, cr9
    93ac:	4f495047 	svcmi	0x00495047
    93b0:	4e49505f 	mcrmi	0, 2, r5, cr9, cr15, {2}
    93b4:	452c375f 	strmi	r3, [ip, #-1887]!	; 0xfffff8a1
    93b8:	37495458 	smlsldcc	r5, r9, r8, r4
    93bc:	5152495f 	cmppl	r2, pc, asr r9
    93c0:	2e007d20 	cdpcs	13, 0, cr7, cr0, cr0, {1}
    93c4:	72532f2e 	subsvc	r2, r3, #46, 30	; 0xb8
    93c8:	616d2f63 	cmnvs	sp, r3, ror #30
    93cc:	632e6e69 			; <UNDEFINED> instruction: 0x632e6e69
    93d0:	51524900 	cmppl	r2, r0, lsl #18
    93d4:	4e41485f 	mcrmi	8, 2, r4, cr1, cr15, {2}
    93d8:	52454c44 	subpl	r4, r5, #68, 24	; 0x4400
    93dc:	43444200 	movtmi	r4, #16896	; 0x4200
    93e0:	58450052 	stmdapl	r5, {r1, r4, r6}^
    93e4:	20304954 	eorscs	r4, r0, r4, asr r9
    93e8:	58450030 	stmdapl	r5, {r4, r5}^
    93ec:	50384954 	eorspl	r4, r8, r4, asr r9
    93f0:	28203842 	stmdacs	r0!, {r1, r6, fp, ip, sp}
    93f4:	49545845 	ldmdbmi	r4, {r0, r2, r6, fp, ip, lr}^
    93f8:	4e49505f 	mcrmi	0, 2, r5, cr9, cr15, {2}
    93fc:	50414d5f 	subpl	r4, r1, pc, asr sp
    9400:	474e4950 	smlsldmi	r4, lr, r0, r9
    9404:	7b29745f 	blvc	a66588 <_Min_Stack_Size+0xa66188>
    9408:	49545845 	ldmdbmi	r4, {r0, r2, r6, fp, ip, lr}^
    940c:	50472c38 	subpl	r2, r7, r8, lsr ip
    9410:	2c424f49 	mcrrcs	15, 4, r4, r2, cr9
    9414:	4f495047 	svcmi	0x00495047
    9418:	4e49505f 	mcrmi	0, 2, r5, cr9, cr15, {2}
    941c:	452c385f 	strmi	r3, [ip, #-2143]!	; 0xfffff7a1
    9420:	38495458 	stmdacc	r9, {r3, r4, r6, sl, ip, lr}^
    9424:	5152495f 	cmppl	r2, pc, asr r9
    9428:	45007d20 	strmi	r7, [r0, #-3360]	; 0xfffff2e0
    942c:	35495458 	strbcc	r5, [r9, #-1112]	; 0xfffffba8
    9430:	45003520 	strmi	r3, [r0, #-1312]	; 0xfffffae0
    9434:	39495458 	stmdbcc	r9, {r3, r4, r6, sl, ip, lr}^
    9438:	20394250 	eorscs	r4, r9, r0, asr r2
    943c:	54584528 	ldrbpl	r4, [r8], #-1320	; 0xfffffad8
    9440:	49505f49 	ldmdbmi	r0, {r0, r3, r6, r8, r9, sl, fp, ip, lr}^
    9444:	414d5f4e 	cmpmi	sp, lr, asr #30
    9448:	4e495050 	mcrmi	0, 2, r5, cr9, cr0, {2}
    944c:	29745f47 	ldmdbcs	r4!, {r0, r1, r2, r6, r8, r9, sl, fp, ip, lr}^
    9450:	5458457b 	ldrbpl	r4, [r8], #-1403	; 0xfffffa85
    9454:	472c3949 	strmi	r3, [ip, -r9, asr #18]!
    9458:	424f4950 	submi	r4, pc, #80, 18	; 0x140000
    945c:	4950472c 	ldmdbmi	r0, {r2, r3, r5, r8, r9, sl, lr}^
    9460:	49505f4f 	ldmdbmi	r0, {r0, r1, r2, r3, r6, r8, r9, sl, fp, ip, lr}^
    9464:	2c395f4e 	ldccs	15, cr5, [r9], #-312	; 0xfffffec8
    9468:	49545845 	ldmdbmi	r4, {r0, r2, r6, fp, ip, lr}^
    946c:	52495f39 	subpl	r5, r9, #57, 30	; 0xe4
    9470:	007d2051 	rsbseq	r2, sp, r1, asr r0
    9474:	52474643 	subpl	r4, r7, #70254592	; 0x4300000
    9478:	54584500 	ldrbpl	r4, [r8], #-1280	; 0xfffffb00
    947c:	41503949 	cmpmi	r0, r9, asr #18
    9480:	45282039 	strmi	r2, [r8, #-57]!	; 0xffffffc7
    9484:	5f495458 	svcpl	0x00495458
    9488:	5f4e4950 	svcpl	0x004e4950
    948c:	5050414d 	subspl	r4, r0, sp, asr #2
    9490:	5f474e49 	svcpl	0x00474e49
    9494:	457b2974 	ldrbmi	r2, [fp, #-2420]!	; 0xfffff68c
    9498:	39495458 	stmdbcc	r9, {r3, r4, r6, sl, ip, lr}^
    949c:	4950472c 	ldmdbmi	r0, {r2, r3, r5, r8, r9, sl, lr}^
    94a0:	472c414f 	strmi	r4, [ip, -pc, asr #2]!
    94a4:	5f4f4950 	svcpl	0x004f4950
    94a8:	5f4e4950 	svcpl	0x004e4950
    94ac:	58452c39 	stmdapl	r5, {r0, r3, r4, r5, sl, fp, sp}^
    94b0:	5f394954 	svcpl	0x00394954
    94b4:	20515249 	subscs	r5, r1, r9, asr #4
    94b8:	4352007d 	cmpmi	r2, #125	; 0x7d
    94bc:	00745f43 	rsbseq	r5, r4, r3, asr #30
    94c0:	49545845 	ldmdbmi	r4, {r0, r2, r6, fp, ip, lr}^
    94c4:	41503331 	cmpmi	r0, r1, lsr r3
    94c8:	28203331 	stmdacs	r0!, {r0, r4, r5, r8, r9, ip, sp}
    94cc:	49545845 	ldmdbmi	r4, {r0, r2, r6, fp, ip, lr}^
    94d0:	4e49505f 	mcrmi	0, 2, r5, cr9, cr15, {2}
    94d4:	50414d5f 	subpl	r4, r1, pc, asr sp
    94d8:	474e4950 	smlsldmi	r4, lr, r0, r9
    94dc:	7b29745f 	blvc	a66660 <_Min_Stack_Size+0xa66260>
    94e0:	49545845 	ldmdbmi	r4, {r0, r2, r6, fp, ip, lr}^
    94e4:	472c3331 			; <UNDEFINED> instruction: 0x472c3331
    94e8:	414f4950 	cmpmi	pc, r0, asr r9	; <UNPREDICTABLE>
    94ec:	4950472c 	ldmdbmi	r0, {r2, r3, r5, r8, r9, sl, lr}^
    94f0:	49505f4f 	ldmdbmi	r0, {r0, r1, r2, r3, r6, r8, r9, sl, fp, ip, lr}^
    94f4:	33315f4e 	teqcc	r1, #312	; 0x138
    94f8:	5458452c 	ldrbpl	r4, [r8], #-1324	; 0xfffffad4
    94fc:	5f333149 	svcpl	0x00333149
    9500:	20515249 	subscs	r5, r1, r9, asr #4
    9504:	5845007d 	stmdapl	r5, {r0, r2, r3, r4, r5, r6}^
    9508:	505f4954 	subspl	r4, pc, r4, asr r9	; <UNPREDICTABLE>
    950c:	4d5f4e49 	ldclmi	14, cr4, [pc, #-292]	; 93f0 <_Min_Stack_Size+0x8ff0>
    9510:	49505041 	ldmdbmi	r0, {r0, r6, ip, lr}^
    9514:	745f474e 	ldrbvc	r4, [pc], #-1870	; 951c <_Min_Stack_Size+0x911c>
    9518:	54584500 	ldrbpl	r4, [r8], #-1280	; 0xfffffb00
    951c:	50323149 	eorspl	r3, r2, r9, asr #2
    9520:	20323144 	eorscs	r3, r2, r4, asr #2
    9524:	54584528 	ldrbpl	r4, [r8], #-1320	; 0xfffffad8
    9528:	49505f49 	ldmdbmi	r0, {r0, r3, r6, r8, r9, sl, fp, ip, lr}^
    952c:	414d5f4e 	cmpmi	sp, lr, asr #30
    9530:	4e495050 	mcrmi	0, 2, r5, cr9, cr0, {2}
    9534:	29745f47 	ldmdbcs	r4!, {r0, r1, r2, r6, r8, r9, sl, fp, ip, lr}^
    9538:	5458457b 	ldrbpl	r4, [r8], #-1403	; 0xfffffa85
    953c:	2c323149 	ldfcss	f3, [r2], #-292	; 0xfffffedc
    9540:	4f495047 	svcmi	0x00495047
    9544:	50472c44 	subpl	r2, r7, r4, asr #24
    9548:	505f4f49 	subspl	r4, pc, r9, asr #30
    954c:	315f4e49 	cmpcc	pc, r9, asr #28
    9550:	58452c32 	stmdapl	r5, {r1, r4, r5, sl, fp, sp}^
    9554:	32314954 	eorscc	r4, r1, #84, 18	; 0x150000
    9558:	5152495f 	cmppl	r2, pc, asr r9
    955c:	6f43007d 	svcvs	0x0043007d
    9560:	6f72746e 	svcvs	0x0072746e
    9564:	65525f6c 	ldrbvs	r5, [r2, #-3948]	; 0xfffff094
    9568:	68545f67 	ldmdavs	r4, {r0, r1, r2, r5, r6, r8, r9, sl, fp, ip, lr}^
    956c:	64616572 	strbtvs	r6, [r1], #-1394	; 0xfffffa8e
    9570:	646f4d5f 	strbtvs	r4, [pc], #-3423	; 9578 <_Min_Stack_Size+0x9178>
    9574:	58450065 	stmdapl	r5, {r0, r2, r5, r6}^
    9578:	545f4954 	ldrbpl	r4, [pc], #-2388	; 9580 <_Min_Stack_Size+0x9180>
    957c:	47474952 	smlsldmi	r4, r7, r2, r9
    9580:	525f5245 	subspl	r5, pc, #1342177284	; 0x50000004
    9584:	4e495349 	cdpmi	3, 4, cr5, cr9, cr9, {2}
    9588:	44455f47 	strbmi	r5, [r5], #-3911	; 0xfffff0b9
    958c:	30204547 	eorcc	r4, r0, r7, asr #10
    9590:	51524900 	cmppl	r2, r0, lsl #18
    9594:	5458455f 	ldrbpl	r4, [r8], #-1375	; 0xfffffaa1
    9598:	635f3949 	cmpvs	pc, #1196032	; 0x124000
    959c:	626c6c61 	rsbvs	r6, ip, #24832	; 0x6100
    95a0:	006b6361 	rsbeq	r6, fp, r1, ror #6
    95a4:	49545845 	ldmdbmi	r4, {r0, r2, r6, fp, ip, lr}^
    95a8:	33425033 	movtcc	r5, #8243	; 0x2033
    95ac:	58452820 	stmdapl	r5, {r5, fp, sp}^
    95b0:	505f4954 	subspl	r4, pc, r4, asr r9	; <UNPREDICTABLE>
    95b4:	4d5f4e49 	ldclmi	14, cr4, [pc, #-292]	; 9498 <_Min_Stack_Size+0x9098>
    95b8:	49505041 	ldmdbmi	r0, {r0, r6, ip, lr}^
    95bc:	745f474e 	ldrbvc	r4, [pc], #-1870	; 95c4 <_Min_Stack_Size+0x91c4>
    95c0:	58457b29 	stmdapl	r5, {r0, r3, r5, r8, r9, fp, ip, sp, lr}^
    95c4:	2c334954 			; <UNDEFINED> instruction: 0x2c334954
    95c8:	4f495047 	svcmi	0x00495047
    95cc:	50472c42 	subpl	r2, r7, r2, asr #24
    95d0:	505f4f49 	subspl	r4, pc, r9, asr #30
    95d4:	335f4e49 	cmpcc	pc, #1168	; 0x490
    95d8:	5458452c 	ldrbpl	r4, [r8], #-1324	; 0xfffffad4
    95dc:	495f3349 	ldmdbmi	pc, {r0, r3, r6, r8, r9, ip, sp}^	; <UNPREDICTABLE>
    95e0:	7d205152 	stfvcs	f5, [r0, #-328]!	; 0xfffffeb8
    95e4:	54584500 	ldrbpl	r4, [r8], #-1280	; 0xfffffb00
    95e8:	50323149 	eorspl	r3, r2, r9, asr #2
    95ec:	20323143 	eorscs	r3, r2, r3, asr #2
    95f0:	54584528 	ldrbpl	r4, [r8], #-1320	; 0xfffffad8
    95f4:	49505f49 	ldmdbmi	r0, {r0, r3, r6, r8, r9, sl, fp, ip, lr}^
    95f8:	414d5f4e 	cmpmi	sp, lr, asr #30
    95fc:	4e495050 	mcrmi	0, 2, r5, cr9, cr0, {2}
    9600:	29745f47 	ldmdbcs	r4!, {r0, r1, r2, r6, r8, r9, sl, fp, ip, lr}^
    9604:	5458457b 	ldrbpl	r4, [r8], #-1403	; 0xfffffa85
    9608:	2c323149 	ldfcss	f3, [r2], #-292	; 0xfffffedc
    960c:	4f495047 	svcmi	0x00495047
    9610:	50472c43 	subpl	r2, r7, r3, asr #24
    9614:	505f4f49 	subspl	r4, pc, r9, asr #30
    9618:	315f4e49 	cmpcc	pc, r9, asr #28
    961c:	58452c32 	stmdapl	r5, {r1, r4, r5, sl, fp, sp}^
    9620:	32314954 	eorscc	r4, r1, #84, 18	; 0x150000
    9624:	5152495f 	cmppl	r2, pc, asr r9
    9628:	5845007d 	stmdapl	r5, {r0, r2, r3, r4, r5, r6}^
    962c:	50364954 	eorspl	r4, r6, r4, asr r9
    9630:	28203644 	stmdacs	r0!, {r2, r6, r9, sl, ip, sp}
    9634:	49545845 	ldmdbmi	r4, {r0, r2, r6, fp, ip, lr}^
    9638:	4e49505f 	mcrmi	0, 2, r5, cr9, cr15, {2}
    963c:	50414d5f 	subpl	r4, r1, pc, asr sp
    9640:	474e4950 	smlsldmi	r4, lr, r0, r9
    9644:	7b29745f 	blvc	a667c8 <_Min_Stack_Size+0xa663c8>
    9648:	49545845 	ldmdbmi	r4, {r0, r2, r6, fp, ip, lr}^
    964c:	50472c36 	subpl	r2, r7, r6, lsr ip
    9650:	2c444f49 	mcrrcs	15, 4, r4, r4, cr9
    9654:	4f495047 	svcmi	0x00495047
    9658:	4e49505f 	mcrmi	0, 2, r5, cr9, cr15, {2}
    965c:	452c365f 	strmi	r3, [ip, #-1631]!	; 0xfffff9a1
    9660:	36495458 			; <UNDEFINED> instruction: 0x36495458
    9664:	5152495f 	cmppl	r2, pc, asr r9
    9668:	5041007d 	subpl	r0, r1, sp, ror r0
    966c:	53523242 	cmppl	r2, #536870916	; 0x20000004
    9670:	45005254 	strmi	r5, [r0, #-596]	; 0xfffffdac
    9674:	5f495458 	svcpl	0x00495458
    9678:	004e4950 	subeq	r4, lr, r0, asr r9
    967c:	49545845 	ldmdbmi	r4, {r0, r2, r6, fp, ip, lr}^
    9680:	33445033 	movtcc	r5, #16435	; 0x4033
    9684:	58452820 	stmdapl	r5, {r5, fp, sp}^
    9688:	505f4954 	subspl	r4, pc, r4, asr r9	; <UNPREDICTABLE>
    968c:	4d5f4e49 	ldclmi	14, cr4, [pc, #-292]	; 9570 <_Min_Stack_Size+0x9170>
    9690:	49505041 	ldmdbmi	r0, {r0, r6, ip, lr}^
    9694:	745f474e 	ldrbvc	r4, [pc], #-1870	; 969c <_Min_Stack_Size+0x929c>
    9698:	58457b29 	stmdapl	r5, {r0, r3, r5, r8, r9, fp, ip, sp, lr}^
    969c:	2c334954 			; <UNDEFINED> instruction: 0x2c334954
    96a0:	4f495047 	svcmi	0x00495047
    96a4:	50472c44 	subpl	r2, r7, r4, asr #24
    96a8:	505f4f49 	subspl	r4, pc, r9, asr #30
    96ac:	335f4e49 	cmpcc	pc, #1168	; 0x490
    96b0:	5458452c 	ldrbpl	r4, [r8], #-1324	; 0xfffffad4
    96b4:	495f3349 	ldmdbmi	pc, {r0, r3, r6, r8, r9, ip, sp}^	; <UNPREDICTABLE>
    96b8:	007d5152 	rsbseq	r5, sp, r2, asr r1
    96bc:	49545845 	ldmdbmi	r4, {r0, r2, r6, fp, ip, lr}^
    96c0:	33435033 	movtcc	r5, #12339	; 0x3033
    96c4:	58452820 	stmdapl	r5, {r5, fp, sp}^
    96c8:	505f4954 	subspl	r4, pc, r4, asr r9	; <UNPREDICTABLE>
    96cc:	4d5f4e49 	ldclmi	14, cr4, [pc, #-292]	; 95b0 <_Min_Stack_Size+0x91b0>
    96d0:	49505041 	ldmdbmi	r0, {r0, r6, ip, lr}^
    96d4:	745f474e 	ldrbvc	r4, [pc], #-1870	; 96dc <_Min_Stack_Size+0x92dc>
    96d8:	58457b29 	stmdapl	r5, {r0, r3, r5, r8, r9, fp, ip, sp, lr}^
    96dc:	2c334954 			; <UNDEFINED> instruction: 0x2c334954
    96e0:	4f495047 	svcmi	0x00495047
    96e4:	50472c43 	subpl	r2, r7, r3, asr #24
    96e8:	505f4f49 	subspl	r4, pc, r9, asr #30
    96ec:	335f4e49 	cmpcc	pc, #1168	; 0x490
    96f0:	5458452c 	ldrbpl	r4, [r8], #-1324	; 0xfffffad4
    96f4:	495f3349 	ldmdbmi	pc, {r0, r3, r6, r8, r9, ip, sp}^	; <UNPREDICTABLE>
    96f8:	007d5152 	rsbseq	r5, sp, r2, asr r1
    96fc:	49545845 	ldmdbmi	r4, {r0, r2, r6, fp, ip, lr}^
    9700:	35435035 	strbcc	r5, [r3, #-53]	; 0xffffffcb
    9704:	58452820 	stmdapl	r5, {r5, fp, sp}^
    9708:	505f4954 	subspl	r4, pc, r4, asr r9	; <UNPREDICTABLE>
    970c:	4d5f4e49 	ldclmi	14, cr4, [pc, #-292]	; 95f0 <_Min_Stack_Size+0x91f0>
    9710:	49505041 	ldmdbmi	r0, {r0, r6, ip, lr}^
    9714:	745f474e 	ldrbvc	r4, [pc], #-1870	; 971c <_Min_Stack_Size+0x931c>
    9718:	58457b29 	stmdapl	r5, {r0, r3, r5, r8, r9, fp, ip, sp, lr}^
    971c:	2c354954 			; <UNDEFINED> instruction: 0x2c354954
    9720:	4f495047 	svcmi	0x00495047
    9724:	50472c43 	subpl	r2, r7, r3, asr #24
    9728:	505f4f49 	subspl	r4, pc, r9, asr #30
    972c:	355f4e49 	ldrbcc	r4, [pc, #-3657]	; 88eb <_Min_Stack_Size+0x84eb>
    9730:	5458452c 	ldrbpl	r4, [r8], #-1324	; 0xfffffad4
    9734:	495f3549 	ldmdbmi	pc, {r0, r3, r6, r8, sl, ip, sp}^	; <UNPREDICTABLE>
    9738:	007d5152 	rsbseq	r5, sp, r2, asr r1
    973c:	49545845 	ldmdbmi	r4, {r0, r2, r6, fp, ip, lr}^
    9740:	4952545f 	ldmdbmi	r2, {r0, r1, r2, r3, r4, r6, sl, ip, lr}^
    9744:	52454747 	subpl	r4, r5, #18612224	; 0x11c0000
    9748:	5349525f 	movtpl	r5, #37471	; 0x925f
    974c:	5f474e49 	svcpl	0x00474e49
    9750:	4c4c4146 	stfmie	f4, [ip], {70}	; 0x46
    9754:	20474e49 	subcs	r4, r7, r9, asr #28
    9758:	58450032 	stmdapl	r5, {r1, r4, r5}^
    975c:	20364954 	eorscs	r4, r6, r4, asr r9
    9760:	58450036 	stmdapl	r5, {r1, r2, r4, r5}^
    9764:	695f4954 	ldmdbvs	pc, {r2, r4, r6, r8, fp, lr}^	; <UNPREDICTABLE>
    9768:	7265746e 	rsbvc	r7, r5, #1845493760	; 0x6e000000
    976c:	74707572 	ldrbtvc	r7, [r0], #-1394	; 0xfffffa8e
    9770:	6e696c5f 	mcrvs	12, 3, r6, cr9, cr15, {2}
    9774:	58450065 	stmdapl	r5, {r0, r2, r5, r6}^
    9778:	50344954 	eorspl	r4, r4, r4, asr r9
    977c:	28203443 	stmdacs	r0!, {r0, r1, r6, sl, ip, sp}
    9780:	49545845 	ldmdbmi	r4, {r0, r2, r6, fp, ip, lr}^
    9784:	4e49505f 	mcrmi	0, 2, r5, cr9, cr15, {2}
    9788:	50414d5f 	subpl	r4, r1, pc, asr sp
    978c:	474e4950 	smlsldmi	r4, lr, r0, r9
    9790:	7b29745f 	blvc	a66914 <_Min_Stack_Size+0xa66514>
    9794:	49545845 	ldmdbmi	r4, {r0, r2, r6, fp, ip, lr}^
    9798:	50472c34 	subpl	r2, r7, r4, lsr ip
    979c:	2c434f49 	mcrrcs	15, 4, r4, r3, cr9
    97a0:	4f495047 	svcmi	0x00495047
    97a4:	4e49505f 	mcrmi	0, 2, r5, cr9, cr15, {2}
    97a8:	452c345f 	strmi	r3, [ip, #-1119]!	; 0xfffffba1
    97ac:	34495458 	strbcc	r5, [r9], #-1112	; 0xfffffba8
    97b0:	5152495f 	cmppl	r2, pc, asr r9
    97b4:	5845007d 	stmdapl	r5, {r0, r2, r3, r4, r5, r6}^
    97b8:	50304954 	eorspl	r4, r0, r4, asr r9
    97bc:	28203041 	stmdacs	r0!, {r0, r6, ip, sp}
    97c0:	49545845 	ldmdbmi	r4, {r0, r2, r6, fp, ip, lr}^
    97c4:	4e49505f 	mcrmi	0, 2, r5, cr9, cr15, {2}
    97c8:	50414d5f 	subpl	r4, r1, pc, asr sp
    97cc:	474e4950 	smlsldmi	r4, lr, r0, r9
    97d0:	7b29745f 	blvc	a66954 <_Min_Stack_Size+0xa66554>
    97d4:	49545845 	ldmdbmi	r4, {r0, r2, r6, fp, ip, lr}^
    97d8:	50472c30 	subpl	r2, r7, r0, lsr ip
    97dc:	2c414f49 	mcrrcs	15, 4, r4, r1, cr9
    97e0:	4f495047 	svcmi	0x00495047
    97e4:	4e49505f 	mcrmi	0, 2, r5, cr9, cr15, {2}
    97e8:	452c305f 	strmi	r3, [ip, #-95]!	; 0xffffffa1
    97ec:	30495458 	subcc	r5, r9, r8, asr r4
    97f0:	5152495f 	cmppl	r2, pc, asr r9
    97f4:	45007d20 	strmi	r7, [r0, #-3360]	; 0xfffff2e0
    97f8:	31495458 	cmpcc	r9, r8, asr r4
    97fc:	31312031 	teqcc	r1, r1, lsr r0
    9800:	54584500 	ldrbpl	r4, [r8], #-1280	; 0xfffffb00
    9804:	50323149 	eorspl	r3, r2, r9, asr #2
    9808:	20323141 	eorscs	r3, r2, r1, asr #2
    980c:	54584528 	ldrbpl	r4, [r8], #-1320	; 0xfffffad8
    9810:	49505f49 	ldmdbmi	r0, {r0, r3, r6, r8, r9, sl, fp, ip, lr}^
    9814:	414d5f4e 	cmpmi	sp, lr, asr #30
    9818:	4e495050 	mcrmi	0, 2, r5, cr9, cr0, {2}
    981c:	29745f47 	ldmdbcs	r4!, {r0, r1, r2, r6, r8, r9, sl, fp, ip, lr}^
    9820:	5458457b 	ldrbpl	r4, [r8], #-1403	; 0xfffffa85
    9824:	2c323149 	ldfcss	f3, [r2], #-292	; 0xfffffedc
    9828:	4f495047 	svcmi	0x00495047
    982c:	50472c41 	subpl	r2, r7, r1, asr #24
    9830:	505f4f49 	subspl	r4, pc, r9, asr #30
    9834:	315f4e49 	cmpcc	pc, r9, asr #28
    9838:	58452c32 	stmdapl	r5, {r1, r4, r5, sl, fp, sp}^
    983c:	32314954 	eorscc	r4, r1, #84, 18	; 0x150000
    9840:	5152495f 	cmppl	r2, pc, asr r9
    9844:	45007d20 	strmi	r7, [r0, #-3360]	; 0xfffff2e0
    9848:	34495458 	strbcc	r5, [r9], #-1112	; 0xfffffba8
    984c:	45003420 	strmi	r3, [r0, #-1056]	; 0xfffffbe0
    9850:	31495458 	cmpcc	r9, r8, asr r4
    9854:	31425031 	cmpcc	r2, r1, lsr r0
    9858:	45282031 	strmi	r2, [r8, #-49]!	; 0xffffffcf
    985c:	5f495458 	svcpl	0x00495458
    9860:	5f4e4950 	svcpl	0x004e4950
    9864:	5050414d 	subspl	r4, r0, sp, asr #2
    9868:	5f474e49 	svcpl	0x00474e49
    986c:	457b2974 	ldrbmi	r2, [fp, #-2420]!	; 0xfffff68c
    9870:	31495458 	cmpcc	r9, r8, asr r4
    9874:	50472c31 	subpl	r2, r7, r1, lsr ip
    9878:	2c424f49 	mcrrcs	15, 4, r4, r2, cr9
    987c:	4f495047 	svcmi	0x00495047
    9880:	4e49505f 	mcrmi	0, 2, r5, cr9, cr15, {2}
    9884:	2c31315f 	ldfcss	f3, [r1], #-380	; 0xfffffe84
    9888:	49545845 	ldmdbmi	r4, {r0, r2, r6, fp, ip, lr}^
    988c:	495f3131 	ldmdbmi	pc, {r0, r4, r5, r8, ip, sp}^	; <UNPREDICTABLE>
    9890:	7d205152 	stfvcs	f5, [r0, #-328]!	; 0xfffffeb8
    9894:	54584500 	ldrbpl	r4, [r8], #-1280	; 0xfffffb00
    9898:	42503549 	subsmi	r3, r0, #306184192	; 0x12400000
    989c:	45282035 	strmi	r2, [r8, #-53]!	; 0xffffffcb
    98a0:	5f495458 	svcpl	0x00495458
    98a4:	5f4e4950 	svcpl	0x004e4950
    98a8:	5050414d 	subspl	r4, r0, sp, asr #2
    98ac:	5f474e49 	svcpl	0x00474e49
    98b0:	457b2974 	ldrbmi	r2, [fp, #-2420]!	; 0xfffff68c
    98b4:	35495458 	strbcc	r5, [r9, #-1112]	; 0xfffffba8
    98b8:	4950472c 	ldmdbmi	r0, {r2, r3, r5, r8, r9, sl, lr}^
    98bc:	472c424f 	strmi	r4, [ip, -pc, asr #4]!
    98c0:	5f4f4950 	svcpl	0x004f4950
    98c4:	5f4e4950 	svcpl	0x004e4950
    98c8:	58452c35 	stmdapl	r5, {r0, r2, r4, r5, sl, fp, sp}^
    98cc:	5f354954 	svcpl	0x00354954
    98d0:	20515249 	subscs	r5, r1, r9, asr #4
    98d4:	5845007d 	stmdapl	r5, {r0, r2, r3, r4, r5, r6}^
    98d8:	50314954 	eorspl	r4, r1, r4, asr r9
    98dc:	28203141 	stmdacs	r0!, {r0, r6, r8, ip, sp}
    98e0:	49545845 	ldmdbmi	r4, {r0, r2, r6, fp, ip, lr}^
    98e4:	4e49505f 	mcrmi	0, 2, r5, cr9, cr15, {2}
    98e8:	50414d5f 	subpl	r4, r1, pc, asr sp
    98ec:	474e4950 	smlsldmi	r4, lr, r0, r9
    98f0:	7b29745f 	blvc	a66a74 <_Min_Stack_Size+0xa66674>
    98f4:	49545845 	ldmdbmi	r4, {r0, r2, r6, fp, ip, lr}^
    98f8:	50472c31 	subpl	r2, r7, r1, lsr ip
    98fc:	2c414f49 	mcrrcs	15, 4, r4, r1, cr9
    9900:	4f495047 	svcmi	0x00495047
    9904:	4e49505f 	mcrmi	0, 2, r5, cr9, cr15, {2}
    9908:	452c315f 	strmi	r3, [ip, #-351]!	; 0xfffffea1
    990c:	31495458 	cmpcc	r9, r8, asr r4
    9910:	5152495f 	cmppl	r2, pc, asr r9
    9914:	45007d20 	strmi	r7, [r0, #-3360]	; 0xfffff2e0
    9918:	31495458 	cmpcc	r9, r8, asr r4
    991c:	35312035 	ldrcc	r2, [r1, #-53]!	; 0xffffffcb
    9920:	54584500 	ldrbpl	r4, [r8], #-1280	; 0xfffffb00
    9924:	43503249 	cmpmi	r0, #-1879048188	; 0x90000004
    9928:	45282032 	strmi	r2, [r8, #-50]!	; 0xffffffce
    992c:	5f495458 	svcpl	0x00495458
    9930:	5f4e4950 	svcpl	0x004e4950
    9934:	5050414d 	subspl	r4, r0, sp, asr #2
    9938:	5f474e49 	svcpl	0x00474e49
    993c:	457b2974 	ldrbmi	r2, [fp, #-2420]!	; 0xfffff68c
    9940:	32495458 	subcc	r5, r9, #88, 8	; 0x58000000
    9944:	4950472c 	ldmdbmi	r0, {r2, r3, r5, r8, r9, sl, lr}^
    9948:	472c434f 	strmi	r4, [ip, -pc, asr #6]!
    994c:	5f4f4950 	svcpl	0x004f4950
    9950:	5f4e4950 	svcpl	0x004e4950
    9954:	58452c32 	stmdapl	r5, {r1, r4, r5, sl, fp, sp}^
    9958:	5f324954 	svcpl	0x00324954
    995c:	7d515249 	lfmvc	f5, 2, [r1, #-292]	; 0xfffffedc
    9960:	54584500 	ldrbpl	r4, [r8], #-1280	; 0xfffffb00
    9964:	41503249 	cmpmi	r0, r9, asr #4
    9968:	45282032 	strmi	r2, [r8, #-50]!	; 0xffffffce
    996c:	5f495458 	svcpl	0x00495458
    9970:	5f4e4950 	svcpl	0x004e4950
    9974:	5050414d 	subspl	r4, r0, sp, asr #2
    9978:	5f474e49 	svcpl	0x00474e49
    997c:	457b2974 	ldrbmi	r2, [fp, #-2420]!	; 0xfffff68c
    9980:	32495458 	subcc	r5, r9, #88, 8	; 0x58000000
    9984:	4950472c 	ldmdbmi	r0, {r2, r3, r5, r8, r9, sl, lr}^
    9988:	472c414f 	strmi	r4, [ip, -pc, asr #2]!
    998c:	5f4f4950 	svcpl	0x004f4950
    9990:	5f4e4950 	svcpl	0x004e4950
    9994:	58452c32 	stmdapl	r5, {r1, r4, r5, sl, fp, sp}^
    9998:	5f324954 	svcpl	0x00324954
    999c:	20515249 	subscs	r5, r1, r9, asr #4
    99a0:	5845007d 	stmdapl	r5, {r0, r2, r3, r4, r5, r6}^
    99a4:	495f4954 	ldmdbmi	pc, {r2, r4, r6, r8, fp, lr}^	; <UNPREDICTABLE>
    99a8:	445f5152 	ldrbmi	r5, [pc], #-338	; 99b0 <_Min_Stack_Size+0x95b0>
    99ac:	42415349 	submi	r5, r1, #603979777	; 0x24000001
    99b0:	3020454c 	eorcc	r4, r0, ip, asr #10
    99b4:	54584500 	ldrbpl	r4, [r8], #-1280	; 0xfffffb00
    99b8:	50303149 	eorspl	r3, r0, r9, asr #2
    99bc:	20303141 	eorscs	r3, r0, r1, asr #2
    99c0:	54584528 	ldrbpl	r4, [r8], #-1320	; 0xfffffad8
    99c4:	49505f49 	ldmdbmi	r0, {r0, r3, r6, r8, r9, sl, fp, ip, lr}^
    99c8:	414d5f4e 	cmpmi	sp, lr, asr #30
    99cc:	4e495050 	mcrmi	0, 2, r5, cr9, cr0, {2}
    99d0:	29745f47 	ldmdbcs	r4!, {r0, r1, r2, r6, r8, r9, sl, fp, ip, lr}^
    99d4:	5458457b 	ldrbpl	r4, [r8], #-1403	; 0xfffffa85
    99d8:	2c303149 	ldfcss	f3, [r0], #-292	; 0xfffffedc
    99dc:	4f495047 	svcmi	0x00495047
    99e0:	50472c41 	subpl	r2, r7, r1, asr #24
    99e4:	505f4f49 	subspl	r4, pc, r9, asr #30
    99e8:	315f4e49 	cmpcc	pc, r9, asr #28
    99ec:	58452c30 	stmdapl	r5, {r4, r5, sl, fp, sp}^
    99f0:	30314954 	eorscc	r4, r1, r4, asr r9
    99f4:	5152495f 	cmppl	r2, pc, asr r9
    99f8:	45007d20 	strmi	r7, [r0, #-3360]	; 0xfffff2e0
    99fc:	33495458 	movtcc	r5, #37976	; 0x9458
    9a00:	20334150 	eorscs	r4, r3, r0, asr r1
    9a04:	54584528 	ldrbpl	r4, [r8], #-1320	; 0xfffffad8
    9a08:	49505f49 	ldmdbmi	r0, {r0, r3, r6, r8, r9, sl, fp, ip, lr}^
    9a0c:	414d5f4e 	cmpmi	sp, lr, asr #30
    9a10:	4e495050 	mcrmi	0, 2, r5, cr9, cr0, {2}
    9a14:	29745f47 	ldmdbcs	r4!, {r0, r1, r2, r6, r8, r9, sl, fp, ip, lr}^
    9a18:	5458457b 	ldrbpl	r4, [r8], #-1403	; 0xfffffa85
    9a1c:	472c3349 	strmi	r3, [ip, -r9, asr #6]!
    9a20:	414f4950 	cmpmi	pc, r0, asr r9	; <UNPREDICTABLE>
    9a24:	4950472c 	ldmdbmi	r0, {r2, r3, r5, r8, r9, sl, lr}^
    9a28:	49505f4f 	ldmdbmi	r0, {r0, r1, r2, r3, r6, r8, r9, sl, fp, ip, lr}^
    9a2c:	2c335f4e 	ldccs	15, cr5, [r3], #-312	; 0xfffffec8
    9a30:	49545845 	ldmdbmi	r4, {r0, r2, r6, fp, ip, lr}^
    9a34:	52495f33 	subpl	r5, r9, #51, 30	; 0xcc
    9a38:	007d2051 	rsbseq	r2, sp, r1, asr r0
    9a3c:	49545845 	ldmdbmi	r4, {r0, r2, r6, fp, ip, lr}^
    9a40:	42503431 	subsmi	r3, r0, #822083584	; 0x31000000
    9a44:	28203431 	stmdacs	r0!, {r0, r4, r5, sl, ip, sp}
    9a48:	49545845 	ldmdbmi	r4, {r0, r2, r6, fp, ip, lr}^
    9a4c:	4e49505f 	mcrmi	0, 2, r5, cr9, cr15, {2}
    9a50:	50414d5f 	subpl	r4, r1, pc, asr sp
    9a54:	474e4950 	smlsldmi	r4, lr, r0, r9
    9a58:	7b29745f 	blvc	a66bdc <_Min_Stack_Size+0xa667dc>
    9a5c:	49545845 	ldmdbmi	r4, {r0, r2, r6, fp, ip, lr}^
    9a60:	472c3431 			; <UNDEFINED> instruction: 0x472c3431
    9a64:	424f4950 	submi	r4, pc, #80, 18	; 0x140000
    9a68:	4950472c 	ldmdbmi	r0, {r2, r3, r5, r8, r9, sl, lr}^
    9a6c:	49505f4f 	ldmdbmi	r0, {r0, r1, r2, r3, r6, r8, r9, sl, fp, ip, lr}^
    9a70:	34315f4e 	ldrtcc	r5, [r1], #-3918	; 0xfffff0b2
    9a74:	5458452c 	ldrbpl	r4, [r8], #-1324	; 0xfffffad4
    9a78:	5f343149 	svcpl	0x00343149
    9a7c:	20515249 	subscs	r5, r1, r9, asr #4
    9a80:	5845007d 	stmdapl	r5, {r0, r2, r3, r4, r5, r6}^
    9a84:	34314954 	ldrtcc	r4, [r1], #-2388	; 0xfffff6ac
    9a88:	34314150 	ldrtcc	r4, [r1], #-336	; 0xfffffeb0
    9a8c:	58452820 	stmdapl	r5, {r5, fp, sp}^
    9a90:	505f4954 	subspl	r4, pc, r4, asr r9	; <UNPREDICTABLE>
    9a94:	4d5f4e49 	ldclmi	14, cr4, [pc, #-292]	; 9978 <_Min_Stack_Size+0x9578>
    9a98:	49505041 	ldmdbmi	r0, {r0, r6, ip, lr}^
    9a9c:	745f474e 	ldrbvc	r4, [pc], #-1870	; 9aa4 <_Min_Stack_Size+0x96a4>
    9aa0:	58457b29 	stmdapl	r5, {r0, r3, r5, r8, r9, fp, ip, sp, lr}^
    9aa4:	34314954 	ldrtcc	r4, [r1], #-2388	; 0xfffff6ac
    9aa8:	4950472c 	ldmdbmi	r0, {r2, r3, r5, r8, r9, sl, lr}^
    9aac:	472c414f 	strmi	r4, [ip, -pc, asr #2]!
    9ab0:	5f4f4950 	svcpl	0x004f4950
    9ab4:	5f4e4950 	svcpl	0x004e4950
    9ab8:	452c3431 	strmi	r3, [ip, #-1073]!	; 0xfffffbcf
    9abc:	31495458 	cmpcc	r9, r8, asr r4
    9ac0:	52495f34 	subpl	r5, r9, #52, 30	; 0xd0
    9ac4:	007d2051 	rsbseq	r2, sp, r1, asr r0
    9ac8:	31425041 	cmpcc	r2, r1, asr #32
    9acc:	52545352 	subspl	r5, r4, #1207959553	; 0x48000001
    9ad0:	42504100 	subsmi	r4, r0, #0, 2
    9ad4:	524e4531 	subpl	r4, lr, #205520896	; 0xc400000
    9ad8:	54584500 	ldrbpl	r4, [r8], #-1280	; 0xfffffb00
    9adc:	42503249 	subsmi	r3, r0, #-1879048188	; 0x90000004
    9ae0:	45282032 	strmi	r2, [r8, #-50]!	; 0xffffffce
    9ae4:	5f495458 	svcpl	0x00495458
    9ae8:	5f4e4950 	svcpl	0x004e4950
    9aec:	5050414d 	subspl	r4, r0, sp, asr #2
    9af0:	5f474e49 	svcpl	0x00474e49
    9af4:	457b2974 	ldrbmi	r2, [fp, #-2420]!	; 0xfffff68c
    9af8:	32495458 	subcc	r5, r9, #88, 8	; 0x58000000
    9afc:	4950472c 	ldmdbmi	r0, {r2, r3, r5, r8, r9, sl, lr}^
    9b00:	472c424f 	strmi	r4, [ip, -pc, asr #4]!
    9b04:	5f4f4950 	svcpl	0x004f4950
    9b08:	5f4e4950 	svcpl	0x004e4950
    9b0c:	58452c32 	stmdapl	r5, {r1, r4, r5, sl, fp, sp}^
    9b10:	5f324954 	svcpl	0x00324954
    9b14:	20515249 	subscs	r5, r1, r9, asr #4
    9b18:	5845007d 	stmdapl	r5, {r0, r2, r3, r4, r5, r6}^
    9b1c:	50364954 	eorspl	r4, r6, r4, asr r9
    9b20:	28203641 	stmdacs	r0!, {r0, r6, r9, sl, ip, sp}
    9b24:	49545845 	ldmdbmi	r4, {r0, r2, r6, fp, ip, lr}^
    9b28:	4e49505f 	mcrmi	0, 2, r5, cr9, cr15, {2}
    9b2c:	50414d5f 	subpl	r4, r1, pc, asr sp
    9b30:	474e4950 	smlsldmi	r4, lr, r0, r9
    9b34:	7b29745f 	blvc	a66cb8 <_Min_Stack_Size+0xa668b8>
    9b38:	49545845 	ldmdbmi	r4, {r0, r2, r6, fp, ip, lr}^
    9b3c:	50472c36 	subpl	r2, r7, r6, lsr ip
    9b40:	2c414f49 	mcrrcs	15, 4, r4, r1, cr9
    9b44:	4f495047 	svcmi	0x00495047
    9b48:	4e49505f 	mcrmi	0, 2, r5, cr9, cr15, {2}
    9b4c:	452c365f 	strmi	r3, [ip, #-1631]!	; 0xfffff9a1
    9b50:	36495458 			; <UNDEFINED> instruction: 0x36495458
    9b54:	5152495f 	cmppl	r2, pc, asr r9
    9b58:	47007d20 	strmi	r7, [r0, -r0, lsr #26]
    9b5c:	5f4f4950 	svcpl	0x004f4950
    9b60:	74726f50 	ldrbtvc	r6, [r2], #-3920	; 0xfffff0b0
    9b64:	51524900 	cmppl	r2, r0, lsl #18
    9b68:	004e455f 	subeq	r4, lr, pc, asr r5
    9b6c:	49545845 	ldmdbmi	r4, {r0, r2, r6, fp, ip, lr}^
    9b70:	38415038 	stmdacc	r1, {r3, r4, r5, ip, lr}^
    9b74:	58452820 	stmdapl	r5, {r5, fp, sp}^
    9b78:	505f4954 	subspl	r4, pc, r4, asr r9	; <UNPREDICTABLE>
    9b7c:	4d5f4e49 	ldclmi	14, cr4, [pc, #-292]	; 9a60 <_Min_Stack_Size+0x9660>
    9b80:	49505041 	ldmdbmi	r0, {r0, r6, ip, lr}^
    9b84:	745f474e 	ldrbvc	r4, [pc], #-1870	; 9b8c <_Min_Stack_Size+0x978c>
    9b88:	58457b29 	stmdapl	r5, {r0, r3, r5, r8, r9, fp, ip, sp, lr}^
    9b8c:	2c384954 			; <UNDEFINED> instruction: 0x2c384954
    9b90:	4f495047 	svcmi	0x00495047
    9b94:	50472c41 	subpl	r2, r7, r1, asr #24
    9b98:	505f4f49 	subspl	r4, pc, r9, asr #30
    9b9c:	385f4e49 	ldmdacc	pc, {r0, r3, r6, r9, sl, fp, lr}^	; <UNPREDICTABLE>
    9ba0:	5458452c 	ldrbpl	r4, [r8], #-1324	; 0xfffffad4
    9ba4:	495f3849 	ldmdbmi	pc, {r0, r3, r6, fp, ip, sp}^	; <UNPREDICTABLE>
    9ba8:	7d205152 	stfvcs	f5, [r0, #-328]!	; 0xfffffeb8
    9bac:	54584500 	ldrbpl	r4, [r8], #-1280	; 0xfffffb00
    9bb0:	50323149 	eorspl	r3, r2, r9, asr #2
    9bb4:	20323142 	eorscs	r3, r2, r2, asr #2
    9bb8:	54584528 	ldrbpl	r4, [r8], #-1320	; 0xfffffad8
    9bbc:	49505f49 	ldmdbmi	r0, {r0, r3, r6, r8, r9, sl, fp, ip, lr}^
    9bc0:	414d5f4e 	cmpmi	sp, lr, asr #30
    9bc4:	4e495050 	mcrmi	0, 2, r5, cr9, cr0, {2}
    9bc8:	29745f47 	ldmdbcs	r4!, {r0, r1, r2, r6, r8, r9, sl, fp, ip, lr}^
    9bcc:	5458457b 	ldrbpl	r4, [r8], #-1403	; 0xfffffa85
    9bd0:	2c323149 	ldfcss	f3, [r2], #-292	; 0xfffffedc
    9bd4:	4f495047 	svcmi	0x00495047
    9bd8:	50472c42 	subpl	r2, r7, r2, asr #24
    9bdc:	505f4f49 	subspl	r4, pc, r9, asr #30
    9be0:	315f4e49 	cmpcc	pc, r9, asr #28
    9be4:	58452c32 	stmdapl	r5, {r1, r4, r5, sl, fp, sp}^
    9be8:	32314954 	eorscc	r4, r1, #84, 18	; 0x150000
    9bec:	5152495f 	cmppl	r2, pc, asr r9
    9bf0:	45007d20 	strmi	r7, [r0, #-3360]	; 0xfffff2e0
    9bf4:	31495458 	cmpcc	r9, r8, asr r4
    9bf8:	31445031 	cmpcc	r4, r1, lsr r0
    9bfc:	45282031 	strmi	r2, [r8, #-49]!	; 0xffffffcf
    9c00:	5f495458 	svcpl	0x00495458
    9c04:	5f4e4950 	svcpl	0x004e4950
    9c08:	5050414d 	subspl	r4, r0, sp, asr #2
    9c0c:	5f474e49 	svcpl	0x00474e49
    9c10:	457b2974 	ldrbmi	r2, [fp, #-2420]!	; 0xfffff68c
    9c14:	31495458 	cmpcc	r9, r8, asr r4
    9c18:	50472c31 	subpl	r2, r7, r1, lsr ip
    9c1c:	2c444f49 	mcrrcs	15, 4, r4, r4, cr9
    9c20:	4f495047 	svcmi	0x00495047
    9c24:	4e49505f 	mcrmi	0, 2, r5, cr9, cr15, {2}
    9c28:	2c31315f 	ldfcss	f3, [r1], #-380	; 0xfffffe84
    9c2c:	49545845 	ldmdbmi	r4, {r0, r2, r6, fp, ip, lr}^
    9c30:	495f3131 	ldmdbmi	pc, {r0, r4, r5, r8, ip, sp}^	; <UNPREDICTABLE>
    9c34:	007d5152 	rsbseq	r5, sp, r2, asr r1
    9c38:	49545845 	ldmdbmi	r4, {r0, r2, r6, fp, ip, lr}^
    9c3c:	00322032 	eorseq	r2, r2, r2, lsr r0
    9c40:	49545845 	ldmdbmi	r4, {r0, r2, r6, fp, ip, lr}^
    9c44:	00372037 	eorseq	r2, r7, r7, lsr r0
    9c48:	49545845 	ldmdbmi	r4, {r0, r2, r6, fp, ip, lr}^
    9c4c:	41503531 	cmpmi	r0, r1, lsr r5
    9c50:	28203531 	stmdacs	r0!, {r0, r4, r5, r8, sl, ip, sp}
    9c54:	49545845 	ldmdbmi	r4, {r0, r2, r6, fp, ip, lr}^
    9c58:	4e49505f 	mcrmi	0, 2, r5, cr9, cr15, {2}
    9c5c:	50414d5f 	subpl	r4, r1, pc, asr sp
    9c60:	474e4950 	smlsldmi	r4, lr, r0, r9
    9c64:	7b29745f 	blvc	a66de8 <_Min_Stack_Size+0xa669e8>
    9c68:	49545845 	ldmdbmi	r4, {r0, r2, r6, fp, ip, lr}^
    9c6c:	472c3531 			; <UNDEFINED> instruction: 0x472c3531
    9c70:	414f4950 	cmpmi	pc, r0, asr r9	; <UNPREDICTABLE>
    9c74:	4950472c 	ldmdbmi	r0, {r2, r3, r5, r8, r9, sl, lr}^
    9c78:	49505f4f 	ldmdbmi	r0, {r0, r1, r2, r3, r6, r8, r9, sl, fp, ip, lr}^
    9c7c:	35315f4e 	ldrcc	r5, [r1, #-3918]!	; 0xfffff0b2
    9c80:	5458452c 	ldrbpl	r4, [r8], #-1324	; 0xfffffad4
    9c84:	5f353149 	svcpl	0x00353149
    9c88:	20515249 	subscs	r5, r1, r9, asr #4
    9c8c:	5845007d 	stmdapl	r5, {r0, r2, r3, r4, r5, r6}^
    9c90:	32314954 	eorscc	r4, r1, #84, 18	; 0x150000
    9c94:	00323120 	eorseq	r3, r2, r0, lsr #2
    9c98:	49545845 	ldmdbmi	r4, {r0, r2, r6, fp, ip, lr}^
    9c9c:	32445032 	subcc	r5, r4, #50	; 0x32
    9ca0:	58452820 	stmdapl	r5, {r5, fp, sp}^
    9ca4:	505f4954 	subspl	r4, pc, r4, asr r9	; <UNPREDICTABLE>
    9ca8:	4d5f4e49 	ldclmi	14, cr4, [pc, #-292]	; 9b8c <_Min_Stack_Size+0x978c>
    9cac:	49505041 	ldmdbmi	r0, {r0, r6, ip, lr}^
    9cb0:	745f474e 	ldrbvc	r4, [pc], #-1870	; 9cb8 <_Min_Stack_Size+0x98b8>
    9cb4:	58457b29 	stmdapl	r5, {r0, r3, r5, r8, r9, fp, ip, sp, lr}^
    9cb8:	2c324954 			; <UNDEFINED> instruction: 0x2c324954
    9cbc:	4f495047 	svcmi	0x00495047
    9cc0:	50472c44 	subpl	r2, r7, r4, asr #24
    9cc4:	505f4f49 	subspl	r4, pc, r9, asr #30
    9cc8:	325f4e49 	subscc	r4, pc, #1168	; 0x490
    9ccc:	5458452c 	ldrbpl	r4, [r8], #-1324	; 0xfffffad4
    9cd0:	495f3249 	ldmdbmi	pc, {r0, r3, r6, r9, ip, sp}^	; <UNPREDICTABLE>
    9cd4:	007d5152 	rsbseq	r5, sp, r2, asr r1
    9cd8:	49545845 	ldmdbmi	r4, {r0, r2, r6, fp, ip, lr}^
    9cdc:	38435038 	stmdacc	r3, {r3, r4, r5, ip, lr}^
    9ce0:	58452820 	stmdapl	r5, {r5, fp, sp}^
    9ce4:	505f4954 	subspl	r4, pc, r4, asr r9	; <UNPREDICTABLE>
    9ce8:	4d5f4e49 	ldclmi	14, cr4, [pc, #-292]	; 9bcc <_Min_Stack_Size+0x97cc>
    9cec:	49505041 	ldmdbmi	r0, {r0, r6, ip, lr}^
    9cf0:	745f474e 	ldrbvc	r4, [pc], #-1870	; 9cf8 <_Min_Stack_Size+0x98f8>
    9cf4:	58457b29 	stmdapl	r5, {r0, r3, r5, r8, r9, fp, ip, sp, lr}^
    9cf8:	2c384954 			; <UNDEFINED> instruction: 0x2c384954
    9cfc:	4f495047 	svcmi	0x00495047
    9d00:	50472c43 	subpl	r2, r7, r3, asr #24
    9d04:	505f4f49 	subspl	r4, pc, r9, asr #30
    9d08:	385f4e49 	ldmdacc	pc, {r0, r3, r6, r9, sl, fp, lr}^	; <UNPREDICTABLE>
    9d0c:	5458452c 	ldrbpl	r4, [r8], #-1324	; 0xfffffad4
    9d10:	495f3849 	ldmdbmi	pc, {r0, r3, r6, fp, ip, sp}^	; <UNPREDICTABLE>
    9d14:	007d5152 	rsbseq	r5, sp, r2, asr r1
    9d18:	49545845 	ldmdbmi	r4, {r0, r2, r6, fp, ip, lr}^
    9d1c:	37415037 	smlaldxcc	r5, r1, r7, r0
    9d20:	58452820 	stmdapl	r5, {r5, fp, sp}^
    9d24:	505f4954 	subspl	r4, pc, r4, asr r9	; <UNPREDICTABLE>
    9d28:	4d5f4e49 	ldclmi	14, cr4, [pc, #-292]	; 9c0c <_Min_Stack_Size+0x980c>
    9d2c:	49505041 	ldmdbmi	r0, {r0, r6, ip, lr}^
    9d30:	745f474e 	ldrbvc	r4, [pc], #-1870	; 9d38 <_Min_Stack_Size+0x9938>
    9d34:	58457b29 	stmdapl	r5, {r0, r3, r5, r8, r9, fp, ip, sp, lr}^
    9d38:	2c374954 			; <UNDEFINED> instruction: 0x2c374954
    9d3c:	4f495047 	svcmi	0x00495047
    9d40:	50472c41 	subpl	r2, r7, r1, asr #24
    9d44:	505f4f49 	subspl	r4, pc, r9, asr #30
    9d48:	375f4e49 	ldrbcc	r4, [pc, -r9, asr #28]
    9d4c:	5458452c 	ldrbpl	r4, [r8], #-1324	; 0xfffffad4
    9d50:	495f3749 	ldmdbmi	pc, {r0, r3, r6, r8, r9, sl, ip, sp}^	; <UNPREDICTABLE>
    9d54:	7d205152 	stfvcs	f5, [r0, #-328]!	; 0xfffffeb8
    9d58:	54584500 	ldrbpl	r4, [r8], #-1280	; 0xfffffb00
    9d5c:	43503149 	cmpmi	r0, #1073741842	; 0x40000012
    9d60:	45282031 	strmi	r2, [r8, #-49]!	; 0xffffffcf
    9d64:	5f495458 	svcpl	0x00495458
    9d68:	5f4e4950 	svcpl	0x004e4950
    9d6c:	5050414d 	subspl	r4, r0, sp, asr #2
    9d70:	5f474e49 	svcpl	0x00474e49
    9d74:	457b2974 	ldrbmi	r2, [fp, #-2420]!	; 0xfffff68c
    9d78:	31495458 	cmpcc	r9, r8, asr r4
    9d7c:	4950472c 	ldmdbmi	r0, {r2, r3, r5, r8, r9, sl, lr}^
    9d80:	472c434f 	strmi	r4, [ip, -pc, asr #6]!
    9d84:	5f4f4950 	svcpl	0x004f4950
    9d88:	5f4e4950 	svcpl	0x004e4950
    9d8c:	58452c31 	stmdapl	r5, {r0, r4, r5, sl, fp, sp}^
    9d90:	5f314954 	svcpl	0x00314954
    9d94:	7d515249 	lfmvc	f5, 2, [r1, #-292]	; 0xfffffedc
    9d98:	42484100 	submi	r4, r8, #0, 2
    9d9c:	00524e45 	subseq	r4, r2, r5, asr #28
    9da0:	49545845 	ldmdbmi	r4, {r0, r2, r6, fp, ip, lr}^
    9da4:	43503431 	cmpmi	r0, #822083584	; 0x31000000
    9da8:	28203431 	stmdacs	r0!, {r0, r4, r5, sl, ip, sp}
    9dac:	49545845 	ldmdbmi	r4, {r0, r2, r6, fp, ip, lr}^
    9db0:	4e49505f 	mcrmi	0, 2, r5, cr9, cr15, {2}
    9db4:	50414d5f 	subpl	r4, r1, pc, asr sp
    9db8:	474e4950 	smlsldmi	r4, lr, r0, r9
    9dbc:	7b29745f 	blvc	a66f40 <_Min_Stack_Size+0xa66b40>
    9dc0:	49545845 	ldmdbmi	r4, {r0, r2, r6, fp, ip, lr}^
    9dc4:	472c3431 			; <UNDEFINED> instruction: 0x472c3431
    9dc8:	434f4950 	movtmi	r4, #63824	; 0xf950
    9dcc:	4950472c 	ldmdbmi	r0, {r2, r3, r5, r8, r9, sl, lr}^
    9dd0:	49505f4f 	ldmdbmi	r0, {r0, r1, r2, r3, r6, r8, r9, sl, fp, ip, lr}^
    9dd4:	34315f4e 	ldrtcc	r5, [r1], #-3918	; 0xfffff0b2
    9dd8:	5458452c 	ldrbpl	r4, [r8], #-1324	; 0xfffffad4
    9ddc:	5f343149 	svcpl	0x00343149
    9de0:	7d515249 	lfmvc	f5, 2, [r1, #-292]	; 0xfffffedc
    9de4:	54584500 	ldrbpl	r4, [r8], #-1280	; 0xfffffb00
    9de8:	44503449 	ldrbmi	r3, [r0], #-1097	; 0xfffffbb7
    9dec:	45282034 	strmi	r2, [r8, #-52]!	; 0xffffffcc
    9df0:	5f495458 	svcpl	0x00495458
    9df4:	5f4e4950 	svcpl	0x004e4950
    9df8:	5050414d 	subspl	r4, r0, sp, asr #2
    9dfc:	5f474e49 	svcpl	0x00474e49
    9e00:	457b2974 	ldrbmi	r2, [fp, #-2420]!	; 0xfffff68c
    9e04:	34495458 	strbcc	r5, [r9], #-1112	; 0xfffffba8
    9e08:	4950472c 	ldmdbmi	r0, {r2, r3, r5, r8, r9, sl, lr}^
    9e0c:	472c444f 	strmi	r4, [ip, -pc, asr #8]!
    9e10:	5f4f4950 	svcpl	0x004f4950
    9e14:	5f4e4950 	svcpl	0x004e4950
    9e18:	58452c34 	stmdapl	r5, {r2, r4, r5, sl, fp, sp}^
    9e1c:	5f344954 	svcpl	0x00344954
    9e20:	7d515249 	lfmvc	f5, 2, [r1, #-292]	; 0xfffffedc
    9e24:	54584500 	ldrbpl	r4, [r8], #-1280	; 0xfffffb00
    9e28:	42503049 	subsmi	r3, r0, #73	; 0x49
    9e2c:	45282030 	strmi	r2, [r8, #-48]!	; 0xffffffd0
    9e30:	5f495458 	svcpl	0x00495458
    9e34:	5f4e4950 	svcpl	0x004e4950
    9e38:	5050414d 	subspl	r4, r0, sp, asr #2
    9e3c:	5f474e49 	svcpl	0x00474e49
    9e40:	457b2974 	ldrbmi	r2, [fp, #-2420]!	; 0xfffff68c
    9e44:	30495458 	subcc	r5, r9, r8, asr r4
    9e48:	4950472c 	ldmdbmi	r0, {r2, r3, r5, r8, r9, sl, lr}^
    9e4c:	472c424f 	strmi	r4, [ip, -pc, asr #4]!
    9e50:	5f4f4950 	svcpl	0x004f4950
    9e54:	5f4e4950 	svcpl	0x004e4950
    9e58:	58452c30 	stmdapl	r5, {r4, r5, sl, fp, sp}^
    9e5c:	5f304954 	svcpl	0x00304954
    9e60:	20515249 	subscs	r5, r1, r9, asr #4
    9e64:	5845007d 	stmdapl	r5, {r0, r2, r3, r4, r5, r6}^
    9e68:	50374954 	eorspl	r4, r7, r4, asr r9
    9e6c:	28203744 	stmdacs	r0!, {r2, r6, r8, r9, sl, ip, sp}
    9e70:	49545845 	ldmdbmi	r4, {r0, r2, r6, fp, ip, lr}^
    9e74:	4e49505f 	mcrmi	0, 2, r5, cr9, cr15, {2}
    9e78:	50414d5f 	subpl	r4, r1, pc, asr sp
    9e7c:	474e4950 	smlsldmi	r4, lr, r0, r9
    9e80:	7b29745f 	blvc	a67004 <_Min_Stack_Size+0xa66c04>
    9e84:	49545845 	ldmdbmi	r4, {r0, r2, r6, fp, ip, lr}^
    9e88:	50472c37 	subpl	r2, r7, r7, lsr ip
    9e8c:	2c444f49 	mcrrcs	15, 4, r4, r4, cr9
    9e90:	4f495047 	svcmi	0x00495047
    9e94:	4e49505f 	mcrmi	0, 2, r5, cr9, cr15, {2}
    9e98:	452c375f 	strmi	r3, [ip, #-1887]!	; 0xfffff8a1
    9e9c:	37495458 	smlsldcc	r5, r9, r8, r4
    9ea0:	5152495f 	cmppl	r2, pc, asr r9
    9ea4:	5845007d 	stmdapl	r5, {r0, r2, r3, r4, r5, r6}^
    9ea8:	20334954 	eorscs	r4, r3, r4, asr r9
    9eac:	58450033 	stmdapl	r5, {r0, r1, r4, r5}^
    9eb0:	33314954 	teqcc	r1, #84, 18	; 0x150000
    9eb4:	00333120 	eorseq	r3, r3, r0, lsr #2
    9eb8:	49545845 	ldmdbmi	r4, {r0, r2, r6, fp, ip, lr}^
    9ebc:	42503331 	subsmi	r3, r0, #-1006632960	; 0xc4000000
    9ec0:	28203331 	stmdacs	r0!, {r0, r4, r5, r8, r9, ip, sp}
    9ec4:	49545845 	ldmdbmi	r4, {r0, r2, r6, fp, ip, lr}^
    9ec8:	4e49505f 	mcrmi	0, 2, r5, cr9, cr15, {2}
    9ecc:	50414d5f 	subpl	r4, r1, pc, asr sp
    9ed0:	474e4950 	smlsldmi	r4, lr, r0, r9
    9ed4:	7b29745f 	blvc	a67058 <_Min_Stack_Size+0xa66c58>
    9ed8:	49545845 	ldmdbmi	r4, {r0, r2, r6, fp, ip, lr}^
    9edc:	472c3331 			; <UNDEFINED> instruction: 0x472c3331
    9ee0:	424f4950 	submi	r4, pc, #80, 18	; 0x140000
    9ee4:	4950472c 	ldmdbmi	r0, {r2, r3, r5, r8, r9, sl, lr}^
    9ee8:	49505f4f 	ldmdbmi	r0, {r0, r1, r2, r3, r6, r8, r9, sl, fp, ip, lr}^
    9eec:	33315f4e 	teqcc	r1, #312	; 0x138
    9ef0:	5458452c 	ldrbpl	r4, [r8], #-1324	; 0xfffffad4
    9ef4:	5f333149 	svcpl	0x00333149
    9ef8:	20515249 	subscs	r5, r1, r9, asr #4
    9efc:	5845007d 	stmdapl	r5, {r0, r2, r3, r4, r5, r6}^
    9f00:	20384954 	eorscs	r4, r8, r4, asr r9
    9f04:	58450038 	stmdapl	r5, {r3, r4, r5}^
    9f08:	35314954 	ldrcc	r4, [r1, #-2388]!	; 0xfffff6ac
    9f0c:	35314250 	ldrcc	r4, [r1, #-592]!	; 0xfffffdb0
    9f10:	58452820 	stmdapl	r5, {r5, fp, sp}^
    9f14:	505f4954 	subspl	r4, pc, r4, asr r9	; <UNPREDICTABLE>
    9f18:	4d5f4e49 	ldclmi	14, cr4, [pc, #-292]	; 9dfc <_Min_Stack_Size+0x99fc>
    9f1c:	49505041 	ldmdbmi	r0, {r0, r6, ip, lr}^
    9f20:	745f474e 	ldrbvc	r4, [pc], #-1870	; 9f28 <_Min_Stack_Size+0x9b28>
    9f24:	58457b29 	stmdapl	r5, {r0, r3, r5, r8, r9, fp, ip, sp, lr}^
    9f28:	35314954 	ldrcc	r4, [r1, #-2388]!	; 0xfffff6ac
    9f2c:	4950472c 	ldmdbmi	r0, {r2, r3, r5, r8, r9, sl, lr}^
    9f30:	472c424f 	strmi	r4, [ip, -pc, asr #4]!
    9f34:	5f4f4950 	svcpl	0x004f4950
    9f38:	5f4e4950 	svcpl	0x004e4950
    9f3c:	452c3531 	strmi	r3, [ip, #-1329]!	; 0xfffffacf
    9f40:	31495458 	cmpcc	r9, r8, asr r4
    9f44:	52495f35 	subpl	r5, r9, #53, 30	; 0xd4
    9f48:	007d2051 	rsbseq	r2, sp, r1, asr r0
    9f4c:	49545845 	ldmdbmi	r4, {r0, r2, r6, fp, ip, lr}^
    9f50:	36435036 			; <UNDEFINED> instruction: 0x36435036
    9f54:	58452820 	stmdapl	r5, {r5, fp, sp}^
    9f58:	505f4954 	subspl	r4, pc, r4, asr r9	; <UNPREDICTABLE>
    9f5c:	4d5f4e49 	ldclmi	14, cr4, [pc, #-292]	; 9e40 <_Min_Stack_Size+0x9a40>
    9f60:	49505041 	ldmdbmi	r0, {r0, r6, ip, lr}^
    9f64:	745f474e 	ldrbvc	r4, [pc], #-1870	; 9f6c <_Min_Stack_Size+0x9b6c>
    9f68:	58457b29 	stmdapl	r5, {r0, r3, r5, r8, r9, fp, ip, sp, lr}^
    9f6c:	2c364954 			; <UNDEFINED> instruction: 0x2c364954
    9f70:	4f495047 	svcmi	0x00495047
    9f74:	50472c43 	subpl	r2, r7, r3, asr #24
    9f78:	505f4f49 	subspl	r4, pc, r9, asr #30
    9f7c:	365f4e49 	ldrbcc	r4, [pc], -r9, asr #28
    9f80:	5458452c 	ldrbpl	r4, [r8], #-1324	; 0xfffffad4
    9f84:	495f3649 	ldmdbmi	pc, {r0, r3, r6, r9, sl, ip, sp}^	; <UNPREDICTABLE>
    9f88:	007d5152 	rsbseq	r5, sp, r2, asr r1
    9f8c:	5f515249 	svcpl	0x00515249
    9f90:	67616c66 	strbvs	r6, [r1, -r6, ror #24]!
    9f94:	54584500 	ldrbpl	r4, [r8], #-1280	; 0xfffffb00
    9f98:	43503749 	cmpmi	r0, #19136512	; 0x1240000
    9f9c:	45282037 	strmi	r2, [r8, #-55]!	; 0xffffffc9
    9fa0:	5f495458 	svcpl	0x00495458
    9fa4:	5f4e4950 	svcpl	0x004e4950
    9fa8:	5050414d 	subspl	r4, r0, sp, asr #2
    9fac:	5f474e49 	svcpl	0x00474e49
    9fb0:	457b2974 	ldrbmi	r2, [fp, #-2420]!	; 0xfffff68c
    9fb4:	37495458 	smlsldcc	r5, r9, r8, r4
    9fb8:	4950472c 	ldmdbmi	r0, {r2, r3, r5, r8, r9, sl, lr}^
    9fbc:	472c434f 	strmi	r4, [ip, -pc, asr #6]!
    9fc0:	5f4f4950 	svcpl	0x004f4950
    9fc4:	5f4e4950 	svcpl	0x004e4950
    9fc8:	58452c37 	stmdapl	r5, {r0, r1, r2, r4, r5, sl, fp, sp}^
    9fcc:	5f374954 	svcpl	0x00374954
    9fd0:	7d515249 	lfmvc	f5, 2, [r1, #-292]	; 0xfffffedc
    9fd4:	54584500 	ldrbpl	r4, [r8], #-1280	; 0xfffffb00
    9fd8:	50353149 	eorspl	r3, r5, r9, asr #2
    9fdc:	20353143 	eorscs	r3, r5, r3, asr #2
    9fe0:	54584528 	ldrbpl	r4, [r8], #-1320	; 0xfffffad8
    9fe4:	49505f49 	ldmdbmi	r0, {r0, r3, r6, r8, r9, sl, fp, ip, lr}^
    9fe8:	414d5f4e 	cmpmi	sp, lr, asr #30
    9fec:	4e495050 	mcrmi	0, 2, r5, cr9, cr0, {2}
    9ff0:	29745f47 	ldmdbcs	r4!, {r0, r1, r2, r6, r8, r9, sl, fp, ip, lr}^
    9ff4:	5458457b 	ldrbpl	r4, [r8], #-1403	; 0xfffffa85
    9ff8:	2c353149 	ldfcss	f3, [r5], #-292	; 0xfffffedc
    9ffc:	4f495047 	svcmi	0x00495047
    a000:	50472c43 	subpl	r2, r7, r3, asr #24
    a004:	505f4f49 	subspl	r4, pc, r9, asr #30
    a008:	315f4e49 	cmpcc	pc, r9, asr #28
    a00c:	58452c35 	stmdapl	r5, {r0, r2, r4, r5, sl, fp, sp}^
    a010:	35314954 	ldrcc	r4, [r1, #-2388]!	; 0xfffff6ac
    a014:	5152495f 	cmppl	r2, pc, asr r9
    a018:	4e49007d 	mcrmi	0, 2, r0, cr9, cr13, {3}
    a01c:	58455f43 	stmdapl	r5, {r0, r1, r6, r8, r9, sl, fp, ip, lr}^
    a020:	485f4954 	ldmdami	pc, {r2, r4, r6, r8, fp, lr}^	; <UNPREDICTABLE>
    a024:	2e00205f 	mcrcs	0, 0, r2, cr0, cr15, {2}
    a028:	74532f2e 	ldrbvc	r2, [r3], #-3886	; 0xfffff0d2
    a02c:	75747261 	ldrbvc	r7, [r4, #-609]!	; 0xfffffd9f
    a030:	74732f70 	ldrbtvc	r2, [r3], #-3952	; 0xfffff090
    a034:	75747261 	ldrbvc	r7, [r4, #-609]!	; 0xfffffd9f
    a038:	74735f70 	ldrbtvc	r5, [r3], #-3952	; 0xfffff090
    a03c:	6632336d 	ldrtvs	r3, [r2], -sp, ror #6
    a040:	63333031 	teqvs	r3, #49	; 0x31
    a044:	2e787438 	mrccs	4, 3, r7, cr8, cr8, {1}
    a048:	4e470073 	mcrmi	0, 2, r0, cr7, cr3, {3}
    a04c:	53412055 	movtpl	r2, #4181	; 0x1055
    a050:	332e3220 			; <UNDEFINED> instruction: 0x332e3220
    a054:	00312e36 	eorseq	r2, r1, r6, lsr lr
    a058:	49545845 	ldmdbmi	r4, {r0, r2, r6, fp, ip, lr}^
    a05c:	4d005243 	sfmmi	f5, 4, [r0, #-268]	; 0xfffffef4
    a060:	5f4c4143 	svcpl	0x004c4143
    a064:	49545845 	ldmdbmi	r4, {r0, r2, r6, fp, ip, lr}^
    a068:	6965445f 	stmdbvs	r5!, {r0, r1, r2, r3, r4, r6, sl, lr}^
    a06c:	0074696e 	rsbseq	r6, r4, lr, ror #18
    a070:	52535446 	subspl	r5, r3, #1174405120	; 0x46000000
    a074:	74786500 	ldrbtvc	r6, [r8], #-1280	; 0xfffffb00
    a078:	46410069 	strbmi	r0, [r1], -r9, rrx
    a07c:	455f4f49 	ldrbmi	r4, [pc, #-3913]	; 913b <_Min_Stack_Size+0x8d3b>
    a080:	5f495458 	svcpl	0x00495458
    a084:	4f495047 	svcmi	0x00495047
    a088:	70614d5f 	rsbvc	r4, r1, pc, asr sp
    a08c:	676e6970 			; <UNDEFINED> instruction: 0x676e6970
    a090:	20297828 	eorcs	r7, r9, r8, lsr #16
    a094:	78282028 	stmdavc	r8!, {r3, r5, sp}
    a098:	47203d3d 			; <UNDEFINED> instruction: 0x47203d3d
    a09c:	414f4950 	cmpmi	pc, r0, asr r9	; <UNPREDICTABLE>
    a0a0:	3a303f29 	bcc	c19d4c <_Min_Stack_Size+0xc1994c>
    a0a4:	3d782820 	ldclcc	8, cr2, [r8, #-128]!	; 0xffffff80
    a0a8:	5047203d 	subpl	r2, r7, sp, lsr r0
    a0ac:	29424f49 	stmdbcs	r2, {r0, r3, r6, r8, r9, sl, fp, lr}^
    a0b0:	203a313f 	eorscs	r3, sl, pc, lsr r1
    a0b4:	3d3d7828 	ldccc	8, cr7, [sp, #-160]!	; 0xffffff60
    a0b8:	49504720 	ldmdbmi	r0, {r5, r8, r9, sl, lr}^
    a0bc:	3f29434f 	svccc	0x0029434f
    a0c0:	28203a32 	stmdacs	r0!, {r1, r4, r5, r9, fp, ip, sp}
    a0c4:	203d3d78 	eorscs	r3, sp, r8, ror sp
    a0c8:	4f495047 	svcmi	0x00495047
    a0cc:	333f2944 	teqcc	pc, #68, 18	; 0x110000
    a0d0:	2920303a 	stmdbcs	r0!, {r1, r3, r4, r5, ip, sp}
    a0d4:	53545200 	cmppl	r4, #0, 4
    a0d8:	45520052 	ldrbmi	r0, [r2, #-82]	; 0xffffffae
    a0dc:	56524553 			; <UNDEFINED> instruction: 0x56524553
    a0e0:	00304445 	eorseq	r4, r0, r5, asr #8
    a0e4:	49545845 	ldmdbmi	r4, {r0, r2, r6, fp, ip, lr}^
    a0e8:	52495f34 	subpl	r5, r9, #52, 30	; 0xd0
    a0ec:	6e614851 	mcrvs	8, 3, r4, cr1, cr1, {2}
    a0f0:	72656c64 	rsbvc	r6, r5, #100, 24	; 0x6400
    a0f4:	5f504700 	svcpl	0x00504700
    a0f8:	5f515249 	svcpl	0x00515249
    a0fc:	6c6c6163 	stfvse	f6, [ip], #-396	; 0xfffffe74
    a100:	6b636142 	blvs	18e2610 <_Min_Stack_Size+0x18e2210>
    a104:	49464100 	stmdbmi	r6, {r8, lr}^
    a108:	00745f4f 	rsbseq	r5, r4, pc, asr #30
    a10c:	5250414d 	subspl	r4, r0, #1073741843	; 0x40000013
    a110:	2e2e0032 	mcrcs	0, 1, r0, cr14, cr2, {1}
    a114:	6d74532f 	ldclvs	3, cr5, [r4, #-188]!	; 0xffffff44
    a118:	31463233 	cmpcc	r6, r3, lsr r2
    a11c:	38633330 	stmdacc	r3!, {r4, r5, r8, r9, ip, sp}^
    a120:	445f3674 	ldrbmi	r3, [pc], #-1652	; a128 <_Min_Stack_Size+0x9d28>
    a124:	65766972 	ldrbvs	r6, [r6, #-2418]!	; 0xfffff68e
    a128:	452f7372 	strmi	r7, [pc, #-882]!	; 9dbe <_Min_Stack_Size+0x99be>
    a12c:	2f495458 	svccs	0x00495458
    a130:	69747865 	ldmdbvs	r4!, {r0, r2, r5, r6, fp, ip, sp, lr}^
    a134:	7000632e 	andvc	r6, r0, lr, lsr #6
    a138:	6f436e69 	svcvs	0x00436e69
    a13c:	6769666e 	strbvs	r6, [r9, -lr, ror #12]!
    a140:	41434d00 	cmpmi	r3, r0, lsl #26
    a144:	58455f4c 	stmdapl	r5, {r2, r3, r6, r8, r9, sl, fp, ip, lr}^
    a148:	555f4954 	ldrbpl	r4, [pc, #-2388]	; 97fc <_Min_Stack_Size+0x93fc>
    a14c:	74616470 	strbtvc	r6, [r1], #-1136	; 0xfffffb90
    a150:	57530065 	ldrbpl	r0, [r3, -r5, rrx]
    a154:	00524549 	subseq	r4, r2, r9, asr #10
    a158:	5250414d 	subspl	r4, r0, #1073741843	; 0x40000013
    a15c:	54584500 	ldrbpl	r4, [r8], #-1280	; 0xfffffb00
    a160:	495f3249 	ldmdbmi	pc, {r0, r3, r6, r9, ip, sp}^	; <UNPREDICTABLE>
    a164:	61485152 	cmpvs	r8, r2, asr r1
    a168:	656c646e 	strbvs	r6, [ip, #-1134]!	; 0xfffffb92
    a16c:	70750072 	rsbsvc	r0, r5, r2, ror r0
    a170:	65746164 	ldrbvs	r6, [r4, #-356]!	; 0xfffffe9c
    a174:	5458455f 	ldrbpl	r4, [r8], #-1375	; 0xfffffaa1
    a178:	58450049 	stmdapl	r5, {r0, r3, r6}^
    a17c:	5f394954 	svcpl	0x00394954
    a180:	52495f35 	subpl	r5, r9, #53, 30	; 0xd4
    a184:	6e614851 	mcrvs	8, 3, r4, cr1, cr1, {2}
    a188:	72656c64 	rsbvc	r6, r5, #100, 24	; 0x6400
    a18c:	54584500 	ldrbpl	r4, [r8], #-1280	; 0xfffffb00
    a190:	495f3349 	ldmdbmi	pc, {r0, r3, r6, r8, r9, ip, sp}^	; <UNPREDICTABLE>
    a194:	61485152 	cmpvs	r8, r2, asr r1
    a198:	656c646e 	strbvs	r6, [ip, #-1134]!	; 0xfffffb92
    a19c:	46410072 			; <UNDEFINED> instruction: 0x46410072
    a1a0:	455f4f49 	ldrbmi	r4, [pc, #-3913]	; 925f <_Min_Stack_Size+0x8e5f>
    a1a4:	43495458 	movtmi	r5, #37976	; 0x9458
    a1a8:	6e695f52 	mcrvs	15, 3, r5, cr9, cr2, {2}
    a1ac:	00786564 	rsbseq	r6, r8, r4, ror #10
    a1b0:	49545845 	ldmdbmi	r4, {r0, r2, r6, fp, ip, lr}^
    a1b4:	52495f30 	subpl	r5, r9, #48, 30	; 0xc0
    a1b8:	6e614851 	mcrvs	8, 3, r4, cr1, cr1, {2}
    a1bc:	72656c64 	rsbvc	r6, r5, #100, 24	; 0x6400
    a1c0:	43564500 	cmpmi	r6, #0, 10
    a1c4:	58450052 	stmdapl	r5, {r1, r4, r6}^
    a1c8:	35314954 	ldrcc	r4, [r1, #-2388]!	; 0xfffff6ac
    a1cc:	5f30315f 	svcpl	0x0030315f
    a1d0:	48515249 	ldmdami	r1, {r0, r3, r6, r9, ip, lr}^
    a1d4:	6c646e61 	stclvs	14, cr6, [r4], #-388	; 0xfffffe7c
    a1d8:	41007265 	tstmi	r0, r5, ror #4
    a1dc:	5f4f4946 	svcpl	0x004f4946
    a1e0:	49545845 	ldmdbmi	r4, {r0, r2, r6, fp, ip, lr}^
    a1e4:	705f5243 	subsvc	r5, pc, r3, asr #4
    a1e8:	7469736f 	strbtvc	r7, [r9], #-879	; 0xfffffc91
    a1ec:	006e6f69 	rsbeq	r6, lr, r9, ror #30
    a1f0:	49545845 	ldmdbmi	r4, {r0, r2, r6, fp, ip, lr}^
    a1f4:	4400745f 	strmi	r7, [r0], #-1119	; 0xfffffba1
    a1f8:	62617369 	rsbvs	r7, r1, #-1543503871	; 0xa4000001
    a1fc:	4e5f656c 	cdpmi	5, 5, cr6, cr15, cr12, {3}
    a200:	00434956 	subeq	r4, r3, r6, asr r9
    a204:	49545845 	ldmdbmi	r4, {r0, r2, r6, fp, ip, lr}^
    a208:	52495f31 	subpl	r5, r9, #49, 30	; 0xc4
    a20c:	6e614851 	mcrvs	8, 3, r4, cr1, cr1, {2}
    a210:	72656c64 	rsbvc	r6, r5, #100, 24	; 0x6400
    a214:	616e4500 	cmnvs	lr, r0, lsl #10
    a218:	5f656c62 	svcpl	0x00656c62
    a21c:	4349564e 	movtmi	r5, #38478	; 0x964e
    a220:	6e6f4300 	cdpvs	3, 6, cr4, cr15, cr0, {0}
    a224:	75676966 	strbvc	r6, [r7, #-2406]!	; 0xfffff69a
    a228:	52646572 	rsbpl	r6, r4, #478150656	; 0x1c800000
    a22c:	73696765 	cmnvc	r9, #26476544	; 0x1940000
    a230:	00726574 	rsbseq	r6, r2, r4, ror r5
    a234:	532f2e2e 			; <UNDEFINED> instruction: 0x532f2e2e
    a238:	32336d74 	eorscc	r6, r3, #116, 26	; 0x1d00
    a23c:	33303146 	teqcc	r0, #-2147483631	; 0x80000011
    a240:	36743863 	ldrbtcc	r3, [r4], -r3, ror #16
    a244:	6972445f 	ldmdbvs	r2!, {r0, r1, r2, r3, r4, r6, sl, lr}^
    a248:	73726576 	cmnvc	r2, #494927872	; 0x1d800000
    a24c:	4950472f 	ldmdbmi	r0, {r0, r1, r2, r3, r5, r8, r9, sl, lr}^
    a250:	70672f4f 	rsbvc	r2, r7, pc, asr #30
    a254:	632e6f69 			; <UNDEFINED> instruction: 0x632e6f69
    a258:	6e695000 	cdpvs	0, 6, cr5, cr9, cr0, {0}
    a25c:	666e6f43 	strbtvs	r6, [lr], -r3, asr #30
    a260:	4d006769 	stcmi	7, cr6, [r0, #-420]	; 0xfffffe5c
    a264:	5f4c4143 	svcpl	0x004c4143
    a268:	4f495047 	svcmi	0x00495047
    a26c:	676f545f 			; <UNDEFINED> instruction: 0x676f545f
    a270:	50656c67 	rsbpl	r6, r5, r7, ror #24
    a274:	47006e69 	strmi	r6, [r0, -r9, ror #28]
    a278:	784f4950 	stmdavc	pc, {r4, r6, r8, fp, lr}^	; <UNPREDICTABLE>
    a27c:	6e697000 	cdpvs	0, 6, cr7, cr9, cr0, {0}
    a280:	6e6f635f 	mcrvs	3, 3, r6, cr15, cr15, {2}
    a284:	00676966 	rsbeq	r6, r7, r6, ror #18
    a288:	4c41434d 	mcrrmi	3, 4, r4, r1, cr13
    a28c:	4950475f 	ldmdbmi	r0, {r0, r1, r2, r3, r4, r6, r8, r9, sl, lr}^
    a290:	65525f4f 	ldrbvs	r5, [r2, #-3919]	; 0xfffff0b1
    a294:	69506461 	ldmdbvs	r0, {r0, r5, r6, sl, sp, lr}^
    a298:	434d006e 	movtmi	r0, #53358	; 0xd06e
    a29c:	475f4c41 	ldrbmi	r4, [pc, -r1, asr #24]
    a2a0:	5f4f4950 	svcpl	0x004f4950
    a2a4:	6b636f4c 	blvs	18e5fdc <_Min_Stack_Size+0x18e5bdc>
    a2a8:	006e6950 	rsbeq	r6, lr, r0, asr r9
    a2ac:	5f746547 	svcpl	0x00746547
    a2b0:	5f746942 	svcpl	0x00746942
    a2b4:	61636f4c 	cmnvs	r3, ip, asr #30
    a2b8:	6e6f6974 			; <UNDEFINED> instruction: 0x6e6f6974
    a2bc:	6e695000 	cdpvs	0, 6, cr5, cr9, cr0, {0}
    a2c0:	626d754e 	rsbvs	r7, sp, #327155712	; 0x13800000
    a2c4:	4d007265 	sfmmi	f7, 4, [r0, #-404]	; 0xfffffe6c
    a2c8:	5f4c4143 	svcpl	0x004c4143
    a2cc:	4f495047 	svcmi	0x00495047
    a2d0:	4965445f 	stmdbmi	r5!, {r0, r1, r2, r3, r4, r6, sl, lr}^
    a2d4:	0074696e 	rsbseq	r6, r4, lr, ror #18
    a2d8:	5f746962 	svcpl	0x00746962
    a2dc:	74617473 	strbtvc	r7, [r1], #-1139	; 0xfffffb8d
    a2e0:	70007375 	andvc	r7, r0, r5, ror r3
    a2e4:	5f74726f 	svcpl	0x0074726f
    a2e8:	756c6176 	strbvc	r6, [ip, #-374]!	; 0xfffffe8a
    a2ec:	434d0065 	movtmi	r0, #53349	; 0xd065
    a2f0:	475f4c41 	ldrbmi	r4, [pc, -r1, asr #24]
    a2f4:	5f4f4950 	svcpl	0x004f4950
    a2f8:	64616552 	strbtvs	r6, [r1], #-1362	; 0xfffffaae
    a2fc:	74726f50 	ldrbtvc	r6, [r2], #-3920	; 0xfffff0b0
    a300:	6d657400 	cfstrdvs	mvd7, [r5, #-0]
    a304:	Address 0x000000000000a304 is out of bounds.


Disassembly of section .comment:

00000000 <.comment>:
   0:	3a434347 	bcc	10d0d24 <_Min_Stack_Size+0x10d0924>
   4:	4e472820 	cdpmi	8, 4, cr2, cr7, cr0, {1}
   8:	6f542055 	svcvs	0x00542055
   c:	20736c6f 	rsbscs	r6, r3, pc, ror #24
  10:	20726f66 	rsbscs	r6, r2, r6, ror #30
  14:	334d5453 	movtcc	r5, #54355	; 0xd453
  18:	30312032 	eorscc	r2, r1, r2, lsr r0
  1c:	322d332e 	eorcc	r3, sp, #-1207959552	; 0xb8000000
  20:	2e313230 	mrccs	2, 1, r3, cr1, cr0, {1}
  24:	322e3031 	eorcc	r3, lr, #49	; 0x31
  28:	31313230 	teqcc	r1, r0, lsr r2
  2c:	2d353031 	ldccs	0, cr3, [r5, #-196]!	; 0xffffff3c
  30:	30303131 	eorscc	r3, r0, r1, lsr r1
  34:	30312029 	eorscc	r2, r1, r9, lsr #32
  38:	312e332e 			; <UNDEFINED> instruction: 0x312e332e
  3c:	32303220 	eorscc	r3, r0, #32, 4
  40:	32383031 	eorscc	r3, r8, #49	; 0x31
  44:	72282034 	eorvc	r2, r8, #52	; 0x34
  48:	61656c65 	cmnvs	r5, r5, ror #24
  4c:	00296573 	eoreq	r6, r9, r3, ror r5

Disassembly of section .debug_frame:

00000000 <.debug_frame>:
   0:	0000000c 	andeq	r0, r0, ip
   4:	ffffffff 			; <UNDEFINED> instruction: 0xffffffff
   8:	7c020001 	stcvc	0, cr0, [r2], {1}
   c:	000d0c0e 	andeq	r0, sp, lr, lsl #24
  10:	00000024 	andeq	r0, r0, r4, lsr #32
  14:	00000000 	andeq	r0, r0, r0
  18:	08000170 	stmdaeq	r0, {r4, r5, r6, r8}
  1c:	0000003a 	andeq	r0, r0, sl, lsr r0
  20:	87040e41 	strhi	r0, [r4, -r1, asr #28]
  24:	180e4101 	stmdane	lr, {r0, r8, lr}
  28:	57070d41 	strpl	r0, [r7, -r1, asr #26]
  2c:	0d41040e 	cfstrdeq	mvd0, [r1, #-56]	; 0xffffffc8
  30:	0ec7410d 	poleqs	f4, f7, #5.0
  34:	00000000 	andeq	r0, r0, r0
  38:	00000018 	andeq	r0, r0, r8, lsl r0
  3c:	00000000 	andeq	r0, r0, r0
  40:	080001ac 	stmdaeq	r0, {r2, r3, r5, r7, r8}
  44:	00000158 	andeq	r0, r0, r8, asr r1
  48:	87080e41 	strhi	r0, [r8, -r1, asr #28]
  4c:	41018e02 	tstmi	r1, r2, lsl #28
  50:	0000070d 	andeq	r0, r0, sp, lsl #14
  54:	00000018 	andeq	r0, r0, r8, lsl r0
	...
  60:	000000d8 	ldrdeq	r0, [r0], -r8
  64:	87080e41 	strhi	r0, [r8, -r1, asr #28]
  68:	41018e02 	tstmi	r1, r2, lsl #28
  6c:	0000070d 	andeq	r0, r0, sp, lsl #14
  70:	00000018 	andeq	r0, r0, r8, lsl r0
  74:	00000000 	andeq	r0, r0, r0
  78:	08000304 	stmdaeq	r0, {r2, r8, r9}
  7c:	0000002c 	andeq	r0, r0, ip, lsr #32
  80:	87080e41 	strhi	r0, [r8, -r1, asr #28]
  84:	41018e02 	tstmi	r1, r2, lsl #28
  88:	0000070d 	andeq	r0, r0, sp, lsl #14
  8c:	00000020 	andeq	r0, r0, r0, lsr #32
  90:	00000000 	andeq	r0, r0, r0
  94:	08000330 	stmdaeq	r0, {r4, r5, r8, r9}
  98:	00000044 	andeq	r0, r0, r4, asr #32
  9c:	87080e41 	strhi	r0, [r8, -r1, asr #28]
  a0:	41018e02 	tstmi	r1, r2, lsl #28
  a4:	0d41100e 	stcleq	0, cr1, [r1, #-56]	; 0xffffffc8
  a8:	080e5a07 	stmdaeq	lr, {r0, r1, r2, r9, fp, ip, lr}
  ac:	000d0d41 	andeq	r0, sp, r1, asr #26
  b0:	00000018 	andeq	r0, r0, r8, lsl r0
  b4:	00000000 	andeq	r0, r0, r0
  b8:	08000374 	stmdaeq	r0, {r2, r4, r5, r6, r8, r9}
  bc:	00000034 	andeq	r0, r0, r4, lsr r0
  c0:	87080e41 	strhi	r0, [r8, -r1, asr #28]
  c4:	41018e02 	tstmi	r1, r2, lsl #28
  c8:	0000070d 	andeq	r0, r0, sp, lsl #14
  cc:	00000020 	andeq	r0, r0, r0, lsr #32
	...
  d8:	00000044 	andeq	r0, r0, r4, asr #32
  dc:	87080e41 	strhi	r0, [r8, -r1, asr #28]
  e0:	41018e02 	tstmi	r1, r2, lsl #28
  e4:	0d41100e 	stcleq	0, cr1, [r1, #-56]	; 0xffffffc8
  e8:	080e5a07 	stmdaeq	lr, {r0, r1, r2, r9, fp, ip, lr}
  ec:	000d0d41 	andeq	r0, sp, r1, asr #26
  f0:	00000020 	andeq	r0, r0, r0, lsr #32
	...
  fc:	0000005a 	andeq	r0, r0, sl, asr r0
 100:	87080e41 	strhi	r0, [r8, -r1, asr #28]
 104:	41018e02 	tstmi	r1, r2, lsl #28
 108:	0d41180e 	stcleq	8, cr1, [r1, #-56]	; 0xffffffc8
 10c:	080e6807 	stmdaeq	lr, {r0, r1, r2, fp, sp, lr}
 110:	000d0d41 	andeq	r0, sp, r1, asr #26
 114:	00000020 	andeq	r0, r0, r0, lsr #32
	...
 120:	0000004a 	andeq	r0, r0, sl, asr #32
 124:	87080e41 	strhi	r0, [r8, -r1, asr #28]
 128:	41018e02 	tstmi	r1, r2, lsl #28
 12c:	0d41100e 	stcleq	0, cr1, [r1, #-56]	; 0xffffffc8
 130:	080e6007 	stmdaeq	lr, {r0, r1, r2, sp, lr}
 134:	000d0d41 	andeq	r0, sp, r1, asr #26
 138:	00000018 	andeq	r0, r0, r8, lsl r0
 13c:	00000000 	andeq	r0, r0, r0
 140:	080003a8 	stmdaeq	r0, {r3, r5, r7, r8, r9}
 144:	0000000e 	andeq	r0, r0, lr
 148:	87080e41 	strhi	r0, [r8, -r1, asr #28]
 14c:	41018e02 	tstmi	r1, r2, lsl #28
 150:	0000070d 	andeq	r0, r0, sp, lsl #14
 154:	00000020 	andeq	r0, r0, r0, lsr #32
	...
 160:	0000002c 	andeq	r0, r0, ip, lsr #32
 164:	87080e41 	strhi	r0, [r8, -r1, asr #28]
 168:	41018e02 	tstmi	r1, r2, lsl #28
 16c:	0d41180e 	stcleq	8, cr1, [r1, #-56]	; 0xffffffc8
 170:	080e4f07 	stmdaeq	lr, {r0, r1, r2, r8, r9, sl, fp, lr}
 174:	000d0d41 	andeq	r0, sp, r1, asr #26
 178:	00000020 	andeq	r0, r0, r0, lsr #32
	...
 184:	0000008c 	andeq	r0, r0, ip, lsl #1
 188:	87080e41 	strhi	r0, [r8, -r1, asr #28]
 18c:	41018e02 	tstmi	r1, r2, lsl #28
 190:	0c41400e 	mcrreq	0, 0, r4, r1, cr14
 194:	0e7a3807 	cdpeq	8, 7, cr3, cr10, cr7, {0}
 198:	0d0d4108 	stfeqs	f4, [sp, #-32]	; 0xffffffe0
 19c:	0000000c 	andeq	r0, r0, ip
 1a0:	ffffffff 			; <UNDEFINED> instruction: 0xffffffff
 1a4:	7c020001 	stcvc	0, cr0, [r2], {1}
 1a8:	000d0c0e 	andeq	r0, sp, lr, lsl #24
 1ac:	0000001c 	andeq	r0, r0, ip, lsl r0
 1b0:	0000019c 	muleq	r0, ip, r1
 1b4:	080003b8 	stmdaeq	r0, {r3, r4, r5, r7, r8, r9}
 1b8:	00000030 	andeq	r0, r0, r0, lsr r0
 1bc:	87040e41 	strhi	r0, [r4, -r1, asr #28]
 1c0:	070d4101 	streq	r4, [sp, -r1, lsl #2]
 1c4:	410d0d4f 	tstmi	sp, pc, asr #26
 1c8:	00000ec7 	andeq	r0, r0, r7, asr #29
 1cc:	0000001c 	andeq	r0, r0, ip, lsl r0
 1d0:	0000019c 	muleq	r0, ip, r1
 1d4:	080003e8 	stmdaeq	r0, {r3, r5, r6, r7, r8, r9}
 1d8:	00000088 	andeq	r0, r0, r8, lsl #1
 1dc:	87080e41 	strhi	r0, [r8, -r1, asr #28]
 1e0:	41018e02 	tstmi	r1, r2, lsl #28
 1e4:	0d41280e 	stcleq	8, cr2, [r1, #-56]	; 0xffffffc8
 1e8:	00000007 	andeq	r0, r0, r7
 1ec:	0000000c 	andeq	r0, r0, ip
 1f0:	ffffffff 			; <UNDEFINED> instruction: 0xffffffff
 1f4:	7c020001 	stcvc	0, cr0, [r2], {1}
 1f8:	000d0c0e 	andeq	r0, sp, lr, lsl #24
 1fc:	00000024 	andeq	r0, r0, r4, lsr #32
 200:	000001ec 	andeq	r0, r0, ip, ror #3
 204:	080004c4 	stmdaeq	r0, {r2, r6, r7, sl}
 208:	000000cc 	andeq	r0, r0, ip, asr #1
 20c:	87040e41 	strhi	r0, [r4, -r1, asr #28]
 210:	100e4101 	andne	r4, lr, r1, lsl #2
 214:	02070d41 	andeq	r0, r7, #4160	; 0x1040
 218:	41040e5c 	tstmi	r4, ip, asr lr
 21c:	c7410d0d 	strbgt	r0, [r1, -sp, lsl #26]
 220:	0000000e 	andeq	r0, r0, lr
 224:	00000024 	andeq	r0, r0, r4, lsr #32
 228:	000001ec 	andeq	r0, r0, ip, ror #3
 22c:	08000590 	stmdaeq	r0, {r4, r7, r8, sl}
 230:	000000cc 	andeq	r0, r0, ip, asr #1
 234:	87040e41 	strhi	r0, [r4, -r1, asr #28]
 238:	100e4101 	andne	r4, lr, r1, lsl #2
 23c:	02070d41 	andeq	r0, r7, #4160	; 0x1040
 240:	41040e5c 	tstmi	r4, ip, asr lr
 244:	c7410d0d 	strbgt	r0, [r1, -sp, lsl #26]
 248:	0000000e 	andeq	r0, r0, lr
 24c:	0000001c 	andeq	r0, r0, ip, lsl r0
 250:	000001ec 	andeq	r0, r0, ip, ror #3
 254:	00000000 	andeq	r0, r0, r0
 258:	00000094 	muleq	r0, r4, r0
 25c:	87040e41 	strhi	r0, [r4, -r1, asr #28]
 260:	070d4101 	streq	r4, [sp, -r1, lsl #2]
 264:	410d0d7f 	tstmi	sp, pc, ror sp
 268:	00000ec7 	andeq	r0, r0, r7, asr #29
 26c:	00000020 	andeq	r0, r0, r0, lsr #32
 270:	000001ec 	andeq	r0, r0, ip, ror #3
 274:	0800065c 	stmdaeq	r0, {r2, r3, r4, r6, r9, sl}
 278:	00000016 	andeq	r0, r0, r6, lsl r0
 27c:	87080e41 	strhi	r0, [r8, -r1, asr #28]
 280:	41018e02 	tstmi	r1, r2, lsl #28
 284:	0d41100e 	stcleq	0, cr1, [r1, #-56]	; 0xffffffc8
 288:	080e4607 	stmdaeq	lr, {r0, r1, r2, r9, sl, lr}
 28c:	000d0d41 	andeq	r0, sp, r1, asr #26
 290:	00000020 	andeq	r0, r0, r0, lsr #32
 294:	000001ec 	andeq	r0, r0, ip, ror #3
 298:	08000674 	stmdaeq	r0, {r2, r4, r5, r6, r9, sl}
 29c:	000001e0 	andeq	r0, r0, r0, ror #3
 2a0:	87080e41 	strhi	r0, [r8, -r1, asr #28]
 2a4:	41018e02 	tstmi	r1, r2, lsl #28
 2a8:	0d41180e 	stcleq	8, cr1, [r1, #-56]	; 0xffffffc8
 2ac:	0edd0207 	cdpeq	2, 13, cr0, cr13, cr7, {0}
 2b0:	0d0d4108 	stfeqs	f4, [sp, #-32]	; 0xffffffe0
 2b4:	00000020 	andeq	r0, r0, r0, lsr #32
 2b8:	000001ec 	andeq	r0, r0, ip, ror #3
 2bc:	00000000 	andeq	r0, r0, r0
 2c0:	00000016 	andeq	r0, r0, r6, lsl r0
 2c4:	87080e41 	strhi	r0, [r8, -r1, asr #28]
 2c8:	41018e02 	tstmi	r1, r2, lsl #28
 2cc:	0d41100e 	stcleq	0, cr1, [r1, #-56]	; 0xffffffc8
 2d0:	080e4607 	stmdaeq	lr, {r0, r1, r2, r9, sl, lr}
 2d4:	000d0d41 	andeq	r0, sp, r1, asr #26
 2d8:	00000018 	andeq	r0, r0, r8, lsl r0
 2dc:	000001ec 	andeq	r0, r0, ip, ror #3
 2e0:	08000854 	stmdaeq	r0, {r2, r4, r6, fp}
 2e4:	00000024 	andeq	r0, r0, r4, lsr #32
 2e8:	87080e41 	strhi	r0, [r8, -r1, asr #28]
 2ec:	41018e02 	tstmi	r1, r2, lsl #28
 2f0:	0000070d 	andeq	r0, r0, sp, lsl #14
 2f4:	00000018 	andeq	r0, r0, r8, lsl r0
 2f8:	000001ec 	andeq	r0, r0, ip, ror #3
 2fc:	08000878 	stmdaeq	r0, {r3, r4, r5, r6, fp}
 300:	00000024 	andeq	r0, r0, r4, lsr #32
 304:	87080e41 	strhi	r0, [r8, -r1, asr #28]
 308:	41018e02 	tstmi	r1, r2, lsl #28
 30c:	0000070d 	andeq	r0, r0, sp, lsl #14
 310:	00000018 	andeq	r0, r0, r8, lsl r0
 314:	000001ec 	andeq	r0, r0, ip, ror #3
 318:	0800089c 	stmdaeq	r0, {r2, r3, r4, r7, fp}
 31c:	00000024 	andeq	r0, r0, r4, lsr #32
 320:	87080e41 	strhi	r0, [r8, -r1, asr #28]
 324:	41018e02 	tstmi	r1, r2, lsl #28
 328:	0000070d 	andeq	r0, r0, sp, lsl #14
 32c:	00000018 	andeq	r0, r0, r8, lsl r0
 330:	000001ec 	andeq	r0, r0, ip, ror #3
 334:	080008c0 	stmdaeq	r0, {r6, r7, fp}
 338:	00000024 	andeq	r0, r0, r4, lsr #32
 33c:	87080e41 	strhi	r0, [r8, -r1, asr #28]
 340:	41018e02 	tstmi	r1, r2, lsl #28
 344:	0000070d 	andeq	r0, r0, sp, lsl #14
 348:	00000018 	andeq	r0, r0, r8, lsl r0
 34c:	000001ec 	andeq	r0, r0, ip, ror #3
 350:	080008e4 	stmdaeq	r0, {r2, r5, r6, r7, fp}
 354:	00000024 	andeq	r0, r0, r4, lsr #32
 358:	87080e41 	strhi	r0, [r8, -r1, asr #28]
 35c:	41018e02 	tstmi	r1, r2, lsl #28
 360:	0000070d 	andeq	r0, r0, sp, lsl #14
 364:	00000018 	andeq	r0, r0, r8, lsl r0
 368:	000001ec 	andeq	r0, r0, ip, ror #3
 36c:	08000908 	stmdaeq	r0, {r3, r8, fp}
 370:	000000a8 	andeq	r0, r0, r8, lsr #1
 374:	87080e41 	strhi	r0, [r8, -r1, asr #28]
 378:	41018e02 	tstmi	r1, r2, lsl #28
 37c:	0000070d 	andeq	r0, r0, sp, lsl #14
 380:	00000018 	andeq	r0, r0, r8, lsl r0
 384:	000001ec 	andeq	r0, r0, ip, ror #3
 388:	080009b0 	stmdaeq	r0, {r4, r5, r7, r8, fp}
 38c:	000000c4 	andeq	r0, r0, r4, asr #1
 390:	87080e41 	strhi	r0, [r8, -r1, asr #28]
 394:	41018e02 	tstmi	r1, r2, lsl #28
 398:	0000070d 	andeq	r0, r0, sp, lsl #14
 39c:	0000000c 	andeq	r0, r0, ip
 3a0:	ffffffff 			; <UNDEFINED> instruction: 0xffffffff
 3a4:	7c020001 	stcvc	0, cr0, [r2], {1}
 3a8:	000d0c0e 	andeq	r0, sp, lr, lsl #24
 3ac:	00000024 	andeq	r0, r0, r4, lsr #32
 3b0:	0000039c 	muleq	r0, ip, r3
 3b4:	08000a74 	stmdaeq	r0, {r2, r4, r5, r6, r9, fp}
 3b8:	0000016e 	andeq	r0, r0, lr, ror #2
 3bc:	87040e41 	strhi	r0, [r4, -r1, asr #28]
 3c0:	100e4101 	andne	r4, lr, r1, lsl #2
 3c4:	02070d41 	andeq	r0, r7, #4160	; 0x1040
 3c8:	41040eb1 			; <UNDEFINED> instruction: 0x41040eb1
 3cc:	c7410d0d 	strbgt	r0, [r1, -sp, lsl #26]
 3d0:	0000000e 	andeq	r0, r0, lr
 3d4:	00000020 	andeq	r0, r0, r0, lsr #32
 3d8:	0000039c 	muleq	r0, ip, r3
 3dc:	08000be4 	stmdaeq	r0, {r2, r5, r6, r7, r8, r9, fp}
 3e0:	000000f8 	strdeq	r0, [r0], -r8
 3e4:	87080e41 	strhi	r0, [r8, -r1, asr #28]
 3e8:	41018e02 	tstmi	r1, r2, lsl #28
 3ec:	0d41180e 	stcleq	8, cr1, [r1, #-56]	; 0xffffffc8
 3f0:	0e770207 	cdpeq	2, 7, cr0, cr7, cr7, {0}
 3f4:	0d0d4108 	stfeqs	f4, [sp, #-32]	; 0xffffffe0
 3f8:	00000024 	andeq	r0, r0, r4, lsr #32
 3fc:	0000039c 	muleq	r0, ip, r3
 400:	00000000 	andeq	r0, r0, r0
 404:	000000d4 	ldrdeq	r0, [r0], -r4
 408:	87040e41 	strhi	r0, [r4, -r1, asr #28]
 40c:	100e4101 	andne	r4, lr, r1, lsl #2
 410:	02070d41 	andeq	r0, r7, #4160	; 0x1040
 414:	41040e57 	tstmi	r4, r7, asr lr
 418:	c7410d0d 	strbgt	r0, [r1, -sp, lsl #26]
 41c:	0000000e 	andeq	r0, r0, lr
 420:	00000024 	andeq	r0, r0, r4, lsr #32
 424:	0000039c 	muleq	r0, ip, r3
 428:	00000000 	andeq	r0, r0, r0
 42c:	0000002e 	andeq	r0, r0, lr, lsr #32
 430:	87040e41 	strhi	r0, [r4, -r1, asr #28]
 434:	180e4101 	stmdane	lr, {r0, r8, lr}
 438:	51070d41 	tstpl	r7, r1, asr #26
 43c:	0d41040e 	cfstrdeq	mvd0, [r1, #-56]	; 0xffffffc8
 440:	0ec7410d 	poleqs	f4, f7, #5.0
 444:	00000000 	andeq	r0, r0, r0
 448:	00000024 	andeq	r0, r0, r4, lsr #32
 44c:	0000039c 	muleq	r0, ip, r3
 450:	00000000 	andeq	r0, r0, r0
 454:	0000001a 	andeq	r0, r0, sl, lsl r0
 458:	87040e41 	strhi	r0, [r4, -r1, asr #28]
 45c:	180e4101 	stmdane	lr, {r0, r8, lr}
 460:	47070d41 	strmi	r0, [r7, -r1, asr #26]
 464:	0d41040e 	cfstrdeq	mvd0, [r1, #-56]	; 0xffffffc8
 468:	0ec7410d 	poleqs	f4, f7, #5.0
 46c:	00000000 	andeq	r0, r0, r0
 470:	00000024 	andeq	r0, r0, r4, lsr #32
 474:	0000039c 	muleq	r0, ip, r3
 478:	08000cdc 	stmdaeq	r0, {r2, r3, r4, r6, r7, sl, fp}
 47c:	0000001c 	andeq	r0, r0, ip, lsl r0
 480:	87040e41 	strhi	r0, [r4, -r1, asr #28]
 484:	100e4101 	andne	r4, lr, r1, lsl #2
 488:	48070d41 	stmdami	r7, {r0, r6, r8, sl, fp}
 48c:	0d41040e 	cfstrdeq	mvd0, [r1, #-56]	; 0xffffffc8
 490:	0ec7410d 	poleqs	f4, f7, #5.0
 494:	00000000 	andeq	r0, r0, r0
 498:	00000024 	andeq	r0, r0, r4, lsr #32
 49c:	0000039c 	muleq	r0, ip, r3
 4a0:	08000cf8 	stmdaeq	r0, {r3, r4, r5, r6, r7, sl, fp}
 4a4:	0000002e 	andeq	r0, r0, lr, lsr #32
 4a8:	87040e41 	strhi	r0, [r4, -r1, asr #28]
 4ac:	100e4101 	andne	r4, lr, r1, lsl #2
 4b0:	51070d41 	tstpl	r7, r1, asr #26
 4b4:	0d41040e 	cfstrdeq	mvd0, [r1, #-56]	; 0xffffffc8
 4b8:	0ec7410d 	poleqs	f4, f7, #5.0
 4bc:	00000000 	andeq	r0, r0, r0
 4c0:	00000024 	andeq	r0, r0, r4, lsr #32
 4c4:	0000039c 	muleq	r0, ip, r3
 4c8:	00000000 	andeq	r0, r0, r0
 4cc:	00000022 	andeq	r0, r0, r2, lsr #32
 4d0:	87040e41 	strhi	r0, [r4, -r1, asr #28]
 4d4:	100e4101 	andne	r4, lr, r1, lsl #2
 4d8:	4b070d41 	blmi	1c39e4 <_Min_Stack_Size+0x1c35e4>
 4dc:	0d41040e 	cfstrdeq	mvd0, [r1, #-56]	; 0xffffffc8
 4e0:	0ec7410d 	poleqs	f4, f7, #5.0
 4e4:	00000000 	andeq	r0, r0, r0
 4e8:	00000024 	andeq	r0, r0, r4, lsr #32
 4ec:	0000039c 	muleq	r0, ip, r3
 4f0:	00000000 	andeq	r0, r0, r0
 4f4:	0000004e 	andeq	r0, r0, lr, asr #32
 4f8:	87040e41 	strhi	r0, [r4, -r1, asr #28]
 4fc:	180e4101 	stmdane	lr, {r0, r8, lr}
 500:	61070d41 	tstvs	r7, r1, asr #26
 504:	0d41040e 	cfstrdeq	mvd0, [r1, #-56]	; 0xffffffc8
 508:	0ec7410d 	poleqs	f4, f7, #5.0
 50c:	00000000 	andeq	r0, r0, r0
 510:	0000000c 	andeq	r0, r0, ip
 514:	ffffffff 			; <UNDEFINED> instruction: 0xffffffff
 518:	7c020001 	stcvc	0, cr0, [r2], {1}
 51c:	000d0c0e 	andeq	r0, sp, lr, lsl #24
 520:	00000018 	andeq	r0, r0, r8, lsl r0
 524:	00000510 	andeq	r0, r0, r0, lsl r5
 528:	08000d28 	stmdaeq	r0, {r3, r5, r8, sl, fp}
 52c:	00000048 	andeq	r0, r0, r8, asr #32
 530:	84100e41 	ldrhi	r0, [r0], #-3649	; 0xfffff1bf
 534:	86038504 	strhi	r8, [r3], -r4, lsl #10
 538:	00018e02 	andeq	r8, r1, r2, lsl #28
